

Microchip MPLAB XC8 Assembler V2.10 build 88905656 
                                                                                               Wed Nov 20 23:09:57 2019

Microchip MPLAB XC8 C Compiler v2.10 (Free license) build 20190730164152 Og1 
     1                           	processor	18F4550
     2                           	fnconf	rparam,??,?,0
     3                           	opt	pw 120
     4                           	opt	flic
     5                           	psect	idataBANK0,global,class=CODE,delta=1,noexec
     6                           	psect	smallconst,global,reloc=2,class=SMALLCONST,delta=1,noexec
     7                           	psect	cinit,global,reloc=2,class=CODE,delta=1
     8                           	psect	bssCOMRAM,global,class=COMRAM,space=1,delta=1,noexec
     9                           	psect	dataBANK0,global,class=BANK0,space=1,delta=1,lowdata,noexec
    10                           	psect	cstackBANK0,global,class=BANK0,space=1,delta=1,noexec
    11                           	psect	cstackCOMRAM,global,class=COMRAM,space=1,delta=1,noexec
    12                           	psect	text0,global,reloc=2,class=CODE,delta=1
    13                           	psect	text1,global,reloc=2,class=CODE,delta=1
    14                           	psect	text2,global,reloc=2,class=CODE,delta=1,group=1
    15                           	psect	text3,global,reloc=2,class=CODE,delta=1,group=1
    16                           	psect	text4,global,reloc=2,class=CODE,delta=1,group=2
    17                           	psect	text5,global,reloc=2,class=CODE,delta=1
    18                           	psect	text6,global,reloc=2,class=CODE,delta=1
    19                           	psect	text7,global,reloc=2,class=CODE,delta=1,group=2
    20                           	psect	text8,global,reloc=2,class=CODE,delta=1,group=2
    21                           	psect	text9,global,reloc=2,class=CODE,delta=1,group=1
    22                           	psect	text10,global,reloc=2,class=CODE,delta=1,group=1
    23                           	psect	text11,global,reloc=2,class=CODE,delta=1,group=1
    24                           	psect	text12,global,reloc=2,class=CODE,delta=1,group=1
    25                           	psect	text13,global,reloc=2,class=CODE,delta=1,group=1
    26                           	psect	text14,global,reloc=2,class=CODE,delta=1,group=1
    27                           	psect	text15,global,reloc=2,class=CODE,delta=1
    28                           	psect	text16,global,reloc=2,class=CODE,delta=1
    29                           	psect	text17,global,reloc=2,class=CODE,delta=1
    30                           	psect	text18,global,reloc=2,class=CODE,delta=1
    31                           	psect	text19,global,reloc=2,class=CODE,delta=1
    32                           	psect	text20,global,reloc=2,class=CODE,delta=1
    33                           	psect	text21,global,reloc=2,class=CODE,delta=1
    34                           	psect	text22,global,reloc=2,class=CODE,delta=1
    35                           	psect	text23,global,reloc=2,class=CODE,delta=1
    36                           	psect	intsave_regs,global,class=BIGRAM,space=1,delta=1,noexec
    37                           	psect	rparam,global,class=COMRAM,space=1,delta=1,noexec
    38  0000                     
    39                           ; Version 2.10
    40                           ; Generated 31/07/2019 GMT
    41                           ; 
    42                           ; Copyright © 2019, Microchip Technology Inc. and its subsidiaries ("Microchip")
    43                           ; All rights reserved.
    44                           ; 
    45                           ; This software is developed by Microchip Technology Inc. and its subsidiaries ("Microch
      +                          ip").
    46                           ; 
    47                           ; Redistribution and use in source and binary forms, with or without modification, are
    48                           ; permitted provided that the following conditions are met:
    49                           ; 
    50                           ;     1. Redistributions of source code must retain the above copyright notice, this lis
      +                          t of
    51                           ;        conditions and the following disclaimer.
    52                           ; 
    53                           ;     2. Redistributions in binary form must reproduce the above copyright notice, this 
      +                          list
    54                           ;        of conditions and the following disclaimer in the documentation and/or other
    55                           ;        materials provided with the distribution.
    56                           ; 
    57                           ;     3. Microchip's name may not be used to endorse or promote products derived from th
      +                          is
    58                           ;        software without specific prior written permission.
    59                           ; 
    60                           ; THIS SOFTWARE IS PROVIDED BY MICROCHIP "AS IS" AND ANY EXPRESS OR IMPLIED WARRANTIES,
    61                           ; INCLUDING, BUT NOT LIMITED TO, THE IMPLIED WARRANTIES OF MERCHANTABILITY AND FITNESS F
      +                          OR
    62                           ; PURPOSE ARE DISCLAIMED.  IN NO EVENT SHALL MICROCHIP BE LIABLE FOR ANY DIRECT, INDIREC
      +                          T,
    63                           ; INCIDENTAL, SPECIAL, EXEMPLARY, OR CONSEQUENTIAL DAMAGES (INCLUDING BUT NOT LIMITED TO
    64                           ; PROCUREMENT OF SUBSTITUTE GOODS OR SERVICES; LOSS OF USE, DATA OR PROFITS; OR BUSINESS
    65                           ; INTERRUPTION) HOWSOEVER CAUSED AND ON ANY THEORY OF LIABILITY, WHETHER IN CONTRACT, ST
      +                          RICT
    66                           ; LIABILITY, OR TORT (INCLUDING NEGLIGENCE OR OTHERWISE) ARISING IN ANY WAY OUT OF THE U
      +                          SE OF
    67                           ; THIS SOFTWARE, EVEN IF ADVISED OF THE POSSIBILITY OF SUCH DAMAGE.
    68                           ; 
    69                           ; 
    70                           ; Code-generator required, PIC18F4550 Definitions
    71                           ; 
    72                           ; SFR Addresses
    73  0000                     
    74                           	psect	idataBANK0
    75  002506                     __pidataBANK0:
    76                           	opt callstack 0
    77                           
    78                           ;initializer for _keypad
    79  002506  31                 	db	49
    80  002507  32                 	db	50
    81  002508  33                 	db	51
    82  002509  41                 	db	65
    83  00250A  34                 	db	52
    84  00250B  35                 	db	53
    85  00250C  36                 	db	54
    86  00250D  42                 	db	66
    87  00250E  37                 	db	55
    88  00250F  38                 	db	56
    89  002510  39                 	db	57
    90  002511  43                 	db	67
    91  002512  20                 	db	32
    92  002513  30                 	db	48
    93  002514  45                 	db	69
    94  002515  44                 	db	68
    95                           
    96                           	psect	smallconst
    97  000800                     __psmallconst:
    98                           	opt callstack 0
    99  000800  00                 	db	0
   100  000801                     _dpowers:
   101                           	opt callstack 0
   102  000801  0001               	dw	1
   103  000803  000A               	dw	10
   104  000805  0064               	dw	100
   105  000807  03E8               	dw	1000
   106  000809  2710               	dw	10000
   107  00080B                     __end_of_dpowers:
   108                           	opt callstack 0
   109  0000                     _ADCON0bits	set	4034
   110  0000                     _ADCON0	set	4034
   111  0000                     _ADRESL	set	4035
   112  0000                     _ADRESH	set	4036
   113  0000                     _ADCON2	set	4032
   114  0000                     _ADCON1	set	4033
   115  0000                     _TRISA	set	3986
   116  0000                     _OSCCON	set	4051
   117  0000                     _PORTB	set	3969
   118  0000                     _LATB	set	3978
   119  0000                     _TRISB	set	3987
   120  0000                     _LATD	set	3980
   121  0000                     _TRISD	set	3989
   122  0000                     _GO	set	32273
   123  0000                     _ADON	set	32272
   124  0000                     _RC1	set	31761
   125  0000                     _RBPU	set	32655
   126  0000                     _LATC0	set	31832
   127  0000                     _TRISC0	set	31904
   128  0000                     _TRISC1	set	31905
   129  0000                     _LATD1	set	31841
   130  0000                     _LATD0	set	31840
   131  00080B                     STR_1:
   132  00080B  41                 	db	65	;'A'
   133  00080C  3D                 	db	61	;'='
   134  00080D  41                 	db	65	;'A'
   135  00080E  75                 	db	117	;'u'
   136  00080F  74                 	db	116	;'t'
   137  000810  6F                 	db	111	;'o'
   138  000811  6D                 	db	109	;'m'
   139  000812  61                 	db	97	;'a'
   140  000813  74                 	db	116	;'t'
   141  000814  69                 	db	105	;'i'
   142  000815  63                 	db	99	;'c'
   143  000816  6F                 	db	111	;'o'
   144  000817  00                 	db	0
   145  000818                     STR_6:
   146  000818  54                 	db	84	;'T'
   147  000819  45                 	db	69	;'E'
   148  00081A  4D                 	db	77	;'M'
   149  00081B  50                 	db	80	;'P'
   150  00081C  45                 	db	69	;'E'
   151  00081D  52                 	db	82	;'R'
   152  00081E  41                 	db	65	;'A'
   153  00081F  54                 	db	84	;'T'
   154  000820  55                 	db	85	;'U'
   155  000821  52                 	db	82	;'R'
   156  000822  41                 	db	65	;'A'
   157  000823  00                 	db	0
   158  000824                     STR_10:
   159  000824  50                 	db	80	;'P'
   160  000825  4F                 	db	79	;'O'
   161  000826  54                 	db	84	;'T'
   162  000827  2E                 	db	46
   163  000828  20                 	db	32
   164  000829  44                 	db	68	;'D'
   165  00082A  49                 	db	73	;'I'
   166  00082B  4D                 	db	77	;'M'
   167  00082C  4D                 	db	77	;'M'
   168  00082D  45                 	db	69	;'E'
   169  00082E  52                 	db	82	;'R'
   170  00082F  00                 	db	0
   171  000830                     STR_5:
   172  000830  53                 	db	83	;'S'
   173  000831  45                 	db	69	;'E'
   174  000832  54                 	db	84	;'T'
   175  000833  50                 	db	80	;'P'
   176  000834  4F                 	db	79	;'O'
   177  000835  49                 	db	73	;'I'
   178  000836  4E                 	db	78	;'N'
   179  000837  54                 	db	84	;'T'
   180  000838  20                 	db	32
   181  000839  00                 	db	0
   182  00083A                     STR_2:
   183  00083A  42                 	db	66	;'B'
   184  00083B  3D                 	db	61	;'='
   185  00083C  4D                 	db	77	;'M'
   186  00083D  61                 	db	97	;'a'
   187  00083E  6E                 	db	110	;'n'
   188  00083F  75                 	db	117	;'u'
   189  000840  61                 	db	97	;'a'
   190  000841  6C                 	db	108	;'l'
   191  000842  00                 	db	0
   192  000843                     STR_7:
   193  000843  25                 	db	37
   194  000844  64                 	db	100	;'d'
   195  000845  20                 	db	32
   196  000846  43                 	db	67	;'C'
   197  000847  20                 	db	32
   198  000848  00                 	db	0
   199  000849                     STR_11:
   200  000849  25                 	db	37
   201  00084A  64                 	db	100	;'d'
   202  00084B  20                 	db	32
   203  00084C  00                 	db	0
   204  0000                     
   205                           ; #config settings
   206  00084D  00                 	db	0	; dummy byte at the end
   207  0000                     
   208                           	psect	cinit
   209  00245C                     __pcinit:
   210                           	opt callstack 0
   211  00245C                     start_initialization:
   212                           	opt callstack 0
   213  00245C                     __initialization:
   214                           	opt callstack 0
   215                           
   216                           ; Initialize objects allocated to BANK0 (16 bytes)
   217                           ; load TBLPTR registers with __pidataBANK0
   218  00245C  0E06               	movlw	low __pidataBANK0
   219  00245E  6EF6               	movwf	tblptrl,c
   220  002460  0E25               	movlw	high __pidataBANK0
   221  002462  6EF7               	movwf	tblptrh,c
   222  002464  0E00               	movlw	low (__pidataBANK0 shr (0+16))
   223  002466  6EF8               	movwf	tblptru,c
   224  002468  EE00  F091         	lfsr	0,__pdataBANK0
   225  00246C  EE10 F010          	lfsr	1,16
   226  002470                     copy_data0:
   227  002470  0009               	tblrd		*+
   228  002472  CFF5 FFEE          	movff	tablat,postinc0
   229  002476  50E5               	movf	postdec1,w,c
   230  002478  50E1               	movf	fsr1l,w,c
   231  00247A  E1FA               	bnz	copy_data0
   232                           
   233                           ; Clear objects allocated to COMRAM (5 bytes)
   234  00247C  6A55               	clrf	(__pbssCOMRAM+4)& (0+255),c
   235  00247E  6A54               	clrf	(__pbssCOMRAM+3)& (0+255),c
   236  002480  6A53               	clrf	(__pbssCOMRAM+2)& (0+255),c
   237  002482  6A52               	clrf	(__pbssCOMRAM+1)& (0+255),c
   238  002484  6A51               	clrf	__pbssCOMRAM& (0+255),c
   239  002486                     end_of_initialization:
   240                           	opt callstack 0
   241  002486                     __end_of__initialization:
   242                           	opt callstack 0
   243  002486  0E00               	movlw	low (__Lmediumconst shr (0+16))
   244  002488  6EF8               	movwf	tblptru,c
   245  00248A  0100               	movlb	0
   246  00248C  EF27  F004         	goto	_main	;jump to C main() function
   247                           
   248                           	psect	bssCOMRAM
   249  000051                     __pbssCOMRAM:
   250                           	opt callstack 0
   251  000051                     _seg:
   252                           	opt callstack 0
   253  000051                     	ds	1
   254  000052                     _lim:
   255                           	opt callstack 0
   256  000052                     	ds	1
   257  000053                     _temp_col:
   258                           	opt callstack 0
   259  000053                     	ds	1
   260  000054                     _rowloc:
   261                           	opt callstack 0
   262  000054                     	ds	1
   263  000055                     _col_loc:
   264                           	opt callstack 0
   265  000055                     	ds	1
   266                           
   267                           	psect	dataBANK0
   268  000091                     __pdataBANK0:
   269                           	opt callstack 0
   270  000091                     _keypad:
   271                           	opt callstack 0
   272  000091                     	ds	16
   273                           
   274                           	psect	cstackBANK0
   275  000060                     __pcstackBANK0:
   276                           	opt callstack 0
   277  000060                     main@Potencio:
   278                           	opt callstack 0
   279                           
   280                           ; 10 bytes @ 0x0
   281  000060                     	ds	10
   282  00006A                     main@tiempo:
   283                           	opt callstack 0
   284                           
   285                           ; 2 bytes @ 0xA
   286  00006A                     	ds	2
   287  00006C                     main@Temperatura:
   288                           	opt callstack 0
   289                           
   290                           ; 10 bytes @ 0xC
   291  00006C                     	ds	10
   292  000076                     main@SetPoint:
   293                           	opt callstack 0
   294                           
   295                           ; 4 bytes @ 0x16
   296  000076                     	ds	4
   297  00007A                     main@potenciometro:
   298                           	opt callstack 0
   299                           
   300                           ; 4 bytes @ 0x1A
   301  00007A                     	ds	4
   302  00007E                     main@insp:
   303                           	opt callstack 0
   304                           
   305                           ; 2 bytes @ 0x1E
   306  00007E                     	ds	2
   307  000080                     main@error:
   308                           	opt callstack 0
   309                           
   310                           ; 2 bytes @ 0x20
   311  000080                     	ds	2
   312  000082                     main@sp:
   313                           	opt callstack 0
   314                           
   315                           ; 2 bytes @ 0x22
   316  000082                     	ds	2
   317  000084                     main@Tem_Act:
   318                           	opt callstack 0
   319                           
   320                           ; 2 bytes @ 0x24
   321  000084                     	ds	2
   322  000086                     main@modo:
   323                           	opt callstack 0
   324                           
   325                           ; 2 bytes @ 0x26
   326  000086                     	ds	2
   327  000088                     main@pot:
   328                           	opt callstack 0
   329                           
   330                           ; 4 bytes @ 0x28
   331  000088                     	ds	4
   332  00008C                     main@celsius:
   333                           	opt callstack 0
   334                           
   335                           ; 4 bytes @ 0x2C
   336  00008C                     	ds	4
   337  000090                     main@tecla:
   338                           	opt callstack 0
   339                           
   340                           ; 1 bytes @ 0x30
   341  000090                     	ds	1
   342                           
   343                           	psect	cstackCOMRAM
   344  000001                     __pcstackCOMRAM:
   345                           	opt callstack 0
   346  000001                     ??_isdigit:
   347  000001                     ?_ADC_Read:
   348                           	opt callstack 0
   349  000001                     ?___lwdiv:
   350                           	opt callstack 0
   351  000001                     ?___lmul:
   352                           	opt callstack 0
   353  000001                     ?___fltol:
   354                           	opt callstack 0
   355  000001                     MSdelay@val:
   356                           	opt callstack 0
   357  000001                     ADC_Read@channel:
   358                           	opt callstack 0
   359  000001                     ___lwdiv@dividend:
   360                           	opt callstack 0
   361  000001                     memset@p1:
   362                           	opt callstack 0
   363  000001                     ___lmul@multiplier:
   364                           	opt callstack 0
   365  000001                     ___fltol@f1:
   366                           	opt callstack 0
   367                           
   368                           ; 4 bytes @ 0x0
   369  000001                     	ds	1
   370  000002                     _isdigit$717:
   371                           	opt callstack 0
   372                           
   373                           ; 1 bytes @ 0x1
   374  000002                     	ds	1
   375  000003                     ??_ADC_Read:
   376  000003                     isdigit@c:
   377                           	opt callstack 0
   378  000003                     MSdelay@i:
   379                           	opt callstack 0
   380  000003                     ___lwdiv@divisor:
   381                           	opt callstack 0
   382  000003                     memset@c:
   383                           	opt callstack 0
   384                           
   385                           ; 2 bytes @ 0x2
   386  000003                     	ds	2
   387  000005                     ??___fltol:
   388  000005                     MSdelay@j:
   389                           	opt callstack 0
   390  000005                     ___lwdiv@quotient:
   391                           	opt callstack 0
   392  000005                     memset@n:
   393                           	opt callstack 0
   394  000005                     ___lmul@multiplicand:
   395                           	opt callstack 0
   396                           
   397                           ; 4 bytes @ 0x4
   398  000005                     	ds	2
   399  000007                     ??_LCD_Command:
   400  000007                     ??_LCD_Char:
   401  000007                     ___lwdiv@counter:
   402                           	opt callstack 0
   403  000007                     ADC_Read@digital:
   404                           	opt callstack 0
   405  000007                     memset@p:
   406                           	opt callstack 0
   407                           
   408                           ; 2 bytes @ 0x6
   409  000007                     	ds	1
   410  000008                     ?___lwmod:
   411                           	opt callstack 0
   412  000008                     LCD_Command@cmd:
   413                           	opt callstack 0
   414  000008                     LCD_Char@dat:
   415                           	opt callstack 0
   416  000008                     ___lwmod@dividend:
   417                           	opt callstack 0
   418                           
   419                           ; 2 bytes @ 0x7
   420  000008                     	ds	1
   421  000009                     ?___awdiv:
   422                           	opt callstack 0
   423  000009                     ___fltol@sign1:
   424                           	opt callstack 0
   425  000009                     LCD_String@msg:
   426                           	opt callstack 0
   427  000009                     ___awdiv@dividend:
   428                           	opt callstack 0
   429  000009                     ___lmul@product:
   430                           	opt callstack 0
   431                           
   432                           ; 4 bytes @ 0x8
   433  000009                     	ds	1
   434  00000A                     ___fltol@exp1:
   435                           	opt callstack 0
   436  00000A                     ___lwmod@divisor:
   437                           	opt callstack 0
   438                           
   439                           ; 2 bytes @ 0x9
   440  00000A                     	ds	1
   441  00000B                     LCD_String_xy@pos:
   442                           	opt callstack 0
   443  00000B                     dimmer@brillo:
   444                           	opt callstack 0
   445  00000B                     ___awdiv@divisor:
   446                           	opt callstack 0
   447                           
   448                           ; 2 bytes @ 0xA
   449  00000B                     	ds	1
   450  00000C                     ___lwmod@counter:
   451                           	opt callstack 0
   452  00000C                     LCD_String_xy@msg:
   453                           	opt callstack 0
   454                           
   455                           ; 2 bytes @ 0xB
   456  00000C                     	ds	1
   457  00000D                     ??_dimmer:
   458  00000D                     ?_sprintf:
   459                           	opt callstack 0
   460  00000D                     ?_atol:
   461                           	opt callstack 0
   462  00000D                     ___awdiv@counter:
   463                           	opt callstack 0
   464  00000D                     sprintf@sp:
   465                           	opt callstack 0
   466  00000D                     atol@s:
   467                           	opt callstack 0
   468                           
   469                           ; 2 bytes @ 0xC
   470  00000D                     	ds	1
   471  00000E                     LCD_String_xy@row:
   472                           	opt callstack 0
   473  00000E                     ___awdiv@sign:
   474                           	opt callstack 0
   475                           
   476                           ; 1 bytes @ 0xD
   477  00000E                     	ds	1
   478  00000F                     LCD_String_xy@location:
   479                           	opt callstack 0
   480  00000F                     sprintf@f:
   481                           	opt callstack 0
   482  00000F                     ___awdiv@quotient:
   483                           	opt callstack 0
   484                           
   485                           ; 2 bytes @ 0xE
   486  00000F                     	ds	2
   487  000011                     ??_atol:
   488  000011                     ?___xxtofl:
   489                           	opt callstack 0
   490  000011                     ___xxtofl@val:
   491                           	opt callstack 0
   492                           
   493                           ; 4 bytes @ 0x10
   494  000011                     	ds	2
   495  000013                     ??_sprintf:
   496                           
   497                           ; 1 bytes @ 0x12
   498  000013                     	ds	1
   499  000014                     sprintf@ap:
   500                           	opt callstack 0
   501                           
   502                           ; 2 bytes @ 0x13
   503  000014                     	ds	1
   504  000015                     ??___xxtofl:
   505  000015                     atol@sign:
   506                           	opt callstack 0
   507                           
   508                           ; 1 bytes @ 0x14
   509  000015                     	ds	1
   510  000016                     sprintf@flag:
   511                           	opt callstack 0
   512  000016                     atol@a:
   513                           	opt callstack 0
   514                           
   515                           ; 4 bytes @ 0x15
   516  000016                     	ds	1
   517  000017                     sprintf@prec:
   518                           	opt callstack 0
   519                           
   520                           ; 1 bytes @ 0x16
   521  000017                     	ds	1
   522  000018                     sprintf@val:
   523                           	opt callstack 0
   524                           
   525                           ; 2 bytes @ 0x17
   526  000018                     	ds	1
   527  000019                     ___xxtofl@sign:
   528                           	opt callstack 0
   529                           
   530                           ; 1 bytes @ 0x18
   531  000019                     	ds	1
   532  00001A                     sprintf@c:
   533                           	opt callstack 0
   534  00001A                     ___xxtofl@exp:
   535                           	opt callstack 0
   536  00001A                     atol@c:
   537                           	opt callstack 0
   538                           
   539                           ; 1 bytes @ 0x19
   540  00001A                     	ds	1
   541  00001B                     ___xxtofl@arg:
   542                           	opt callstack 0
   543                           
   544                           ; 4 bytes @ 0x1A
   545  00001B                     	ds	4
   546  00001F                     ?___flmul:
   547                           	opt callstack 0
   548  00001F                     ___flmul@b:
   549                           	opt callstack 0
   550                           
   551                           ; 4 bytes @ 0x1E
   552  00001F                     	ds	4
   553  000023                     ___flmul@a:
   554                           	opt callstack 0
   555                           
   556                           ; 4 bytes @ 0x22
   557  000023                     	ds	4
   558  000027                     ??___flmul:
   559                           
   560                           ; 1 bytes @ 0x26
   561  000027                     	ds	4
   562  00002B                     ___flmul@sign:
   563                           	opt callstack 0
   564                           
   565                           ; 1 bytes @ 0x2A
   566  00002B                     	ds	1
   567  00002C                     ___flmul@grs:
   568                           	opt callstack 0
   569                           
   570                           ; 4 bytes @ 0x2B
   571  00002C                     	ds	4
   572  000030                     ___flmul@aexp:
   573                           	opt callstack 0
   574                           
   575                           ; 1 bytes @ 0x2F
   576  000030                     	ds	1
   577  000031                     ___flmul@bexp:
   578                           	opt callstack 0
   579                           
   580                           ; 1 bytes @ 0x30
   581  000031                     	ds	1
   582  000032                     ___flmul@prod:
   583                           	opt callstack 0
   584                           
   585                           ; 4 bytes @ 0x31
   586  000032                     	ds	4
   587  000036                     ___flmul@temp:
   588                           	opt callstack 0
   589                           
   590                           ; 2 bytes @ 0x35
   591  000036                     	ds	2
   592  000038                     ?___fldiv:
   593                           	opt callstack 0
   594  000038                     ___fldiv@b:
   595                           	opt callstack 0
   596                           
   597                           ; 4 bytes @ 0x37
   598  000038                     	ds	4
   599  00003C                     ___fldiv@a:
   600                           	opt callstack 0
   601                           
   602                           ; 4 bytes @ 0x3B
   603  00003C                     	ds	4
   604  000040                     ??___fldiv:
   605                           
   606                           ; 1 bytes @ 0x3F
   607  000040                     	ds	4
   608  000044                     ___fldiv@rem:
   609                           	opt callstack 0
   610                           
   611                           ; 4 bytes @ 0x43
   612  000044                     	ds	4
   613  000048                     ___fldiv@sign:
   614                           	opt callstack 0
   615                           
   616                           ; 1 bytes @ 0x47
   617  000048                     	ds	1
   618  000049                     ___fldiv@new_exp:
   619                           	opt callstack 0
   620                           
   621                           ; 2 bytes @ 0x48
   622  000049                     	ds	2
   623  00004B                     ___fldiv@grs:
   624                           	opt callstack 0
   625                           
   626                           ; 4 bytes @ 0x4A
   627  00004B                     	ds	4
   628  00004F                     ___fldiv@bexp:
   629                           	opt callstack 0
   630                           
   631                           ; 1 bytes @ 0x4E
   632  00004F                     	ds	1
   633  000050                     ___fldiv@aexp:
   634                           	opt callstack 0
   635                           
   636                           ; 1 bytes @ 0x4F
   637  000050                     	ds	1
   638  000051                     
   639                           ; 1 bytes @ 0x50
   640 ;;
   641 ;;Main: autosize = 0, tempsize = 0, incstack = 0, save=0
   642 ;;
   643 ;; *************** function _main *****************
   644 ;; Defined at:
   645 ;;		line 14 in file "incub.c"
   646 ;; Parameters:    Size  Location     Type
   647 ;;		None
   648 ;; Auto vars:     Size  Location     Type
   649 ;;  Temperatura    10   12[BANK0 ] unsigned char [10]
   650 ;;  Potencio       10    0[BANK0 ] unsigned char [10]
   651 ;;  celsius         4   44[BANK0 ] float 
   652 ;;  pot             4   40[BANK0 ] float 
   653 ;;  potenciometr    4   26[BANK0 ] float 
   654 ;;  SetPoint        4   22[BANK0 ] unsigned long 
   655 ;;  sp              2   34[BANK0 ] unsigned char [2]
   656 ;;  modo            2   38[BANK0 ] int 
   657 ;;  Tem_Act         2   36[BANK0 ] unsigned int 
   658 ;;  error           2   32[BANK0 ] unsigned int 
   659 ;;  insp            2   30[BANK0 ] unsigned int 
   660 ;;  tiempo          2   10[BANK0 ] int 
   661 ;;  tecla           1   48[BANK0 ] unsigned char 
   662 ;; Return value:  Size  Location     Type
   663 ;;                  2  162[None  ] int 
   664 ;; Registers used:
   665 ;;		wreg, fsr0l, fsr0h, fsr2l, fsr2h, status,2, status,0, tblptrl, tblptrh, tblptru, prodl, prodh, cstack
   666 ;; Tracked objects:
   667 ;;		On entry : 0/0
   668 ;;		On exit  : 0/0
   669 ;;		Unchanged: 0/0
   670 ;; Data sizes:     COMRAM   BANK0   BANK1   BANK2   BANK3   BANK4   BANK5   BANK6   BANK7
   671 ;;      Params:         0       0       0       0       0       0       0       0       0
   672 ;;      Locals:         0      49       0       0       0       0       0       0       0
   673 ;;      Temps:          0       0       0       0       0       0       0       0       0
   674 ;;      Totals:         0      49       0       0       0       0       0       0       0
   675 ;;Total ram usage:       49 bytes
   676 ;; Hardware stack levels required when called:    4
   677 ;; This function calls:
   678 ;;		_ADC_Init
   679 ;;		_ADC_Read
   680 ;;		_LCD_Clear
   681 ;;		_LCD_Command
   682 ;;		_LCD_Init
   683 ;;		_LCD_String_xy
   684 ;;		_MSdelay
   685 ;;		___awdiv
   686 ;;		___fldiv
   687 ;;		___flmul
   688 ;;		___fltol
   689 ;;		___xxtofl
   690 ;;		_atol
   691 ;;		_dimmer
   692 ;;		_keyfind
   693 ;;		_memset
   694 ;;		_sprintf
   695 ;; This function is called by:
   696 ;;		Startup code after reset
   697 ;; This function uses a non-reentrant model
   698 ;;
   699                           
   700                           	psect	text0
   701  00084E                     __ptext0:
   702                           	opt callstack 0
   703  00084E                     _main:
   704                           	opt callstack 27
   705  00084E                     
   706                           ;incub.c: 16: char tecla;;incub.c: 17: int modo;;incub.c: 18: char sp[2];;incub.c: 19: u
      +                          nsigned int insp=0;
   707  00084E  0E00               	movlw	0
   708  000850  0100               	movlb	0	; () banked
   709  000852  6F7F               	movwf	(main@insp+1)& (0+255),b
   710  000854  0E00               	movlw	0
   711  000856  6F7E               	movwf	main@insp& (0+255),b
   712                           
   713                           ;incub.c: 22: unsigned int Tem_Act=0;
   714  000858  0E00               	movlw	0
   715  00085A  6F85               	movwf	(main@Tem_Act+1)& (0+255),b
   716  00085C  0E00               	movlw	0
   717  00085E  6F84               	movwf	main@Tem_Act& (0+255),b
   718                           
   719                           ;incub.c: 23: int tiempo=0;
   720  000860  0E00               	movlw	0
   721  000862  6F6B               	movwf	(main@tiempo+1)& (0+255),b
   722  000864  0E00               	movlw	0
   723  000866  6F6A               	movwf	main@tiempo& (0+255),b
   724  000868                     
   725                           ; BSR set to: 0
   726                           ;incub.c: 24: char Temperatura[10];;incub.c: 25: char Potencio[10];;incub.c: 26: float p
      +                          otenciometro;;incub.c: 27: float celsius;;incub.c: 28: float pot;;incub.c: 30: TRISC1 = 
      +                          1;
   727  000868  8294               	bsf	3988,1,c	;volatile
   728  00086A                     
   729                           ; BSR set to: 0
   730                           ;incub.c: 31: TRISC0 = 0;
   731  00086A  9094               	bcf	3988,0,c	;volatile
   732  00086C                     
   733                           ; BSR set to: 0
   734                           ;incub.c: 32: LATC0 = 0;
   735  00086C  908B               	bcf	3979,0,c	;volatile
   736                           
   737                           ;incub.c: 34: OSCCON = 0x72;
   738  00086E  0E72               	movlw	114
   739  000870  6ED3               	movwf	211,c	;volatile
   740  000872                     
   741                           ; BSR set to: 0
   742                           ;incub.c: 35: RBPU = 0;
   743  000872  9EF1               	bcf	4081,7,c	;volatile
   744  000874                     
   745                           ; BSR set to: 0
   746                           ;incub.c: 36: LCD_Init();
   747  000874  EC61  F012         	call	_LCD_Init	;wreg free
   748  000878                     
   749                           ;incub.c: 37: ADC_Init();
   750  000878  EC79  F012         	call	_ADC_Init	;wreg free
   751  00087C                     
   752                           ;incub.c: 40: LCD_String_xy(1,0,"A=Automatico");
   753  00087C  0E00               	movlw	0
   754  00087E  6E0B               	movwf	LCD_String_xy@pos^0,c
   755  000880  0E0B               	movlw	low STR_1
   756  000882  6E0C               	movwf	LCD_String_xy@msg^0,c
   757  000884  0E08               	movlw	high STR_1
   758  000886  6E0D               	movwf	(LCD_String_xy@msg+1)^0,c
   759  000888  0E01               	movlw	1
   760  00088A  ECF2  F011         	call	_LCD_String_xy
   761  00088E                     
   762                           ;incub.c: 41: LCD_String_xy(2,0,"B=Manual");
   763  00088E  0E00               	movlw	0
   764  000890  6E0B               	movwf	LCD_String_xy@pos^0,c
   765  000892  0E3A               	movlw	low STR_2
   766  000894  6E0C               	movwf	LCD_String_xy@msg^0,c
   767  000896  0E08               	movlw	high STR_2
   768  000898  6E0D               	movwf	(LCD_String_xy@msg+1)^0,c
   769  00089A  0E02               	movlw	2
   770  00089C  ECF2  F011         	call	_LCD_String_xy
   771  0008A0                     
   772                           ;incub.c: 42: MSdelay(1000);
   773  0008A0  0E03               	movlw	3
   774  0008A2  6E02               	movwf	(MSdelay@val+1)^0,c
   775  0008A4  0EE8               	movlw	232
   776  0008A6  6E01               	movwf	MSdelay@val^0,c
   777  0008A8  ECCD  F011         	call	_MSdelay	;wreg free
   778  0008AC                     
   779                           ;incub.c: 44: LCD_Clear();
   780  0008AC  EC8B  F012         	call	_LCD_Clear	;wreg free
   781  0008B0                     
   782                           ;incub.c: 45: LCD_Command(0x80);
   783  0008B0  0E80               	movlw	128
   784  0008B2  ECA7  F011         	call	_LCD_Command
   785  0008B6                     l2927:
   786                           
   787                           ;incub.c: 48: tecla = keyfind();
   788  0008B6  ECE1  F00A         	call	_keyfind	;wreg free
   789  0008BA  0100               	movlb	0	; () banked
   790  0008BC  6F90               	movwf	main@tecla& (0+255),b
   791  0008BE                     
   792                           ; BSR set to: 0
   793                           ;incub.c: 49: MSdelay(20);
   794  0008BE  0E00               	movlw	0
   795  0008C0  6E02               	movwf	(MSdelay@val+1)^0,c
   796  0008C2  0E14               	movlw	20
   797  0008C4  6E01               	movwf	MSdelay@val^0,c
   798  0008C6  ECCD  F011         	call	_MSdelay	;wreg free
   799  0008CA                     
   800                           ;incub.c: 50: if(tecla!=' '){
   801  0008CA  0E20               	movlw	32
   802  0008CC  0100               	movlb	0	; () banked
   803  0008CE  1990               	xorwf	main@tecla& (0+255),w,b
   804  0008D0  B4D8               	btfsc	status,2,c
   805  0008D2  EF6D  F004         	goto	u2811
   806  0008D6  EF6F  F004         	goto	u2810
   807  0008DA                     u2811:
   808  0008DA  EF5B  F004         	goto	l2927
   809  0008DE                     u2810:
   810  0008DE                     
   811                           ; BSR set to: 0
   812                           ;incub.c: 51: if (tecla == 'A'){
   813  0008DE  0E41               	movlw	65
   814  0008E0  1990               	xorwf	main@tecla& (0+255),w,b
   815  0008E2  A4D8               	btfss	status,2,c
   816  0008E4  EF76  F004         	goto	u2821
   817  0008E8  EF78  F004         	goto	u2820
   818  0008EC                     u2821:
   819  0008EC  EF8E  F004         	goto	l2943
   820  0008F0                     u2820:
   821  0008F0                     
   822                           ; BSR set to: 0
   823                           ;incub.c: 52: LCD_String_xy(1,0,"A=Automatico");
   824  0008F0  0E00               	movlw	0
   825  0008F2  6E0B               	movwf	LCD_String_xy@pos^0,c
   826  0008F4  0E0B               	movlw	low STR_1
   827  0008F6  6E0C               	movwf	LCD_String_xy@msg^0,c
   828  0008F8  0E08               	movlw	high STR_1
   829  0008FA  6E0D               	movwf	(LCD_String_xy@msg+1)^0,c
   830  0008FC  0E01               	movlw	1
   831  0008FE  ECF2  F011         	call	_LCD_String_xy
   832  000902                     
   833                           ;incub.c: 53: modo = 1;
   834  000902  0E00               	movlw	0
   835  000904  0100               	movlb	0	; () banked
   836  000906  6F87               	movwf	(main@modo+1)& (0+255),b
   837  000908  0E01               	movlw	1
   838  00090A  6F86               	movwf	main@modo& (0+255),b
   839  00090C                     l2939:
   840                           
   841                           ; BSR set to: 0
   842                           ;incub.c: 54: MSdelay(1000);
   843  00090C  0E03               	movlw	3
   844  00090E  6E02               	movwf	(MSdelay@val+1)^0,c
   845  000910  0EE8               	movlw	232
   846  000912  6E01               	movwf	MSdelay@val^0,c
   847  000914  ECCD  F011         	call	_MSdelay	;wreg free
   848                           
   849                           ;incub.c: 55: break;
   850  000918  EFA9  F004         	goto	l2951
   851  00091C                     l2943:
   852                           
   853                           ; BSR set to: 0
   854                           ;incub.c: 57: else if(tecla == 'B'){
   855  00091C  0E42               	movlw	66
   856  00091E  1990               	xorwf	main@tecla& (0+255),w,b
   857  000920  A4D8               	btfss	status,2,c
   858  000922  EF95  F004         	goto	u2831
   859  000926  EF97  F004         	goto	u2830
   860  00092A                     u2831:
   861  00092A  EFA7  F004         	goto	l164
   862  00092E                     u2830:
   863  00092E                     
   864                           ; BSR set to: 0
   865                           ;incub.c: 58: LCD_String_xy(1,0,"B=Manual");
   866  00092E  0E00               	movlw	0
   867  000930  6E0B               	movwf	LCD_String_xy@pos^0,c
   868  000932  0E3A               	movlw	low STR_2
   869  000934  6E0C               	movwf	LCD_String_xy@msg^0,c
   870  000936  0E08               	movlw	high STR_2
   871  000938  6E0D               	movwf	(LCD_String_xy@msg+1)^0,c
   872  00093A  0E01               	movlw	1
   873  00093C  ECF2  F011         	call	_LCD_String_xy
   874  000940                     
   875                           ;incub.c: 59: modo = 2;
   876  000940  0E00               	movlw	0
   877  000942  0100               	movlb	0	; () banked
   878  000944  6F87               	movwf	(main@modo+1)& (0+255),b
   879  000946  0E02               	movlw	2
   880  000948  6F86               	movwf	main@modo& (0+255),b
   881  00094A  EF86  F004         	goto	l2939
   882  00094E                     l164:
   883                           
   884                           ; BSR set to: 0
   885  00094E  EF5B  F004         	goto	l2927
   886  000952                     l2951:
   887  000952                     
   888                           ;incub.c: 67: LCD_Clear();
   889  000952  EC8B  F012         	call	_LCD_Clear	;wreg free
   890  000956                     
   891                           ;incub.c: 68: LCD_Command(0x80);
   892  000956  0E80               	movlw	128
   893  000958  ECA7  F011         	call	_LCD_Command
   894  00095C                     l2957:
   895                           
   896                           ;incub.c: 72: if(modo == 1){
   897  00095C  0100               	movlb	0	; () banked
   898  00095E  0586               	decf	main@modo& (0+255),w,b
   899  000960  1187               	iorwf	(main@modo+1)& (0+255),w,b
   900  000962  A4D8               	btfss	status,2,c
   901  000964  EFB6  F004         	goto	u2841
   902  000968  EFB8  F004         	goto	u2840
   903  00096C                     u2841:
   904  00096C  EFBB  F005         	goto	l3001
   905  000970                     u2840:
   906  000970                     
   907                           ; BSR set to: 0
   908                           ;incub.c: 73: LCD_String_xy(1,0,"SETPOINT ");
   909  000970  0E00               	movlw	0
   910  000972  6E0B               	movwf	LCD_String_xy@pos^0,c
   911  000974  0E30               	movlw	low STR_5
   912  000976  6E0C               	movwf	LCD_String_xy@msg^0,c
   913  000978  0E08               	movlw	high STR_5
   914  00097A  6E0D               	movwf	(LCD_String_xy@msg+1)^0,c
   915  00097C  0E01               	movlw	1
   916  00097E  ECF2  F011         	call	_LCD_String_xy
   917  000982                     l2961:
   918                           
   919                           ;incub.c: 75: tecla = keyfind();
   920  000982  ECE1  F00A         	call	_keyfind	;wreg free
   921  000986  0100               	movlb	0	; () banked
   922  000988  6F90               	movwf	main@tecla& (0+255),b
   923  00098A                     
   924                           ; BSR set to: 0
   925                           ;incub.c: 78: if(tecla!=' '){
   926  00098A  0E20               	movlw	32
   927  00098C  1990               	xorwf	main@tecla& (0+255),w,b
   928  00098E  B4D8               	btfsc	status,2,c
   929  000990  EFCC  F004         	goto	u2851
   930  000994  EFCE  F004         	goto	u2850
   931  000998                     u2851:
   932  000998  EFC1  F004         	goto	l2961
   933  00099C                     u2850:
   934  00099C                     
   935                           ; BSR set to: 0
   936                           ;incub.c: 79: if(tecla!='A' && tecla!='B' && tecla!='C' && tecla!='D' && tecla!='E'){
   937  00099C  0E41               	movlw	65
   938  00099E  1990               	xorwf	main@tecla& (0+255),w,b
   939  0009A0  B4D8               	btfsc	status,2,c
   940  0009A2  EFD5  F004         	goto	u2861
   941  0009A6  EFD7  F004         	goto	u2860
   942  0009AA                     u2861:
   943  0009AA  EF05  F005         	goto	l2979
   944  0009AE                     u2860:
   945  0009AE                     
   946                           ; BSR set to: 0
   947  0009AE  0E42               	movlw	66
   948  0009B0  1990               	xorwf	main@tecla& (0+255),w,b
   949  0009B2  B4D8               	btfsc	status,2,c
   950  0009B4  EFDE  F004         	goto	u2871
   951  0009B8  EFE0  F004         	goto	u2870
   952  0009BC                     u2871:
   953  0009BC  EF05  F005         	goto	l2979
   954  0009C0                     u2870:
   955  0009C0                     
   956                           ; BSR set to: 0
   957  0009C0  0E43               	movlw	67
   958  0009C2  1990               	xorwf	main@tecla& (0+255),w,b
   959  0009C4  B4D8               	btfsc	status,2,c
   960  0009C6  EFE7  F004         	goto	u2881
   961  0009CA  EFE9  F004         	goto	u2880
   962  0009CE                     u2881:
   963  0009CE  EF05  F005         	goto	l2979
   964  0009D2                     u2880:
   965  0009D2                     
   966                           ; BSR set to: 0
   967  0009D2  0E44               	movlw	68
   968  0009D4  1990               	xorwf	main@tecla& (0+255),w,b
   969  0009D6  B4D8               	btfsc	status,2,c
   970  0009D8  EFF0  F004         	goto	u2891
   971  0009DC  EFF2  F004         	goto	u2890
   972  0009E0                     u2891:
   973  0009E0  EF05  F005         	goto	l2979
   974  0009E4                     u2890:
   975  0009E4                     
   976                           ; BSR set to: 0
   977  0009E4  0E45               	movlw	69
   978  0009E6  1990               	xorwf	main@tecla& (0+255),w,b
   979  0009E8  B4D8               	btfsc	status,2,c
   980  0009EA  EFF9  F004         	goto	u2901
   981  0009EE  EFFB  F004         	goto	u2900
   982  0009F2                     u2901:
   983  0009F2  EF05  F005         	goto	l2979
   984  0009F6                     u2900:
   985  0009F6                     
   986                           ; BSR set to: 0
   987                           ;incub.c: 80: sp[insp]=tecla;
   988  0009F6  0E82               	movlw	low main@sp
   989  0009F8  257E               	addwf	main@insp& (0+255),w,b
   990  0009FA  6ED9               	movwf	fsr2l,c
   991  0009FC  0E00               	movlw	high main@sp
   992  0009FE  217F               	addwfc	(main@insp+1)& (0+255),w,b
   993  000A00  6EDA               	movwf	fsr2h,c
   994  000A02  C090  FFDF         	movff	main@tecla,indf2
   995  000A06                     
   996                           ; BSR set to: 0
   997                           ;incub.c: 81: insp++;
   998  000A06  4B7E               	infsnz	main@insp& (0+255),f,b
   999  000A08  2B7F               	incf	(main@insp+1)& (0+255),f,b
  1000  000A0A                     l2979:
  1001                           
  1002                           ; BSR set to: 0
  1003                           ;incub.c: 82: };incub.c: 83: if(tecla=='E'){
  1004  000A0A  0E45               	movlw	69
  1005  000A0C  1990               	xorwf	main@tecla& (0+255),w,b
  1006  000A0E  A4D8               	btfss	status,2,c
  1007  000A10  EF0C  F005         	goto	u2911
  1008  000A14  EF0E  F005         	goto	u2910
  1009  000A18                     u2911:
  1010  000A18  EFC1  F004         	goto	l2961
  1011  000A1C                     u2910:
  1012  000A1C                     
  1013                           ; BSR set to: 0
  1014                           ;incub.c: 84: SetPoint = atol(sp);
  1015  000A1C  0E82               	movlw	low main@sp
  1016  000A1E  6E0D               	movwf	atol@s^0,c
  1017  000A20  0E00               	movlw	high main@sp
  1018  000A22  6E0E               	movwf	(atol@s+1)^0,c
  1019  000A24  ECE1  F00E         	call	_atol	;wreg free
  1020  000A28  C00D  F076         	movff	?_atol,main@SetPoint
  1021  000A2C  C00E  F077         	movff	?_atol+1,main@SetPoint+1
  1022  000A30  C00F  F078         	movff	?_atol+2,main@SetPoint+2
  1023  000A34  C010  F079         	movff	?_atol+3,main@SetPoint+3
  1024  000A38                     l2983:
  1025                           
  1026                           ;incub.c: 87: LCD_String_xy(2,0,"TEMPERATURA");
  1027  000A38  0E00               	movlw	0
  1028  000A3A  6E0B               	movwf	LCD_String_xy@pos^0,c
  1029  000A3C  0E18               	movlw	low STR_6
  1030  000A3E  6E0C               	movwf	LCD_String_xy@msg^0,c
  1031  000A40  0E08               	movlw	high STR_6
  1032  000A42  6E0D               	movwf	(LCD_String_xy@msg+1)^0,c
  1033  000A44  0E02               	movlw	2
  1034  000A46  ECF2  F011         	call	_LCD_String_xy
  1035  000A4A                     
  1036                           ;incub.c: 88: celsius = (ADC_Read(0)*4.887);
  1037  000A4A  0E00               	movlw	0
  1038  000A4C  6E02               	movwf	(ADC_Read@channel+1)^0,c
  1039  000A4E  0E00               	movlw	0
  1040  000A50  6E01               	movwf	ADC_Read@channel^0,c
  1041  000A52  EC63  F010         	call	_ADC_Read	;wreg free
  1042  000A56  C001  F011         	movff	?_ADC_Read,___xxtofl@val
  1043  000A5A  C002  F012         	movff	?_ADC_Read+1,___xxtofl@val+1
  1044  000A5E  0E00               	movlw	0
  1045  000A60  BE12               	btfsc	(___xxtofl@val+1)^0,7,c
  1046  000A62  0EFF               	movlw	-1
  1047  000A64  6E13               	movwf	(___xxtofl@val+2)^0,c
  1048  000A66  6E14               	movwf	(___xxtofl@val+3)^0,c
  1049  000A68  0E01               	movlw	1
  1050  000A6A  EC37  F00D         	call	___xxtofl
  1051  000A6E  C011  F01F         	movff	?___xxtofl,___flmul@b
  1052  000A72  C012  F020         	movff	?___xxtofl+1,___flmul@b+1
  1053  000A76  C013  F021         	movff	?___xxtofl+2,___flmul@b+2
  1054  000A7A  C014  F022         	movff	?___xxtofl+3,___flmul@b+3
  1055  000A7E  0E4E               	movlw	78
  1056  000A80  6E23               	movwf	___flmul@a^0,c
  1057  000A82  0E62               	movlw	98
  1058  000A84  6E24               	movwf	(___flmul@a+1)^0,c
  1059  000A86  0E9C               	movlw	156
  1060  000A88  6E25               	movwf	(___flmul@a+2)^0,c
  1061  000A8A  0E40               	movlw	64
  1062  000A8C  6E26               	movwf	(___flmul@a+3)^0,c
  1063  000A8E  ECFF  F006         	call	___flmul	;wreg free
  1064  000A92  C01F  F08C         	movff	?___flmul,main@celsius
  1065  000A96  C020  F08D         	movff	?___flmul+1,main@celsius+1
  1066  000A9A  C021  F08E         	movff	?___flmul+2,main@celsius+2
  1067  000A9E  C022  F08F         	movff	?___flmul+3,main@celsius+3
  1068  000AA2                     
  1069                           ;incub.c: 89: celsius =(celsius/10.00);
  1070  000AA2  C08C  F038         	movff	main@celsius,___fldiv@b
  1071  000AA6  C08D  F039         	movff	main@celsius+1,___fldiv@b+1
  1072  000AAA  C08E  F03A         	movff	main@celsius+2,___fldiv@b+2
  1073  000AAE  C08F  F03B         	movff	main@celsius+3,___fldiv@b+3
  1074  000AB2  0E00               	movlw	0
  1075  000AB4  6E3C               	movwf	___fldiv@a^0,c
  1076  000AB6  0E00               	movlw	0
  1077  000AB8  6E3D               	movwf	(___fldiv@a+1)^0,c
  1078  000ABA  0E20               	movlw	32
  1079  000ABC  6E3E               	movwf	(___fldiv@a+2)^0,c
  1080  000ABE  0E41               	movlw	65
  1081  000AC0  6E3F               	movwf	(___fldiv@a+3)^0,c
  1082  000AC2  EC14  F009         	call	___fldiv	;wreg free
  1083  000AC6  C038  F08C         	movff	?___fldiv,main@celsius
  1084  000ACA  C039  F08D         	movff	?___fldiv+1,main@celsius+1
  1085  000ACE  C03A  F08E         	movff	?___fldiv+2,main@celsius+2
  1086  000AD2  C03B  F08F         	movff	?___fldiv+3,main@celsius+3
  1087  000AD6                     
  1088                           ;incub.c: 90: Tem_Act = (int)celsius;
  1089  000AD6  C08C  F001         	movff	main@celsius,___fltol@f1
  1090  000ADA  C08D  F002         	movff	main@celsius+1,___fltol@f1+1
  1091  000ADE  C08E  F003         	movff	main@celsius+2,___fltol@f1+2
  1092  000AE2  C08F  F004         	movff	main@celsius+3,___fltol@f1+3
  1093  000AE6  EC7E  F00F         	call	___fltol	;wreg free
  1094  000AEA  C001  F084         	movff	?___fltol,main@Tem_Act
  1095  000AEE  C002  F085         	movff	?___fltol+1,main@Tem_Act+1
  1096  000AF2                     
  1097                           ;incub.c: 91: sprintf(Temperatura,"%d C ",(int)celsius);
  1098  000AF2  0E6C               	movlw	low main@Temperatura
  1099  000AF4  6E0D               	movwf	sprintf@sp^0,c
  1100  000AF6  0E00               	movlw	high main@Temperatura
  1101  000AF8  6E0E               	movwf	(sprintf@sp+1)^0,c
  1102  000AFA  0E43               	movlw	low STR_7
  1103  000AFC  6E0F               	movwf	sprintf@f^0,c
  1104  000AFE  0E08               	movlw	high STR_7
  1105  000B00  6E10               	movwf	(sprintf@f+1)^0,c
  1106  000B02  C08C  F001         	movff	main@celsius,___fltol@f1
  1107  000B06  C08D  F002         	movff	main@celsius+1,___fltol@f1+1
  1108  000B0A  C08E  F003         	movff	main@celsius+2,___fltol@f1+2
  1109  000B0E  C08F  F004         	movff	main@celsius+3,___fltol@f1+3
  1110  000B12  EC7E  F00F         	call	___fltol	;wreg free
  1111  000B16  C001  F011         	movff	?___fltol,?_sprintf+4
  1112  000B1A  C002  F012         	movff	?___fltol+1,?_sprintf+5
  1113  000B1E  EC11  F00E         	call	_sprintf	;wreg free
  1114  000B22                     
  1115                           ;incub.c: 92: LCD_String_xy(2,12,Temperatura);
  1116  000B22  0E0C               	movlw	12
  1117  000B24  6E0B               	movwf	LCD_String_xy@pos^0,c
  1118  000B26  0E6C               	movlw	low main@Temperatura
  1119  000B28  6E0C               	movwf	LCD_String_xy@msg^0,c
  1120  000B2A  0E00               	movlw	high main@Temperatura
  1121  000B2C  6E0D               	movwf	(LCD_String_xy@msg+1)^0,c
  1122  000B2E  0E02               	movlw	2
  1123  000B30  ECF2  F011         	call	_LCD_String_xy
  1124  000B34                     
  1125                           ;incub.c: 94: error = (SetPoint - Tem_Act) * 1;
  1126  000B34  0100               	movlb	0	; () banked
  1127  000B36  5184               	movf	main@Tem_Act& (0+255),w,b
  1128  000B38  5D76               	subwf	main@SetPoint& (0+255),w,b
  1129  000B3A  6F80               	movwf	main@error& (0+255),b
  1130  000B3C  5185               	movf	(main@Tem_Act+1)& (0+255),w,b
  1131  000B3E  5977               	subwfb	(main@SetPoint+1)& (0+255),w,b
  1132  000B40  6F81               	movwf	(main@error+1)& (0+255),b
  1133  000B42                     
  1134                           ; BSR set to: 0
  1135                           ;incub.c: 96: dimmer(8-error);
  1136  000B42  5180               	movf	main@error& (0+255),w,b
  1137  000B44  0808               	sublw	8
  1138  000B46  6E0B               	movwf	dimmer@brillo^0,c
  1139  000B48  5181               	movf	(main@error+1)& (0+255),w,b
  1140  000B4A  A0D8               	btfss	status,0,c
  1141  000B4C  2AE8               	incf	wreg,f,c
  1142  000B4E  0800               	sublw	0
  1143  000B50  6E0C               	movwf	(dimmer@brillo+1)^0,c
  1144  000B52  EC4E  F00C         	call	_dimmer	;wreg free
  1145  000B56                     
  1146                           ;incub.c: 98: memset(Temperatura,0,10);
  1147  000B56  0E6C               	movlw	low main@Temperatura
  1148  000B58  6E01               	movwf	memset@p1^0,c
  1149  000B5A  0E00               	movlw	high main@Temperatura
  1150  000B5C  6E02               	movwf	(memset@p1+1)^0,c
  1151  000B5E  0E00               	movlw	0
  1152  000B60  6E04               	movwf	(memset@c+1)^0,c
  1153  000B62  0E00               	movlw	0
  1154  000B64  6E03               	movwf	memset@c^0,c
  1155  000B66  0E00               	movlw	0
  1156  000B68  6E06               	movwf	(memset@n+1)^0,c
  1157  000B6A  0E0A               	movlw	10
  1158  000B6C  6E05               	movwf	memset@n^0,c
  1159  000B6E  EC12  F012         	call	_memset	;wreg free
  1160  000B72  EF1C  F005         	goto	l2983
  1161  000B76                     l3001:
  1162                           
  1163                           ; BSR set to: 0
  1164                           ;incub.c: 109: else if(modo == 2){
  1165  000B76  0E02               	movlw	2
  1166  000B78  1986               	xorwf	main@modo& (0+255),w,b
  1167  000B7A  1187               	iorwf	(main@modo+1)& (0+255),w,b
  1168  000B7C  A4D8               	btfss	status,2,c
  1169  000B7E  EFC3  F005         	goto	u2921
  1170  000B82  EFC5  F005         	goto	u2920
  1171  000B86                     u2921:
  1172  000B86  EFAE  F004         	goto	l2957
  1173  000B8A                     u2920:
  1174  000B8A                     l3003:
  1175                           
  1176                           ;incub.c: 111: LCD_String_xy(1,0,"TEMPERATURA");
  1177  000B8A  0E00               	movlw	0
  1178  000B8C  6E0B               	movwf	LCD_String_xy@pos^0,c
  1179  000B8E  0E18               	movlw	low STR_6
  1180  000B90  6E0C               	movwf	LCD_String_xy@msg^0,c
  1181  000B92  0E08               	movlw	high STR_6
  1182  000B94  6E0D               	movwf	(LCD_String_xy@msg+1)^0,c
  1183  000B96  0E01               	movlw	1
  1184  000B98  ECF2  F011         	call	_LCD_String_xy
  1185  000B9C                     
  1186                           ;incub.c: 112: celsius = (ADC_Read(0)*4.887);
  1187  000B9C  0E00               	movlw	0
  1188  000B9E  6E02               	movwf	(ADC_Read@channel+1)^0,c
  1189  000BA0  0E00               	movlw	0
  1190  000BA2  6E01               	movwf	ADC_Read@channel^0,c
  1191  000BA4  EC63  F010         	call	_ADC_Read	;wreg free
  1192  000BA8  C001  F011         	movff	?_ADC_Read,___xxtofl@val
  1193  000BAC  C002  F012         	movff	?_ADC_Read+1,___xxtofl@val+1
  1194  000BB0  0E00               	movlw	0
  1195  000BB2  BE12               	btfsc	(___xxtofl@val+1)^0,7,c
  1196  000BB4  0EFF               	movlw	-1
  1197  000BB6  6E13               	movwf	(___xxtofl@val+2)^0,c
  1198  000BB8  6E14               	movwf	(___xxtofl@val+3)^0,c
  1199  000BBA  0E01               	movlw	1
  1200  000BBC  EC37  F00D         	call	___xxtofl
  1201  000BC0  C011  F01F         	movff	?___xxtofl,___flmul@b
  1202  000BC4  C012  F020         	movff	?___xxtofl+1,___flmul@b+1
  1203  000BC8  C013  F021         	movff	?___xxtofl+2,___flmul@b+2
  1204  000BCC  C014  F022         	movff	?___xxtofl+3,___flmul@b+3
  1205  000BD0  0E4E               	movlw	78
  1206  000BD2  6E23               	movwf	___flmul@a^0,c
  1207  000BD4  0E62               	movlw	98
  1208  000BD6  6E24               	movwf	(___flmul@a+1)^0,c
  1209  000BD8  0E9C               	movlw	156
  1210  000BDA  6E25               	movwf	(___flmul@a+2)^0,c
  1211  000BDC  0E40               	movlw	64
  1212  000BDE  6E26               	movwf	(___flmul@a+3)^0,c
  1213  000BE0  ECFF  F006         	call	___flmul	;wreg free
  1214  000BE4  C01F  F08C         	movff	?___flmul,main@celsius
  1215  000BE8  C020  F08D         	movff	?___flmul+1,main@celsius+1
  1216  000BEC  C021  F08E         	movff	?___flmul+2,main@celsius+2
  1217  000BF0  C022  F08F         	movff	?___flmul+3,main@celsius+3
  1218  000BF4                     
  1219                           ;incub.c: 113: celsius =(celsius/10.00);
  1220  000BF4  C08C  F038         	movff	main@celsius,___fldiv@b
  1221  000BF8  C08D  F039         	movff	main@celsius+1,___fldiv@b+1
  1222  000BFC  C08E  F03A         	movff	main@celsius+2,___fldiv@b+2
  1223  000C00  C08F  F03B         	movff	main@celsius+3,___fldiv@b+3
  1224  000C04  0E00               	movlw	0
  1225  000C06  6E3C               	movwf	___fldiv@a^0,c
  1226  000C08  0E00               	movlw	0
  1227  000C0A  6E3D               	movwf	(___fldiv@a+1)^0,c
  1228  000C0C  0E20               	movlw	32
  1229  000C0E  6E3E               	movwf	(___fldiv@a+2)^0,c
  1230  000C10  0E41               	movlw	65
  1231  000C12  6E3F               	movwf	(___fldiv@a+3)^0,c
  1232  000C14  EC14  F009         	call	___fldiv	;wreg free
  1233  000C18  C038  F08C         	movff	?___fldiv,main@celsius
  1234  000C1C  C039  F08D         	movff	?___fldiv+1,main@celsius+1
  1235  000C20  C03A  F08E         	movff	?___fldiv+2,main@celsius+2
  1236  000C24  C03B  F08F         	movff	?___fldiv+3,main@celsius+3
  1237  000C28  C08C  F001         	movff	main@celsius,___fltol@f1
  1238  000C2C  C08D  F002         	movff	main@celsius+1,___fltol@f1+1
  1239  000C30  C08E  F003         	movff	main@celsius+2,___fltol@f1+2
  1240  000C34  C08F  F004         	movff	main@celsius+3,___fltol@f1+3
  1241  000C38  EC7E  F00F         	call	___fltol	;wreg free
  1242  000C3C                     
  1243                           ;incub.c: 115: sprintf(Temperatura,"%d C ",(int)celsius);
  1244  000C3C  0E6C               	movlw	low main@Temperatura
  1245  000C3E  6E0D               	movwf	sprintf@sp^0,c
  1246  000C40  0E00               	movlw	high main@Temperatura
  1247  000C42  6E0E               	movwf	(sprintf@sp+1)^0,c
  1248  000C44  0E43               	movlw	low STR_7
  1249  000C46  6E0F               	movwf	sprintf@f^0,c
  1250  000C48  0E08               	movlw	high STR_7
  1251  000C4A  6E10               	movwf	(sprintf@f+1)^0,c
  1252  000C4C  C08C  F001         	movff	main@celsius,___fltol@f1
  1253  000C50  C08D  F002         	movff	main@celsius+1,___fltol@f1+1
  1254  000C54  C08E  F003         	movff	main@celsius+2,___fltol@f1+2
  1255  000C58  C08F  F004         	movff	main@celsius+3,___fltol@f1+3
  1256  000C5C  EC7E  F00F         	call	___fltol	;wreg free
  1257  000C60  C001  F011         	movff	?___fltol,?_sprintf+4
  1258  000C64  C002  F012         	movff	?___fltol+1,?_sprintf+5
  1259  000C68  EC11  F00E         	call	_sprintf	;wreg free
  1260  000C6C                     
  1261                           ;incub.c: 116: LCD_String_xy(1,12,Temperatura);
  1262  000C6C  0E0C               	movlw	12
  1263  000C6E  6E0B               	movwf	LCD_String_xy@pos^0,c
  1264  000C70  0E6C               	movlw	low main@Temperatura
  1265  000C72  6E0C               	movwf	LCD_String_xy@msg^0,c
  1266  000C74  0E00               	movlw	high main@Temperatura
  1267  000C76  6E0D               	movwf	(LCD_String_xy@msg+1)^0,c
  1268  000C78  0E01               	movlw	1
  1269  000C7A  ECF2  F011         	call	_LCD_String_xy
  1270  000C7E                     
  1271                           ;incub.c: 117: MSdelay(1);
  1272  000C7E  0E00               	movlw	0
  1273  000C80  6E02               	movwf	(MSdelay@val+1)^0,c
  1274  000C82  0E01               	movlw	1
  1275  000C84  6E01               	movwf	MSdelay@val^0,c
  1276  000C86  ECCD  F011         	call	_MSdelay	;wreg free
  1277  000C8A                     
  1278                           ;incub.c: 118: pot = (ADC_Read(1)/124);
  1279  000C8A  0E00               	movlw	0
  1280  000C8C  6E0C               	movwf	(___awdiv@divisor+1)^0,c
  1281  000C8E  0E7C               	movlw	124
  1282  000C90  6E0B               	movwf	___awdiv@divisor^0,c
  1283  000C92  0E00               	movlw	0
  1284  000C94  6E02               	movwf	(ADC_Read@channel+1)^0,c
  1285  000C96  0E01               	movlw	1
  1286  000C98  6E01               	movwf	ADC_Read@channel^0,c
  1287  000C9A  EC63  F010         	call	_ADC_Read	;wreg free
  1288  000C9E  C001  F009         	movff	?_ADC_Read,___awdiv@dividend
  1289  000CA2  C002  F00A         	movff	?_ADC_Read+1,___awdiv@dividend+1
  1290  000CA6  EC01  F010         	call	___awdiv	;wreg free
  1291  000CAA  C009  F011         	movff	?___awdiv,___xxtofl@val
  1292  000CAE  C00A  F012         	movff	?___awdiv+1,___xxtofl@val+1
  1293  000CB2  0E00               	movlw	0
  1294  000CB4  BE12               	btfsc	(___xxtofl@val+1)^0,7,c
  1295  000CB6  0EFF               	movlw	-1
  1296  000CB8  6E13               	movwf	(___xxtofl@val+2)^0,c
  1297  000CBA  6E14               	movwf	(___xxtofl@val+3)^0,c
  1298  000CBC  0E01               	movlw	1
  1299  000CBE  EC37  F00D         	call	___xxtofl
  1300  000CC2  C011  F088         	movff	?___xxtofl,main@pot
  1301  000CC6  C012  F089         	movff	?___xxtofl+1,main@pot+1
  1302  000CCA  C013  F08A         	movff	?___xxtofl+2,main@pot+2
  1303  000CCE  C014  F08B         	movff	?___xxtofl+3,main@pot+3
  1304  000CD2                     
  1305                           ;incub.c: 119: pot = (int)pot;
  1306  000CD2  C088  F001         	movff	main@pot,___fltol@f1
  1307  000CD6  C089  F002         	movff	main@pot+1,___fltol@f1+1
  1308  000CDA  C08A  F003         	movff	main@pot+2,___fltol@f1+2
  1309  000CDE  C08B  F004         	movff	main@pot+3,___fltol@f1+3
  1310  000CE2  EC7E  F00F         	call	___fltol	;wreg free
  1311  000CE6  C001  F011         	movff	?___fltol,___xxtofl@val
  1312  000CEA  C002  F012         	movff	?___fltol+1,___xxtofl@val+1
  1313  000CEE  0E00               	movlw	0
  1314  000CF0  BE12               	btfsc	(___xxtofl@val+1)^0,7,c
  1315  000CF2  0EFF               	movlw	-1
  1316  000CF4  6E13               	movwf	(___xxtofl@val+2)^0,c
  1317  000CF6  6E14               	movwf	(___xxtofl@val+3)^0,c
  1318  000CF8  0E01               	movlw	1
  1319  000CFA  EC37  F00D         	call	___xxtofl
  1320  000CFE  C011  F088         	movff	?___xxtofl,main@pot
  1321  000D02  C012  F089         	movff	?___xxtofl+1,main@pot+1
  1322  000D06  C013  F08A         	movff	?___xxtofl+2,main@pot+2
  1323  000D0A  C014  F08B         	movff	?___xxtofl+3,main@pot+3
  1324  000D0E                     
  1325                           ;incub.c: 120: potenciometro = pot * 100 / 8;
  1326  000D0E  0E00               	movlw	0
  1327  000D10  6E23               	movwf	___flmul@a^0,c
  1328  000D12  0E00               	movlw	0
  1329  000D14  6E24               	movwf	(___flmul@a+1)^0,c
  1330  000D16  0EC8               	movlw	200
  1331  000D18  6E25               	movwf	(___flmul@a+2)^0,c
  1332  000D1A  0E42               	movlw	66
  1333  000D1C  6E26               	movwf	(___flmul@a+3)^0,c
  1334  000D1E  C088  F01F         	movff	main@pot,___flmul@b
  1335  000D22  C089  F020         	movff	main@pot+1,___flmul@b+1
  1336  000D26  C08A  F021         	movff	main@pot+2,___flmul@b+2
  1337  000D2A  C08B  F022         	movff	main@pot+3,___flmul@b+3
  1338  000D2E  ECFF  F006         	call	___flmul	;wreg free
  1339  000D32  C01F  F038         	movff	?___flmul,___fldiv@b
  1340  000D36  C020  F039         	movff	?___flmul+1,___fldiv@b+1
  1341  000D3A  C021  F03A         	movff	?___flmul+2,___fldiv@b+2
  1342  000D3E  C022  F03B         	movff	?___flmul+3,___fldiv@b+3
  1343  000D42  0E00               	movlw	0
  1344  000D44  6E3C               	movwf	___fldiv@a^0,c
  1345  000D46  0E00               	movlw	0
  1346  000D48  6E3D               	movwf	(___fldiv@a+1)^0,c
  1347  000D4A  0E00               	movlw	0
  1348  000D4C  6E3E               	movwf	(___fldiv@a+2)^0,c
  1349  000D4E  0E41               	movlw	65
  1350  000D50  6E3F               	movwf	(___fldiv@a+3)^0,c
  1351  000D52  EC14  F009         	call	___fldiv	;wreg free
  1352  000D56  C038  F07A         	movff	?___fldiv,main@potenciometro
  1353  000D5A  C039  F07B         	movff	?___fldiv+1,main@potenciometro+1
  1354  000D5E  C03A  F07C         	movff	?___fldiv+2,main@potenciometro+2
  1355  000D62  C03B  F07D         	movff	?___fldiv+3,main@potenciometro+3
  1356  000D66                     
  1357                           ;incub.c: 121: LCD_String_xy(2,0,"POT. DIMMER");
  1358  000D66  0E00               	movlw	0
  1359  000D68  6E0B               	movwf	LCD_String_xy@pos^0,c
  1360  000D6A  0E24               	movlw	low STR_10
  1361  000D6C  6E0C               	movwf	LCD_String_xy@msg^0,c
  1362  000D6E  0E08               	movlw	high STR_10
  1363  000D70  6E0D               	movwf	(LCD_String_xy@msg+1)^0,c
  1364  000D72  0E02               	movlw	2
  1365  000D74  ECF2  F011         	call	_LCD_String_xy
  1366  000D78                     
  1367                           ;incub.c: 122: sprintf(Potencio,"%d ",(int)potenciometro);
  1368  000D78  0E60               	movlw	low main@Potencio
  1369  000D7A  6E0D               	movwf	sprintf@sp^0,c
  1370  000D7C  0E00               	movlw	high main@Potencio
  1371  000D7E  6E0E               	movwf	(sprintf@sp+1)^0,c
  1372  000D80  0E49               	movlw	low STR_11
  1373  000D82  6E0F               	movwf	sprintf@f^0,c
  1374  000D84  0E08               	movlw	high STR_11
  1375  000D86  6E10               	movwf	(sprintf@f+1)^0,c
  1376  000D88  C07A  F001         	movff	main@potenciometro,___fltol@f1
  1377  000D8C  C07B  F002         	movff	main@potenciometro+1,___fltol@f1+1
  1378  000D90  C07C  F003         	movff	main@potenciometro+2,___fltol@f1+2
  1379  000D94  C07D  F004         	movff	main@potenciometro+3,___fltol@f1+3
  1380  000D98  EC7E  F00F         	call	___fltol	;wreg free
  1381  000D9C  C001  F011         	movff	?___fltol,?_sprintf+4
  1382  000DA0  C002  F012         	movff	?___fltol+1,?_sprintf+5
  1383  000DA4  EC11  F00E         	call	_sprintf	;wreg free
  1384  000DA8                     
  1385                           ;incub.c: 123: LCD_String_xy(2,13,Potencio);
  1386  000DA8  0E0D               	movlw	13
  1387  000DAA  6E0B               	movwf	LCD_String_xy@pos^0,c
  1388  000DAC  0E60               	movlw	low main@Potencio
  1389  000DAE  6E0C               	movwf	LCD_String_xy@msg^0,c
  1390  000DB0  0E00               	movlw	high main@Potencio
  1391  000DB2  6E0D               	movwf	(LCD_String_xy@msg+1)^0,c
  1392  000DB4  0E02               	movlw	2
  1393  000DB6  ECF2  F011         	call	_LCD_String_xy
  1394                           
  1395                           ;incub.c: 125: dimmer(pot);
  1396  000DBA  C088  F001         	movff	main@pot,___fltol@f1
  1397  000DBE  C089  F002         	movff	main@pot+1,___fltol@f1+1
  1398  000DC2  C08A  F003         	movff	main@pot+2,___fltol@f1+2
  1399  000DC6  C08B  F004         	movff	main@pot+3,___fltol@f1+3
  1400  000DCA  EC7E  F00F         	call	___fltol	;wreg free
  1401  000DCE  C001  F00B         	movff	?___fltol,dimmer@brillo
  1402  000DD2  C002  F00C         	movff	?___fltol+1,dimmer@brillo+1
  1403  000DD6  EC4E  F00C         	call	_dimmer	;wreg free
  1404  000DDA                     
  1405                           ;incub.c: 127: memset(Temperatura,0,10);
  1406  000DDA  0E6C               	movlw	low main@Temperatura
  1407  000DDC  6E01               	movwf	memset@p1^0,c
  1408  000DDE  0E00               	movlw	high main@Temperatura
  1409  000DE0  6E02               	movwf	(memset@p1+1)^0,c
  1410  000DE2  0E00               	movlw	0
  1411  000DE4  6E04               	movwf	(memset@c+1)^0,c
  1412  000DE6  0E00               	movlw	0
  1413  000DE8  6E03               	movwf	memset@c^0,c
  1414  000DEA  0E00               	movlw	0
  1415  000DEC  6E06               	movwf	(memset@n+1)^0,c
  1416  000DEE  0E0A               	movlw	10
  1417  000DF0  6E05               	movwf	memset@n^0,c
  1418  000DF2  EC12  F012         	call	_memset	;wreg free
  1419  000DF6  EFC5  F005         	goto	l3003
  1420  000DFA  EF00  F000         	goto	start
  1421  000DFE                     __end_of_main:
  1422                           	opt callstack 0
  1423                           
  1424 ;; *************** function _sprintf *****************
  1425 ;; Defined at:
  1426 ;;		line 505 in file "C:\Program Files (x86)\Microchip\xc8\v2.10\pic\sources\c90\common\doprnt.c"
  1427 ;; Parameters:    Size  Location     Type
  1428 ;;  sp              2   12[COMRAM] PTR unsigned char 
  1429 ;;		 -> main@Potencio(10), main@Temperatura(10), 
  1430 ;;  f               2   14[COMRAM] PTR const unsigned char 
  1431 ;;		 -> STR_11(4), STR_9(6), STR_7(6), 
  1432 ;; Auto vars:     Size  Location     Type
  1433 ;;  tmpval          4    0        struct .
  1434 ;;  cp              3    0        PTR const unsigned char 
  1435 ;;  val             2   23[COMRAM] unsigned int 
  1436 ;;  ap              2   19[COMRAM] PTR void [1]
  1437 ;;		 -> ?_sprintf(2), 
  1438 ;;  len             2    0        unsigned int 
  1439 ;;  c               1   25[COMRAM] unsigned char 
  1440 ;;  prec            1   22[COMRAM] char 
  1441 ;;  flag            1   21[COMRAM] unsigned char 
  1442 ;; Return value:  Size  Location     Type
  1443 ;;                  2   12[COMRAM] int 
  1444 ;; Registers used:
  1445 ;;		wreg, fsr2l, fsr2h, status,2, status,0, tblptrl, tblptrh, tblptru, prodl, prodh, cstack
  1446 ;; Tracked objects:
  1447 ;;		On entry : 0/0
  1448 ;;		On exit  : 0/0
  1449 ;;		Unchanged: 0/0
  1450 ;; Data sizes:     COMRAM   BANK0   BANK1   BANK2   BANK3   BANK4   BANK5   BANK6   BANK7
  1451 ;;      Params:         6       0       0       0       0       0       0       0       0
  1452 ;;      Locals:         7       0       0       0       0       0       0       0       0
  1453 ;;      Temps:          1       0       0       0       0       0       0       0       0
  1454 ;;      Totals:        14       0       0       0       0       0       0       0       0
  1455 ;;Total ram usage:       14 bytes
  1456 ;; Hardware stack levels used:    1
  1457 ;; Hardware stack levels required when called:    1
  1458 ;; This function calls:
  1459 ;;		___lwdiv
  1460 ;;		___lwmod
  1461 ;; This function is called by:
  1462 ;;		_main
  1463 ;; This function uses a non-reentrant model
  1464 ;;
  1465                           
  1466                           	psect	text1
  1467  001C22                     __ptext1:
  1468                           	opt callstack 0
  1469  001C22                     _sprintf:
  1470                           	opt callstack 29
  1471  001C22                     
  1472                           ;doprnt.c: 507: va_list ap;;doprnt.c: 512: char c;;doprnt.c: 521: signed char prec;;dopr
      +                          nt.c: 525: unsigned char flag;;doprnt.c: 540: union {;doprnt.c: 541: unsigned long vd;;d
      +                          oprnt.c: 542: double integ;;doprnt.c: 543: } tmpval;;doprnt.c: 545: unsigned int val;;do
      +                          prnt.c: 546: unsigned len;;doprnt.c: 547: const char * cp;;doprnt.c: 550: *ap = __va_sta
      +                          rt();
  1473  001C22  0E11               	movlw	low (?_sprintf+4)
  1474  001C24  6E14               	movwf	sprintf@ap^0,c
  1475  001C26  0E00               	movlw	high (?_sprintf+4)
  1476  001C28  6E15               	movwf	(sprintf@ap+1)^0,c
  1477                           
  1478                           ;doprnt.c: 553: while((c = *f++)) {
  1479  001C2A  EFC9  F00E         	goto	l2435
  1480  001C2E                     l2383:
  1481                           
  1482                           ;doprnt.c: 555: if(c != '%')
  1483  001C2E  0E25               	movlw	37
  1484  001C30  181A               	xorwf	sprintf@c^0,w,c
  1485  001C32  B4D8               	btfsc	status,2,c
  1486  001C34  EF1E  F00E         	goto	u1971
  1487  001C38  EF20  F00E         	goto	u1970
  1488  001C3C                     u1971:
  1489  001C3C  EF2A  F00E         	goto	l2389
  1490  001C40                     u1970:
  1491  001C40                     
  1492                           ;doprnt.c: 557: {;doprnt.c: 558: ((*sp++ = (c)));
  1493  001C40  C00D  FFD9         	movff	sprintf@sp,fsr2l
  1494  001C44  C00E  FFDA         	movff	sprintf@sp+1,fsr2h
  1495  001C48  C01A  FFDF         	movff	sprintf@c,indf2
  1496  001C4C  4A0D               	infsnz	sprintf@sp^0,f,c
  1497  001C4E  2A0E               	incf	(sprintf@sp+1)^0,f,c
  1498                           
  1499                           ;doprnt.c: 559: continue;
  1500  001C50  EFC9  F00E         	goto	l2435
  1501  001C54                     l2389:
  1502                           
  1503                           ;doprnt.c: 560: };doprnt.c: 565: flag = 0;
  1504  001C54  0E00               	movlw	0
  1505  001C56  6E16               	movwf	sprintf@flag^0,c
  1506  001C58  C00F  FFF6         	movff	sprintf@f,tblptrl
  1507  001C5C  C010  FFF7         	movff	sprintf@f+1,tblptrh
  1508  001C60  4A0F               	infsnz	sprintf@f^0,f,c
  1509  001C62  2A10               	incf	(sprintf@f+1)^0,f,c
  1510  001C64                     	if	0	;tblptru may be non-zero
  1511  001C64                     	endif
  1512  001C64                     	if	0	;tblptru may be non-zero
  1513  001C64                     	endif
  1514  001C64  0008               	tblrd		*
  1515  001C66  CFF5 F01A          	movff	tablat,sprintf@c
  1516  001C6A  501A               	movf	sprintf@c^0,w,c
  1517                           
  1518                           ; Switch size 1, requested type "simple"
  1519                           ; Number of cases is 3, Range of values is 0 to 105
  1520                           ; switch strategies available:
  1521                           ; Name         Instructions Cycles
  1522                           ; simple_byte           10     6 (average)
  1523                           ;	Chosen strategy is simple_byte
  1524  001C6C  0A00               	xorlw	0	; case 0
  1525  001C6E  B4D8               	btfsc	status,2,c
  1526  001C70  EFDA  F00E         	goto	l2437
  1527  001C74  0A64               	xorlw	100	; case 100
  1528  001C76  B4D8               	btfsc	status,2,c
  1529  001C78  EF44  F00E         	goto	l2395
  1530  001C7C  0A0D               	xorlw	13	; case 105
  1531  001C7E  B4D8               	btfsc	status,2,c
  1532  001C80  EF44  F00E         	goto	l2395
  1533  001C84  EFC9  F00E         	goto	l2435
  1534  001C88                     l2395:
  1535                           
  1536                           ;doprnt.c: 1279: {;doprnt.c: 1285: val = (unsigned int)(*(int *)__va_arg((*(int **)ap), 
      +                          (int)0));
  1537  001C88  C014  FFD9         	movff	sprintf@ap,fsr2l
  1538  001C8C  C015  FFDA         	movff	sprintf@ap+1,fsr2h
  1539  001C90  CFDE F018          	movff	postinc2,sprintf@val
  1540  001C94  CFDD F019          	movff	postdec2,sprintf@val+1
  1541  001C98  0E02               	movlw	2
  1542  001C9A  2614               	addwf	sprintf@ap^0,f,c
  1543  001C9C  0E00               	movlw	0
  1544  001C9E  2215               	addwfc	(sprintf@ap+1)^0,f,c
  1545  001CA0                     
  1546                           ;doprnt.c: 1287: if((int)val < 0) {
  1547  001CA0  BE19               	btfsc	(sprintf@val+1)^0,7,c
  1548  001CA2  EF57  F00E         	goto	u1980
  1549  001CA6  EF55  F00E         	goto	u1981
  1550  001CAA                     u1981:
  1551  001CAA  EF5D  F00E         	goto	l2405
  1552  001CAE                     u1980:
  1553  001CAE                     
  1554                           ;doprnt.c: 1288: flag |= 0x03;
  1555  001CAE  0E03               	movlw	3
  1556  001CB0  1216               	iorwf	sprintf@flag^0,f,c
  1557  001CB2                     
  1558                           ;doprnt.c: 1289: val = -val;
  1559  001CB2  6C18               	negf	sprintf@val^0,c
  1560  001CB4  1E19               	comf	(sprintf@val+1)^0,f,c
  1561  001CB6  B0D8               	btfsc	status,0,c
  1562  001CB8  2A19               	incf	(sprintf@val+1)^0,f,c
  1563  001CBA                     l2405:
  1564                           
  1565                           ;doprnt.c: 1290: };doprnt.c: 1292: };doprnt.c: 1331: for(c = 1 ; c != sizeof dpowers/siz
      +                          eof dpowers[0] ; c++)
  1566  001CBA  0E01               	movlw	1
  1567  001CBC  6E1A               	movwf	sprintf@c^0,c
  1568  001CBE                     l2411:
  1569                           
  1570                           ;doprnt.c: 1332: if(val < dpowers[c])
  1571  001CBE  501A               	movf	sprintf@c^0,w,c
  1572  001CC0  0D02               	mullw	2
  1573  001CC2  0E01               	movlw	low _dpowers
  1574  001CC4  24F3               	addwf	243,w,c
  1575  001CC6  6EF6               	movwf	tblptrl,c
  1576  001CC8  0E08               	movlw	high _dpowers
  1577  001CCA  20F4               	addwfc	244,w,c
  1578  001CCC  6EF7               	movwf	tblptrh,c
  1579  001CCE                     	if	0	;There are less than 3 active tblptr bytes
  1580  001CCE                     	endif
  1581  001CCE  0009               	tblrd		*+
  1582  001CD0  50F5               	movf	tablat,w,c
  1583  001CD2  5C18               	subwf	sprintf@val^0,w,c
  1584  001CD4  0009               	tblrd		*+
  1585  001CD6  50F5               	movf	tablat,w,c
  1586  001CD8  5819               	subwfb	(sprintf@val+1)^0,w,c
  1587  001CDA  B0D8               	btfsc	status,0,c
  1588  001CDC  EF72  F00E         	goto	u1991
  1589  001CE0  EF74  F00E         	goto	u1990
  1590  001CE4                     u1991:
  1591  001CE4  EF76  F00E         	goto	l2415
  1592  001CE8                     u1990:
  1593  001CE8  EF80  F00E         	goto	l2419
  1594  001CEC                     l2415:
  1595  001CEC  2A1A               	incf	sprintf@c^0,f,c
  1596  001CEE  0E05               	movlw	5
  1597  001CF0  181A               	xorwf	sprintf@c^0,w,c
  1598  001CF2  A4D8               	btfss	status,2,c
  1599  001CF4  EF7E  F00E         	goto	u2001
  1600  001CF8  EF80  F00E         	goto	u2000
  1601  001CFC                     u2001:
  1602  001CFC  EF5F  F00E         	goto	l2411
  1603  001D00                     u2000:
  1604  001D00                     l2419:
  1605                           
  1606                           ;doprnt.c: 1448: {;doprnt.c: 1464: if(flag & 0x03)
  1607  001D00  C016  F013         	movff	sprintf@flag,??_sprintf
  1608  001D04  0E03               	movlw	3
  1609  001D06  1613               	andwf	??_sprintf^0,f,c
  1610  001D08  B4D8               	btfsc	status,2,c
  1611  001D0A  EF89  F00E         	goto	u2011
  1612  001D0E  EF8B  F00E         	goto	u2010
  1613  001D12                     u2011:
  1614  001D12  EF93  F00E         	goto	l2425
  1615  001D16                     u2010:
  1616  001D16                     
  1617                           ;doprnt.c: 1465: ((*sp++ = ('-')));
  1618  001D16  C00D  FFD9         	movff	sprintf@sp,fsr2l
  1619  001D1A  C00E  FFDA         	movff	sprintf@sp+1,fsr2h
  1620  001D1E  0E2D               	movlw	45
  1621  001D20  6EDF               	movwf	indf2,c
  1622  001D22  4A0D               	infsnz	sprintf@sp^0,f,c
  1623  001D24  2A0E               	incf	(sprintf@sp+1)^0,f,c
  1624  001D26                     l2425:
  1625                           
  1626                           ;doprnt.c: 1495: };doprnt.c: 1498: prec = c;
  1627  001D26  C01A  F017         	movff	sprintf@c,sprintf@prec
  1628                           
  1629                           ;doprnt.c: 1500: while(prec--) {
  1630  001D2A  EFC0  F00E         	goto	l2433
  1631  001D2E                     l2427:
  1632                           
  1633                           ;doprnt.c: 1504: {;doprnt.c: 1515: c = (val / dpowers[(unsigned char)prec]) % 10 + '0';
  1634  001D2E  5017               	movf	sprintf@prec^0,w,c
  1635  001D30  0D02               	mullw	2
  1636  001D32  0E01               	movlw	low _dpowers
  1637  001D34  24F3               	addwf	243,w,c
  1638  001D36  6EF6               	movwf	tblptrl,c
  1639  001D38  0E08               	movlw	high _dpowers
  1640  001D3A  20F4               	addwfc	244,w,c
  1641  001D3C  6EF7               	movwf	tblptrh,c
  1642  001D3E                     	if	0	;There are less than 3 active tblptr bytes
  1643  001D3E                     	endif
  1644  001D3E  0009               	tblrd		*+
  1645  001D40  CFF5 F003          	movff	tablat,___lwdiv@divisor
  1646  001D44  000A               	tblrd		*-
  1647  001D46  CFF5 F004          	movff	tablat,___lwdiv@divisor+1
  1648  001D4A  C018  F001         	movff	sprintf@val,___lwdiv@dividend
  1649  001D4E  C019  F002         	movff	sprintf@val+1,___lwdiv@dividend+1
  1650  001D52  ECB1  F010         	call	___lwdiv	;wreg free
  1651  001D56  C001  F008         	movff	?___lwdiv,___lwmod@dividend
  1652  001D5A  C002  F009         	movff	?___lwdiv+1,___lwmod@dividend+1
  1653  001D5E  0E00               	movlw	0
  1654  001D60  6E0B               	movwf	(___lwmod@divisor+1)^0,c
  1655  001D62  0E0A               	movlw	10
  1656  001D64  6E0A               	movwf	___lwmod@divisor^0,c
  1657  001D66  EC20  F011         	call	___lwmod	;wreg free
  1658  001D6A  5008               	movf	?___lwmod^0,w,c
  1659  001D6C  0F30               	addlw	48
  1660  001D6E  6E1A               	movwf	sprintf@c^0,c
  1661  001D70                     
  1662                           ;doprnt.c: 1549: };doprnt.c: 1550: ((*sp++ = (c)));
  1663  001D70  C00D  FFD9         	movff	sprintf@sp,fsr2l
  1664  001D74  C00E  FFDA         	movff	sprintf@sp+1,fsr2h
  1665  001D78  C01A  FFDF         	movff	sprintf@c,indf2
  1666  001D7C  4A0D               	infsnz	sprintf@sp^0,f,c
  1667  001D7E  2A0E               	incf	(sprintf@sp+1)^0,f,c
  1668  001D80                     l2433:
  1669  001D80  0617               	decf	sprintf@prec^0,f,c
  1670  001D82  2817               	incf	sprintf@prec^0,w,c
  1671  001D84  A4D8               	btfss	status,2,c
  1672  001D86  EFC7  F00E         	goto	u2021
  1673  001D8A  EFC9  F00E         	goto	u2020
  1674  001D8E                     u2021:
  1675  001D8E  EF97  F00E         	goto	l2427
  1676  001D92                     u2020:
  1677  001D92                     l2435:
  1678  001D92  C00F  FFF6         	movff	sprintf@f,tblptrl
  1679  001D96  C010  FFF7         	movff	sprintf@f+1,tblptrh
  1680  001D9A  4A0F               	infsnz	sprintf@f^0,f,c
  1681  001D9C  2A10               	incf	(sprintf@f+1)^0,f,c
  1682  001D9E                     	if	0	;tblptru may be non-zero
  1683  001D9E                     	endif
  1684  001D9E                     	if	0	;tblptru may be non-zero
  1685  001D9E                     	endif
  1686  001D9E  0008               	tblrd		*
  1687  001DA0  CFF5 F01A          	movff	tablat,sprintf@c
  1688  001DA4  501A               	movf	sprintf@c^0,w,c
  1689  001DA6  A4D8               	btfss	status,2,c
  1690  001DA8  EFD8  F00E         	goto	u2031
  1691  001DAC  EFDA  F00E         	goto	u2030
  1692  001DB0                     u2031:
  1693  001DB0  EF17  F00E         	goto	l2383
  1694  001DB4                     u2030:
  1695  001DB4                     l2437:
  1696                           
  1697                           ;doprnt.c: 1564: *sp = 0;
  1698  001DB4  C00D  FFD9         	movff	sprintf@sp,fsr2l
  1699  001DB8  C00E  FFDA         	movff	sprintf@sp+1,fsr2h
  1700  001DBC  0E00               	movlw	0
  1701  001DBE  6EDF               	movwf	indf2,c
  1702  001DC0  0012               	return		;funcret
  1703  001DC2                     __end_of_sprintf:
  1704                           	opt callstack 0
  1705                           
  1706 ;; *************** function ___lwmod *****************
  1707 ;; Defined at:
  1708 ;;		line 7 in file "C:\Program Files (x86)\Microchip\xc8\v2.10\pic\sources\c90\common\lwmod.c"
  1709 ;; Parameters:    Size  Location     Type
  1710 ;;  dividend        2    7[COMRAM] unsigned int 
  1711 ;;  divisor         2    9[COMRAM] unsigned int 
  1712 ;; Auto vars:     Size  Location     Type
  1713 ;;  counter         1   11[COMRAM] unsigned char 
  1714 ;; Return value:  Size  Location     Type
  1715 ;;                  2    7[COMRAM] unsigned int 
  1716 ;; Registers used:
  1717 ;;		wreg, status,2, status,0
  1718 ;; Tracked objects:
  1719 ;;		On entry : 0/0
  1720 ;;		On exit  : 0/0
  1721 ;;		Unchanged: 0/0
  1722 ;; Data sizes:     COMRAM   BANK0   BANK1   BANK2   BANK3   BANK4   BANK5   BANK6   BANK7
  1723 ;;      Params:         4       0       0       0       0       0       0       0       0
  1724 ;;      Locals:         1       0       0       0       0       0       0       0       0
  1725 ;;      Temps:          0       0       0       0       0       0       0       0       0
  1726 ;;      Totals:         5       0       0       0       0       0       0       0       0
  1727 ;;Total ram usage:        5 bytes
  1728 ;; Hardware stack levels used:    1
  1729 ;; This function calls:
  1730 ;;		Nothing
  1731 ;; This function is called by:
  1732 ;;		_sprintf
  1733 ;; This function uses a non-reentrant model
  1734 ;;
  1735                           
  1736                           	psect	text2
  1737  002240                     __ptext2:
  1738                           	opt callstack 0
  1739  002240                     ___lwmod:
  1740                           	opt callstack 29
  1741  002240  500A               	movf	___lwmod@divisor^0,w,c
  1742  002242  100B               	iorwf	(___lwmod@divisor+1)^0,w,c
  1743  002244  B4D8               	btfsc	status,2,c
  1744  002246  EF27  F011         	goto	u1571
  1745  00224A  EF29  F011         	goto	u1570
  1746  00224E                     u1571:
  1747  00224E  EF4D  F011         	goto	l778
  1748  002252                     u1570:
  1749  002252  0E01               	movlw	1
  1750  002254  6E0C               	movwf	___lwmod@counter^0,c
  1751  002256  EF31  F011         	goto	l2157
  1752  00225A                     l2155:
  1753  00225A  90D8               	bcf	status,0,c
  1754  00225C  360A               	rlcf	___lwmod@divisor^0,f,c
  1755  00225E  360B               	rlcf	(___lwmod@divisor+1)^0,f,c
  1756  002260  2A0C               	incf	___lwmod@counter^0,f,c
  1757  002262                     l2157:
  1758  002262  AE0B               	btfss	(___lwmod@divisor+1)^0,7,c
  1759  002264  EF36  F011         	goto	u1581
  1760  002268  EF38  F011         	goto	u1580
  1761  00226C                     u1581:
  1762  00226C  EF2D  F011         	goto	l2155
  1763  002270                     u1580:
  1764  002270                     l2159:
  1765  002270  500A               	movf	___lwmod@divisor^0,w,c
  1766  002272  5C08               	subwf	___lwmod@dividend^0,w,c
  1767  002274  500B               	movf	(___lwmod@divisor+1)^0,w,c
  1768  002276  5809               	subwfb	(___lwmod@dividend+1)^0,w,c
  1769  002278  A0D8               	btfss	status,0,c
  1770  00227A  EF41  F011         	goto	u1591
  1771  00227E  EF43  F011         	goto	u1590
  1772  002282                     u1591:
  1773  002282  EF47  F011         	goto	l2163
  1774  002286                     u1590:
  1775  002286  500A               	movf	___lwmod@divisor^0,w,c
  1776  002288  5E08               	subwf	___lwmod@dividend^0,f,c
  1777  00228A  500B               	movf	(___lwmod@divisor+1)^0,w,c
  1778  00228C  5A09               	subwfb	(___lwmod@dividend+1)^0,f,c
  1779  00228E                     l2163:
  1780  00228E  90D8               	bcf	status,0,c
  1781  002290  320B               	rrcf	(___lwmod@divisor+1)^0,f,c
  1782  002292  320A               	rrcf	___lwmod@divisor^0,f,c
  1783  002294  2E0C               	decfsz	___lwmod@counter^0,f,c
  1784  002296  EF38  F011         	goto	l2159
  1785  00229A                     l778:
  1786  00229A  C008  F008         	movff	___lwmod@dividend,?___lwmod
  1787  00229E  C009  F009         	movff	___lwmod@dividend+1,?___lwmod+1
  1788  0022A2  0012               	return		;funcret
  1789  0022A4                     __end_of___lwmod:
  1790                           	opt callstack 0
  1791                           
  1792 ;; *************** function ___lwdiv *****************
  1793 ;; Defined at:
  1794 ;;		line 7 in file "C:\Program Files (x86)\Microchip\xc8\v2.10\pic\sources\c90\common\lwdiv.c"
  1795 ;; Parameters:    Size  Location     Type
  1796 ;;  dividend        2    0[COMRAM] unsigned int 
  1797 ;;  divisor         2    2[COMRAM] unsigned int 
  1798 ;; Auto vars:     Size  Location     Type
  1799 ;;  quotient        2    4[COMRAM] unsigned int 
  1800 ;;  counter         1    6[COMRAM] unsigned char 
  1801 ;; Return value:  Size  Location     Type
  1802 ;;                  2    0[COMRAM] unsigned int 
  1803 ;; Registers used:
  1804 ;;		wreg, status,2, status,0
  1805 ;; Tracked objects:
  1806 ;;		On entry : 0/0
  1807 ;;		On exit  : 0/0
  1808 ;;		Unchanged: 0/0
  1809 ;; Data sizes:     COMRAM   BANK0   BANK1   BANK2   BANK3   BANK4   BANK5   BANK6   BANK7
  1810 ;;      Params:         4       0       0       0       0       0       0       0       0
  1811 ;;      Locals:         3       0       0       0       0       0       0       0       0
  1812 ;;      Temps:          0       0       0       0       0       0       0       0       0
  1813 ;;      Totals:         7       0       0       0       0       0       0       0       0
  1814 ;;Total ram usage:        7 bytes
  1815 ;; Hardware stack levels used:    1
  1816 ;; This function calls:
  1817 ;;		Nothing
  1818 ;; This function is called by:
  1819 ;;		_sprintf
  1820 ;; This function uses a non-reentrant model
  1821 ;;
  1822                           
  1823                           	psect	text3
  1824  002162                     __ptext3:
  1825                           	opt callstack 0
  1826  002162                     ___lwdiv:
  1827                           	opt callstack 29
  1828  002162  0E00               	movlw	0
  1829  002164  6E06               	movwf	(___lwdiv@quotient+1)^0,c
  1830  002166  0E00               	movlw	0
  1831  002168  6E05               	movwf	___lwdiv@quotient^0,c
  1832  00216A  5003               	movf	___lwdiv@divisor^0,w,c
  1833  00216C  1004               	iorwf	(___lwdiv@divisor+1)^0,w,c
  1834  00216E  B4D8               	btfsc	status,2,c
  1835  002170  EFBC  F010         	goto	u1541
  1836  002174  EFBE  F010         	goto	u1540
  1837  002178                     u1541:
  1838  002178  EFE6  F010         	goto	l768
  1839  00217C                     u1540:
  1840  00217C  0E01               	movlw	1
  1841  00217E  6E07               	movwf	___lwdiv@counter^0,c
  1842  002180  EFC6  F010         	goto	l2137
  1843  002184                     l2135:
  1844  002184  90D8               	bcf	status,0,c
  1845  002186  3603               	rlcf	___lwdiv@divisor^0,f,c
  1846  002188  3604               	rlcf	(___lwdiv@divisor+1)^0,f,c
  1847  00218A  2A07               	incf	___lwdiv@counter^0,f,c
  1848  00218C                     l2137:
  1849  00218C  AE04               	btfss	(___lwdiv@divisor+1)^0,7,c
  1850  00218E  EFCB  F010         	goto	u1551
  1851  002192  EFCD  F010         	goto	u1550
  1852  002196                     u1551:
  1853  002196  EFC2  F010         	goto	l2135
  1854  00219A                     u1550:
  1855  00219A                     l2139:
  1856  00219A  90D8               	bcf	status,0,c
  1857  00219C  3605               	rlcf	___lwdiv@quotient^0,f,c
  1858  00219E  3606               	rlcf	(___lwdiv@quotient+1)^0,f,c
  1859  0021A0  5003               	movf	___lwdiv@divisor^0,w,c
  1860  0021A2  5C01               	subwf	___lwdiv@dividend^0,w,c
  1861  0021A4  5004               	movf	(___lwdiv@divisor+1)^0,w,c
  1862  0021A6  5802               	subwfb	(___lwdiv@dividend+1)^0,w,c
  1863  0021A8  A0D8               	btfss	status,0,c
  1864  0021AA  EFD9  F010         	goto	u1561
  1865  0021AE  EFDB  F010         	goto	u1560
  1866  0021B2                     u1561:
  1867  0021B2  EFE0  F010         	goto	l2147
  1868  0021B6                     u1560:
  1869  0021B6  5003               	movf	___lwdiv@divisor^0,w,c
  1870  0021B8  5E01               	subwf	___lwdiv@dividend^0,f,c
  1871  0021BA  5004               	movf	(___lwdiv@divisor+1)^0,w,c
  1872  0021BC  5A02               	subwfb	(___lwdiv@dividend+1)^0,f,c
  1873  0021BE  8005               	bsf	___lwdiv@quotient^0,0,c
  1874  0021C0                     l2147:
  1875  0021C0  90D8               	bcf	status,0,c
  1876  0021C2  3204               	rrcf	(___lwdiv@divisor+1)^0,f,c
  1877  0021C4  3203               	rrcf	___lwdiv@divisor^0,f,c
  1878  0021C6  2E07               	decfsz	___lwdiv@counter^0,f,c
  1879  0021C8  EFCD  F010         	goto	l2139
  1880  0021CC                     l768:
  1881  0021CC  C005  F001         	movff	___lwdiv@quotient,?___lwdiv
  1882  0021D0  C006  F002         	movff	___lwdiv@quotient+1,?___lwdiv+1
  1883  0021D4  0012               	return		;funcret
  1884  0021D6                     __end_of___lwdiv:
  1885                           	opt callstack 0
  1886                           
  1887 ;; *************** function _memset *****************
  1888 ;; Defined at:
  1889 ;;		line 8 in file "C:\Program Files (x86)\Microchip\xc8\v2.10\pic\sources\c90\common\memset.c"
  1890 ;; Parameters:    Size  Location     Type
  1891 ;;  p1              2    0[COMRAM] PTR void 
  1892 ;;		 -> main@Temperatura(10), 
  1893 ;;  c               2    2[COMRAM] int 
  1894 ;;  n               2    4[COMRAM] unsigned int 
  1895 ;; Auto vars:     Size  Location     Type
  1896 ;;  p               2    6[COMRAM] PTR unsigned char 
  1897 ;;		 -> main@Temperatura(10), 
  1898 ;; Return value:  Size  Location     Type
  1899 ;;                  2    0[COMRAM] PTR void 
  1900 ;; Registers used:
  1901 ;;		wreg, fsr2l, fsr2h, status,2, status,0
  1902 ;; Tracked objects:
  1903 ;;		On entry : 0/0
  1904 ;;		On exit  : 0/0
  1905 ;;		Unchanged: 0/0
  1906 ;; Data sizes:     COMRAM   BANK0   BANK1   BANK2   BANK3   BANK4   BANK5   BANK6   BANK7
  1907 ;;      Params:         6       0       0       0       0       0       0       0       0
  1908 ;;      Locals:         2       0       0       0       0       0       0       0       0
  1909 ;;      Temps:          0       0       0       0       0       0       0       0       0
  1910 ;;      Totals:         8       0       0       0       0       0       0       0       0
  1911 ;;Total ram usage:        8 bytes
  1912 ;; Hardware stack levels used:    1
  1913 ;; This function calls:
  1914 ;;		Nothing
  1915 ;; This function is called by:
  1916 ;;		_main
  1917 ;; This function uses a non-reentrant model
  1918 ;;
  1919                           
  1920                           	psect	text4
  1921  002424                     __ptext4:
  1922                           	opt callstack 0
  1923  002424                     _memset:
  1924                           	opt callstack 30
  1925  002424  C001  F007         	movff	memset@p1,memset@p
  1926  002428  C002  F008         	movff	memset@p1+1,memset@p+1
  1927  00242C  EF20  F012         	goto	l2499
  1928  002430                     l2495:
  1929  002430  C007  FFD9         	movff	memset@p,fsr2l
  1930  002434  C008  FFDA         	movff	memset@p+1,fsr2h
  1931  002438  C003  FFDF         	movff	memset@c,indf2
  1932  00243C  4A07               	infsnz	memset@p^0,f,c
  1933  00243E  2A08               	incf	(memset@p+1)^0,f,c
  1934  002440                     l2499:
  1935  002440  0605               	decf	memset@n^0,f,c
  1936  002442  A0D8               	btfss	status,0,c
  1937  002444  0606               	decf	(memset@n+1)^0,f,c
  1938  002446  2805               	incf	memset@n^0,w,c
  1939  002448  E106               	bnz	u2151
  1940  00244A  2806               	incf	(memset@n+1)^0,w,c
  1941  00244C  A4D8               	btfss	status,2,c
  1942  00244E  EF2B  F012         	goto	u2151
  1943  002452  EF2D  F012         	goto	u2150
  1944  002456                     u2151:
  1945  002456  EF18  F012         	goto	l2495
  1946  00245A                     u2150:
  1947  00245A  0012               	return		;funcret
  1948  00245C                     __end_of_memset:
  1949                           	opt callstack 0
  1950                           
  1951 ;; *************** function _keyfind *****************
  1952 ;; Defined at:
  1953 ;;		line 5 in file "teclado.c"
  1954 ;; Parameters:    Size  Location     Type
  1955 ;;		None
  1956 ;; Auto vars:     Size  Location     Type
  1957 ;;		None
  1958 ;; Return value:  Size  Location     Type
  1959 ;;                  1    wreg      unsigned char 
  1960 ;; Registers used:
  1961 ;;		wreg, fsr2l, fsr2h, status,2, status,0, prodl, prodh, cstack
  1962 ;; Tracked objects:
  1963 ;;		On entry : 0/0
  1964 ;;		On exit  : 0/0
  1965 ;;		Unchanged: 0/0
  1966 ;; Data sizes:     COMRAM   BANK0   BANK1   BANK2   BANK3   BANK4   BANK5   BANK6   BANK7
  1967 ;;      Params:         0       0       0       0       0       0       0       0       0
  1968 ;;      Locals:         0       0       0       0       0       0       0       0       0
  1969 ;;      Temps:          0       0       0       0       0       0       0       0       0
  1970 ;;      Totals:         0       0       0       0       0       0       0       0       0
  1971 ;;Total ram usage:        0 bytes
  1972 ;; Hardware stack levels used:    1
  1973 ;; Hardware stack levels required when called:    2
  1974 ;; This function calls:
  1975 ;;		_LCD_Char
  1976 ;;		_MSdelay
  1977 ;; This function is called by:
  1978 ;;		_main
  1979 ;; This function uses a non-reentrant model
  1980 ;;
  1981                           
  1982                           	psect	text5
  1983  0015C2                     __ptext5:
  1984                           	opt callstack 0
  1985  0015C2                     _keyfind:
  1986                           	opt callstack 28
  1987  0015C2                     
  1988                           ;teclado.c: 7: TRISB = 0xf0;
  1989  0015C2  0EF0               	movlw	240
  1990  0015C4  6E93               	movwf	147,c	;volatile
  1991                           
  1992                           ;teclado.c: 8: LATB = 0xf0;
  1993  0015C6  0EF0               	movlw	240
  1994  0015C8  6E8A               	movwf	138,c	;volatile
  1995  0015CA                     l2211:
  1996                           
  1997                           ;teclado.c: 13: col_loc = PORTB & 0xf0;
  1998  0015CA  5081               	movf	129,w,c	;volatile
  1999  0015CC  0BF0               	andlw	240
  2000  0015CE  6E55               	movwf	_col_loc^0,c
  2001  0015D0                     
  2002                           ;teclado.c: 14: }while(col_loc!=0xf0);
  2003  0015D0  0EF0               	movlw	240
  2004  0015D2  1855               	xorwf	_col_loc^0,w,c
  2005  0015D4  A4D8               	btfss	status,2,c
  2006  0015D6  EFEF  F00A         	goto	u1631
  2007  0015DA  EFF1  F00A         	goto	u1630
  2008  0015DE                     u1631:
  2009  0015DE  EFE5  F00A         	goto	l2211
  2010  0015E2                     u1630:
  2011  0015E2                     
  2012                           ;teclado.c: 16: col_loc = PORTB & 0xf0;
  2013  0015E2  5081               	movf	129,w,c	;volatile
  2014  0015E4  0BF0               	andlw	240
  2015  0015E6  6E55               	movwf	_col_loc^0,c
  2016                           
  2017                           ;teclado.c: 18: }while(col_loc!=0xf0);
  2018  0015E8  0EF0               	movlw	240
  2019  0015EA  1855               	xorwf	_col_loc^0,w,c
  2020  0015EC  A4D8               	btfss	status,2,c
  2021  0015EE  EFFB  F00A         	goto	u1641
  2022  0015F2  EFFD  F00A         	goto	u1640
  2023  0015F6                     u1641:
  2024  0015F6  EFE5  F00A         	goto	l2211
  2025  0015FA                     u1640:
  2026  0015FA                     
  2027                           ;teclado.c: 20: LATB = 0xf0;
  2028  0015FA  0EF0               	movlw	240
  2029  0015FC  6E8A               	movwf	138,c	;volatile
  2030  0015FE                     l2219:
  2031                           
  2032                           ;teclado.c: 24: col_loc = PORTB & 0xf0;
  2033  0015FE  5081               	movf	129,w,c	;volatile
  2034  001600  0BF0               	andlw	240
  2035  001602  6E55               	movwf	_col_loc^0,c
  2036  001604                     
  2037                           ;teclado.c: 25: }while(col_loc==0xf0);
  2038  001604  0EF0               	movlw	240
  2039  001606  1855               	xorwf	_col_loc^0,w,c
  2040  001608  B4D8               	btfsc	status,2,c
  2041  00160A  EF09  F00B         	goto	u1651
  2042  00160E  EF0B  F00B         	goto	u1650
  2043  001612                     u1651:
  2044  001612  EFFF  F00A         	goto	l2219
  2045  001616                     u1650:
  2046  001616                     
  2047                           ;teclado.c: 26: col_loc = PORTB & 0xf0;
  2048  001616  5081               	movf	129,w,c	;volatile
  2049  001618  0BF0               	andlw	240
  2050  00161A  6E55               	movwf	_col_loc^0,c
  2051                           
  2052                           ;teclado.c: 28: }while(col_loc==0xf0);
  2053  00161C  0EF0               	movlw	240
  2054  00161E  1855               	xorwf	_col_loc^0,w,c
  2055  001620  B4D8               	btfsc	status,2,c
  2056  001622  EF15  F00B         	goto	u1661
  2057  001626  EF17  F00B         	goto	u1660
  2058  00162A                     u1661:
  2059  00162A  EFFF  F00A         	goto	l2219
  2060  00162E                     u1660:
  2061  00162E                     
  2062                           ;teclado.c: 30: MSdelay(20);
  2063  00162E  0E00               	movlw	0
  2064  001630  6E02               	movwf	(MSdelay@val+1)^0,c
  2065  001632  0E14               	movlw	20
  2066  001634  6E01               	movwf	MSdelay@val^0,c
  2067  001636  ECCD  F011         	call	_MSdelay	;wreg free
  2068  00163A                     
  2069                           ;teclado.c: 32: col_loc = PORTB & 0xf0;
  2070  00163A  5081               	movf	129,w,c	;volatile
  2071  00163C  0BF0               	andlw	240
  2072  00163E  6E55               	movwf	_col_loc^0,c
  2073  001640                     l2229:
  2074                           
  2075                           ;teclado.c: 35: LATB = 0xfe;
  2076  001640  0EFE               	movlw	254
  2077  001642  6E8A               	movwf	138,c	;volatile
  2078  001644                     
  2079                           ;teclado.c: 36: col_loc = PORTB & 0xf0;
  2080  001644  5081               	movf	129,w,c	;volatile
  2081  001646  0BF0               	andlw	240
  2082  001648  6E55               	movwf	_col_loc^0,c
  2083  00164A                     
  2084                           ;teclado.c: 37: temp_col=col_loc;
  2085  00164A  C055  F053         	movff	_col_loc,_temp_col
  2086  00164E                     
  2087                           ;teclado.c: 38: if(col_loc!=0xf0)
  2088  00164E  0EF0               	movlw	240
  2089  001650  1855               	xorwf	_col_loc^0,w,c
  2090  001652  B4D8               	btfsc	status,2,c
  2091  001654  EF2E  F00B         	goto	u1671
  2092  001658  EF30  F00B         	goto	u1670
  2093  00165C                     u1671:
  2094  00165C  EF42  F00B         	goto	l2241
  2095  001660                     u1670:
  2096  001660                     
  2097                           ;teclado.c: 39: {;teclado.c: 40: rowloc=0;
  2098  001660  0E00               	movlw	0
  2099  001662  6E54               	movwf	_rowloc^0,c
  2100                           
  2101                           ;teclado.c: 41: while(temp_col!=0xf0)
  2102  001664  EF37  F00B         	goto	l78
  2103  001668                     l2239:
  2104                           
  2105                           ;teclado.c: 42: {;teclado.c: 43: temp_col = PORTB & 0xf0;
  2106  001668  5081               	movf	129,w,c	;volatile
  2107  00166A  0BF0               	andlw	240
  2108  00166C  6E53               	movwf	_temp_col^0,c
  2109  00166E                     l78:
  2110  00166E  0EF0               	movlw	240
  2111  001670  1853               	xorwf	_temp_col^0,w,c
  2112  001672  A4D8               	btfss	status,2,c
  2113  001674  EF3E  F00B         	goto	u1681
  2114  001678  EF40  F00B         	goto	u1680
  2115  00167C                     u1681:
  2116  00167C  EF34  F00B         	goto	l2239
  2117  001680                     u1680:
  2118  001680  EFA6  F00B         	goto	l2277
  2119  001684                     l2241:
  2120                           
  2121                           ;teclado.c: 46: };teclado.c: 48: LATB = 0xfd;
  2122  001684  0EFD               	movlw	253
  2123  001686  6E8A               	movwf	138,c	;volatile
  2124  001688                     
  2125                           ;teclado.c: 49: col_loc = PORTB & 0xf0;
  2126  001688  5081               	movf	129,w,c	;volatile
  2127  00168A  0BF0               	andlw	240
  2128  00168C  6E55               	movwf	_col_loc^0,c
  2129  00168E                     
  2130                           ;teclado.c: 50: temp_col=col_loc;
  2131  00168E  C055  F053         	movff	_col_loc,_temp_col
  2132  001692                     
  2133                           ;teclado.c: 51: if(col_loc!=0xf0)
  2134  001692  0EF0               	movlw	240
  2135  001694  1855               	xorwf	_col_loc^0,w,c
  2136  001696  B4D8               	btfsc	status,2,c
  2137  001698  EF50  F00B         	goto	u1691
  2138  00169C  EF52  F00B         	goto	u1690
  2139  0016A0                     u1691:
  2140  0016A0  EF64  F00B         	goto	l2253
  2141  0016A4                     u1690:
  2142  0016A4                     
  2143                           ;teclado.c: 52: {;teclado.c: 53: rowloc=1;
  2144  0016A4  0E01               	movlw	1
  2145  0016A6  6E54               	movwf	_rowloc^0,c
  2146                           
  2147                           ;teclado.c: 54: while(temp_col!=0xf0)
  2148  0016A8  EF59  F00B         	goto	l83
  2149  0016AC                     l2251:
  2150                           
  2151                           ;teclado.c: 55: {;teclado.c: 56: temp_col = PORTB & 0xf0;
  2152  0016AC  5081               	movf	129,w,c	;volatile
  2153  0016AE  0BF0               	andlw	240
  2154  0016B0  6E53               	movwf	_temp_col^0,c
  2155  0016B2                     l83:
  2156  0016B2  0EF0               	movlw	240
  2157  0016B4  1853               	xorwf	_temp_col^0,w,c
  2158  0016B6  A4D8               	btfss	status,2,c
  2159  0016B8  EF60  F00B         	goto	u1701
  2160  0016BC  EF62  F00B         	goto	u1700
  2161  0016C0                     u1701:
  2162  0016C0  EF56  F00B         	goto	l2251
  2163  0016C4                     u1700:
  2164  0016C4  EFA6  F00B         	goto	l2277
  2165  0016C8                     l2253:
  2166                           
  2167                           ;teclado.c: 59: };teclado.c: 61: LATB = 0xfb;
  2168  0016C8  0EFB               	movlw	251
  2169  0016CA  6E8A               	movwf	138,c	;volatile
  2170  0016CC                     
  2171                           ;teclado.c: 62: col_loc = PORTB & 0xf0;
  2172  0016CC  5081               	movf	129,w,c	;volatile
  2173  0016CE  0BF0               	andlw	240
  2174  0016D0  6E55               	movwf	_col_loc^0,c
  2175  0016D2                     
  2176                           ;teclado.c: 63: temp_col=col_loc;
  2177  0016D2  C055  F053         	movff	_col_loc,_temp_col
  2178  0016D6                     
  2179                           ;teclado.c: 64: if(col_loc!=0xf0)
  2180  0016D6  0EF0               	movlw	240
  2181  0016D8  1855               	xorwf	_col_loc^0,w,c
  2182  0016DA  B4D8               	btfsc	status,2,c
  2183  0016DC  EF72  F00B         	goto	u1711
  2184  0016E0  EF74  F00B         	goto	u1710
  2185  0016E4                     u1711:
  2186  0016E4  EF86  F00B         	goto	l2265
  2187  0016E8                     u1710:
  2188  0016E8                     
  2189                           ;teclado.c: 65: {;teclado.c: 66: rowloc=2;
  2190  0016E8  0E02               	movlw	2
  2191  0016EA  6E54               	movwf	_rowloc^0,c
  2192                           
  2193                           ;teclado.c: 67: while(temp_col!=0xf0)
  2194  0016EC  EF7B  F00B         	goto	l87
  2195  0016F0                     l2263:
  2196                           
  2197                           ;teclado.c: 68: {;teclado.c: 69: temp_col = PORTB & 0xf0;
  2198  0016F0  5081               	movf	129,w,c	;volatile
  2199  0016F2  0BF0               	andlw	240
  2200  0016F4  6E53               	movwf	_temp_col^0,c
  2201  0016F6                     l87:
  2202  0016F6  0EF0               	movlw	240
  2203  0016F8  1853               	xorwf	_temp_col^0,w,c
  2204  0016FA  A4D8               	btfss	status,2,c
  2205  0016FC  EF82  F00B         	goto	u1721
  2206  001700  EF84  F00B         	goto	u1720
  2207  001704                     u1721:
  2208  001704  EF78  F00B         	goto	l2263
  2209  001708                     u1720:
  2210  001708  EFA6  F00B         	goto	l2277
  2211  00170C                     l2265:
  2212                           
  2213                           ;teclado.c: 72: };teclado.c: 74: LATB = 0xf7;
  2214  00170C  0EF7               	movlw	247
  2215  00170E  6E8A               	movwf	138,c	;volatile
  2216  001710                     
  2217                           ;teclado.c: 75: col_loc = PORTB & 0xf0;
  2218  001710  5081               	movf	129,w,c	;volatile
  2219  001712  0BF0               	andlw	240
  2220  001714  6E55               	movwf	_col_loc^0,c
  2221  001716                     
  2222                           ;teclado.c: 76: temp_col=col_loc;
  2223  001716  C055  F053         	movff	_col_loc,_temp_col
  2224  00171A                     
  2225                           ;teclado.c: 77: if(col_loc!=0xf0)
  2226  00171A  0EF0               	movlw	240
  2227  00171C  1855               	xorwf	_col_loc^0,w,c
  2228  00171E  B4D8               	btfsc	status,2,c
  2229  001720  EF94  F00B         	goto	u1731
  2230  001724  EF96  F00B         	goto	u1730
  2231  001728                     u1731:
  2232  001728  EF20  F00B         	goto	l2229
  2233  00172C                     u1730:
  2234  00172C                     
  2235                           ;teclado.c: 78: {;teclado.c: 79: rowloc=3;
  2236  00172C  0E03               	movlw	3
  2237  00172E  6E54               	movwf	_rowloc^0,c
  2238                           
  2239                           ;teclado.c: 80: while(temp_col!=0xf0)
  2240  001730  EF9D  F00B         	goto	l91
  2241  001734                     l2275:
  2242                           
  2243                           ;teclado.c: 81: {;teclado.c: 82: temp_col = PORTB & 0xf0;
  2244  001734  5081               	movf	129,w,c	;volatile
  2245  001736  0BF0               	andlw	240
  2246  001738  6E53               	movwf	_temp_col^0,c
  2247  00173A                     l91:
  2248  00173A  0EF0               	movlw	240
  2249  00173C  1853               	xorwf	_temp_col^0,w,c
  2250  00173E  A4D8               	btfss	status,2,c
  2251  001740  EFA4  F00B         	goto	u1741
  2252  001744  EFA6  F00B         	goto	u1740
  2253  001748                     u1741:
  2254  001748  EF9A  F00B         	goto	l2275
  2255  00174C                     u1740:
  2256  00174C                     l2277:
  2257                           
  2258                           ;teclado.c: 93: if(col_loc==0xe0)
  2259  00174C  0EE0               	movlw	224
  2260  00174E  1855               	xorwf	_col_loc^0,w,c
  2261  001750  A4D8               	btfss	status,2,c
  2262  001752  EFAD  F00B         	goto	u1751
  2263  001756  EFAF  F00B         	goto	u1750
  2264  00175A                     u1751:
  2265  00175A  EFD8  F00B         	goto	l2293
  2266  00175E                     u1750:
  2267  00175E                     
  2268                           ;teclado.c: 94: {;teclado.c: 96: if(lim==0) LCD_Char(keypad[rowloc][0]);
  2269  00175E  5052               	movf	_lim^0,w,c
  2270  001760  A4D8               	btfss	status,2,c
  2271  001762  EFB5  F00B         	goto	u1761
  2272  001766  EFB7  F00B         	goto	u1760
  2273  00176A                     u1761:
  2274  00176A  EFC2  F00B         	goto	l2283
  2275  00176E                     u1760:
  2276  00176E  5054               	movf	_rowloc^0,w,c
  2277  001770  0D04               	mullw	4
  2278  001772  0E91               	movlw	low _keypad
  2279  001774  24F3               	addwf	243,w,c
  2280  001776  6ED9               	movwf	fsr2l,c
  2281  001778  0E00               	movlw	high _keypad
  2282  00177A  20F4               	addwfc	prodh,w,c
  2283  00177C  6EDA               	movwf	fsr2h,c
  2284  00177E  50DF               	movf	indf2,w,c
  2285  001780  EC81  F011         	call	_LCD_Char
  2286  001784                     l2283:
  2287                           
  2288                           ;teclado.c: 98: if(rowloc==3) lim=0;
  2289  001784  0E03               	movlw	3
  2290  001786  1854               	xorwf	_rowloc^0,w,c
  2291  001788  A4D8               	btfss	status,2,c
  2292  00178A  EFC9  F00B         	goto	u1771
  2293  00178E  EFCB  F00B         	goto	u1770
  2294  001792                     u1771:
  2295  001792  EFCD  F00B         	goto	l2287
  2296  001796                     u1770:
  2297  001796  0E00               	movlw	0
  2298  001798  6E52               	movwf	_lim^0,c
  2299  00179A                     l2287:
  2300                           
  2301                           ;teclado.c: 100: return keypad[rowloc][0];
  2302  00179A  5054               	movf	_rowloc^0,w,c
  2303  00179C  0D04               	mullw	4
  2304  00179E  0E91               	movlw	low _keypad
  2305  0017A0  24F3               	addwf	243,w,c
  2306  0017A2  6ED9               	movwf	fsr2l,c
  2307  0017A4  0E00               	movlw	high _keypad
  2308  0017A6  20F4               	addwfc	prodh,w,c
  2309  0017A8  6EDA               	movwf	fsr2h,c
  2310  0017AA  50DF               	movf	indf2,w,c
  2311  0017AC  EF4D  F00C         	goto	l99
  2312  0017B0                     l2293:
  2313                           
  2314                           ;teclado.c: 102: else;teclado.c: 103: if(col_loc==0xd0)
  2315  0017B0  0ED0               	movlw	208
  2316  0017B2  1855               	xorwf	_col_loc^0,w,c
  2317  0017B4  A4D8               	btfss	status,2,c
  2318  0017B6  EFDF  F00B         	goto	u1781
  2319  0017BA  EFE1  F00B         	goto	u1780
  2320  0017BE                     u1781:
  2321  0017BE  EFFF  F00B         	goto	l2305
  2322  0017C2                     u1780:
  2323  0017C2                     
  2324                           ;teclado.c: 104: {;teclado.c: 105: if(lim==0) LCD_Char(keypad[rowloc][1]);
  2325  0017C2  5052               	movf	_lim^0,w,c
  2326  0017C4  A4D8               	btfss	status,2,c
  2327  0017C6  EFE7  F00B         	goto	u1791
  2328  0017CA  EFE9  F00B         	goto	u1790
  2329  0017CE                     u1791:
  2330  0017CE  EFF4  F00B         	goto	l2299
  2331  0017D2                     u1790:
  2332  0017D2  5054               	movf	_rowloc^0,w,c
  2333  0017D4  0D04               	mullw	4
  2334  0017D6  0E92               	movlw	low (_keypad+1)
  2335  0017D8  24F3               	addwf	243,w,c
  2336  0017DA  6ED9               	movwf	fsr2l,c
  2337  0017DC  0E00               	movlw	high (_keypad+1)
  2338  0017DE  20F4               	addwfc	prodh,w,c
  2339  0017E0  6EDA               	movwf	fsr2h,c
  2340  0017E2  50DF               	movf	indf2,w,c
  2341  0017E4  EC81  F011         	call	_LCD_Char
  2342  0017E8                     l2299:
  2343                           
  2344                           ;teclado.c: 106: return keypad[rowloc][1];
  2345  0017E8  5054               	movf	_rowloc^0,w,c
  2346  0017EA  0D04               	mullw	4
  2347  0017EC  0E92               	movlw	low (_keypad+1)
  2348  0017EE  24F3               	addwf	243,w,c
  2349  0017F0  6ED9               	movwf	fsr2l,c
  2350  0017F2  0E00               	movlw	high (_keypad+1)
  2351  0017F4  20F4               	addwfc	prodh,w,c
  2352  0017F6  6EDA               	movwf	fsr2h,c
  2353  0017F8  50DF               	movf	indf2,w,c
  2354  0017FA  EF4D  F00C         	goto	l99
  2355  0017FE                     l2305:
  2356                           
  2357                           ;teclado.c: 108: else;teclado.c: 109: if(col_loc==0xb0)
  2358  0017FE  0EB0               	movlw	176
  2359  001800  1855               	xorwf	_col_loc^0,w,c
  2360  001802  A4D8               	btfss	status,2,c
  2361  001804  EF06  F00C         	goto	u1801
  2362  001808  EF08  F00C         	goto	u1800
  2363  00180C                     u1801:
  2364  00180C  EF31  F00C         	goto	l2319
  2365  001810                     u1800:
  2366  001810                     
  2367                           ;teclado.c: 110: {;teclado.c: 112: if(rowloc==3) lim=1;
  2368  001810  0E03               	movlw	3
  2369  001812  1854               	xorwf	_rowloc^0,w,c
  2370  001814  A4D8               	btfss	status,2,c
  2371  001816  EF0F  F00C         	goto	u1811
  2372  00181A  EF11  F00C         	goto	u1810
  2373  00181E                     u1811:
  2374  00181E  EF13  F00C         	goto	l105
  2375  001822                     u1810:
  2376  001822  0E01               	movlw	1
  2377  001824  6E52               	movwf	_lim^0,c
  2378  001826                     l105:
  2379                           
  2380                           ;teclado.c: 114: if(lim==0)LCD_Char(keypad[rowloc][2]);
  2381  001826  5052               	movf	_lim^0,w,c
  2382  001828  A4D8               	btfss	status,2,c
  2383  00182A  EF19  F00C         	goto	u1821
  2384  00182E  EF1B  F00C         	goto	u1820
  2385  001832                     u1821:
  2386  001832  EF26  F00C         	goto	l2313
  2387  001836                     u1820:
  2388  001836  5054               	movf	_rowloc^0,w,c
  2389  001838  0D04               	mullw	4
  2390  00183A  0E93               	movlw	low (_keypad+2)
  2391  00183C  24F3               	addwf	243,w,c
  2392  00183E  6ED9               	movwf	fsr2l,c
  2393  001840  0E00               	movlw	high (_keypad+2)
  2394  001842  20F4               	addwfc	prodh,w,c
  2395  001844  6EDA               	movwf	fsr2h,c
  2396  001846  50DF               	movf	indf2,w,c
  2397  001848  EC81  F011         	call	_LCD_Char
  2398  00184C                     l2313:
  2399                           
  2400                           ;teclado.c: 115: return keypad[rowloc][2];
  2401  00184C  5054               	movf	_rowloc^0,w,c
  2402  00184E  0D04               	mullw	4
  2403  001850  0E93               	movlw	low (_keypad+2)
  2404  001852  24F3               	addwf	243,w,c
  2405  001854  6ED9               	movwf	fsr2l,c
  2406  001856  0E00               	movlw	high (_keypad+2)
  2407  001858  20F4               	addwfc	prodh,w,c
  2408  00185A  6EDA               	movwf	fsr2h,c
  2409  00185C  50DF               	movf	indf2,w,c
  2410  00185E  EF4D  F00C         	goto	l99
  2411  001862                     l2319:
  2412                           
  2413                           ;teclado.c: 117: else;teclado.c: 119: {;teclado.c: 120: if(lim==0) LCD_Char(keypad[rowlo
      +                          c][3]);
  2414  001862  5052               	movf	_lim^0,w,c
  2415  001864  A4D8               	btfss	status,2,c
  2416  001866  EF37  F00C         	goto	u1831
  2417  00186A  EF39  F00C         	goto	u1830
  2418  00186E                     u1831:
  2419  00186E  EF44  F00C         	goto	l2323
  2420  001872                     u1830:
  2421  001872  5054               	movf	_rowloc^0,w,c
  2422  001874  0D04               	mullw	4
  2423  001876  0E94               	movlw	low (_keypad+3)
  2424  001878  24F3               	addwf	243,w,c
  2425  00187A  6ED9               	movwf	fsr2l,c
  2426  00187C  0E00               	movlw	high (_keypad+3)
  2427  00187E  20F4               	addwfc	prodh,w,c
  2428  001880  6EDA               	movwf	fsr2h,c
  2429  001882  50DF               	movf	indf2,w,c
  2430  001884  EC81  F011         	call	_LCD_Char
  2431  001888                     l2323:
  2432                           
  2433                           ;teclado.c: 121: return keypad[rowloc][3];
  2434  001888  5054               	movf	_rowloc^0,w,c
  2435  00188A  0D04               	mullw	4
  2436  00188C  0E94               	movlw	low (_keypad+3)
  2437  00188E  24F3               	addwf	243,w,c
  2438  001890  6ED9               	movwf	fsr2l,c
  2439  001892  0E00               	movlw	high (_keypad+3)
  2440  001894  20F4               	addwfc	prodh,w,c
  2441  001896  6EDA               	movwf	fsr2h,c
  2442  001898  50DF               	movf	indf2,w,c
  2443  00189A                     l99:
  2444  00189A  0012               	return		;funcret
  2445  00189C                     __end_of_keyfind:
  2446                           	opt callstack 0
  2447                           
  2448 ;; *************** function _dimmer *****************
  2449 ;; Defined at:
  2450 ;;		line 135 in file "incub.c"
  2451 ;; Parameters:    Size  Location     Type
  2452 ;;  brillo          2   10[COMRAM] int 
  2453 ;; Auto vars:     Size  Location     Type
  2454 ;;		None
  2455 ;; Return value:  Size  Location     Type
  2456 ;;                  1    wreg      void 
  2457 ;; Registers used:
  2458 ;;		wreg, status,2, status,0, cstack
  2459 ;; Tracked objects:
  2460 ;;		On entry : 0/0
  2461 ;;		On exit  : 0/0
  2462 ;;		Unchanged: 0/0
  2463 ;; Data sizes:     COMRAM   BANK0   BANK1   BANK2   BANK3   BANK4   BANK5   BANK6   BANK7
  2464 ;;      Params:         2       0       0       0       0       0       0       0       0
  2465 ;;      Locals:         0       0       0       0       0       0       0       0       0
  2466 ;;      Temps:          2       0       0       0       0       0       0       0       0
  2467 ;;      Totals:         4       0       0       0       0       0       0       0       0
  2468 ;;Total ram usage:        4 bytes
  2469 ;; Hardware stack levels used:    1
  2470 ;; Hardware stack levels required when called:    1
  2471 ;; This function calls:
  2472 ;;		_MSdelay
  2473 ;; This function is called by:
  2474 ;;		_main
  2475 ;; This function uses a non-reentrant model
  2476 ;;
  2477                           
  2478                           	psect	text6
  2479  00189C                     __ptext6:
  2480                           	opt callstack 0
  2481  00189C                     _dimmer:
  2482                           	opt callstack 29
  2483  00189C                     
  2484                           ;incub.c: 136: if (brillo >=8) brillo=8;
  2485  00189C  BE0C               	btfsc	(dimmer@brillo+1)^0,7,c
  2486  00189E  EF5A  F00C         	goto	u2041
  2487  0018A2  500C               	movf	(dimmer@brillo+1)^0,w,c
  2488  0018A4  E109               	bnz	u2040
  2489  0018A6  0E08               	movlw	8
  2490  0018A8  5C0B               	subwf	dimmer@brillo^0,w,c
  2491  0018AA  A0D8               	btfss	status,0,c
  2492  0018AC  EF5A  F00C         	goto	u2041
  2493  0018B0  EF5C  F00C         	goto	u2040
  2494  0018B4                     u2041:
  2495  0018B4  EF60  F00C         	goto	l2445
  2496  0018B8                     u2040:
  2497  0018B8  0E00               	movlw	0
  2498  0018BA  6E0C               	movwf	(dimmer@brillo+1)^0,c
  2499  0018BC  0E08               	movlw	8
  2500  0018BE  6E0B               	movwf	dimmer@brillo^0,c
  2501  0018C0                     l2445:
  2502                           
  2503                           ;incub.c: 137: if (brillo <=0) brillo=0;
  2504  0018C0  BE0C               	btfsc	(dimmer@brillo+1)^0,7,c
  2505  0018C2  EF6D  F00C         	goto	u2050
  2506  0018C6  500C               	movf	(dimmer@brillo+1)^0,w,c
  2507  0018C8  E106               	bnz	u2051
  2508  0018CA  040B               	decf	dimmer@brillo^0,w,c
  2509  0018CC  B0D8               	btfsc	status,0,c
  2510  0018CE  EF6B  F00C         	goto	u2051
  2511  0018D2  EF6D  F00C         	goto	u2050
  2512  0018D6                     u2051:
  2513  0018D6  EF04  F00D         	goto	l2487
  2514  0018DA                     u2050:
  2515  0018DA  0E00               	movlw	0
  2516  0018DC  6E0C               	movwf	(dimmer@brillo+1)^0,c
  2517  0018DE  0E00               	movlw	0
  2518  0018E0  6E0B               	movwf	dimmer@brillo^0,c
  2519  0018E2  EF04  F00D         	goto	l2487
  2520  0018E6                     l2449:
  2521                           
  2522                           ;incub.c: 141: MSdelay(0);
  2523  0018E6  0E00               	movlw	0
  2524  0018E8  6E02               	movwf	(MSdelay@val+1)^0,c
  2525  0018EA  0E00               	movlw	0
  2526  0018EC  6E01               	movwf	MSdelay@val^0,c
  2527  0018EE  ECCD  F011         	call	_MSdelay	;wreg free
  2528  0018F2                     
  2529                           ;incub.c: 142: LATC0 = 1;
  2530  0018F2  808B               	bsf	3979,0,c	;volatile
  2531  0018F4                     l195:
  2532  0018F4  A282               	btfss	3970,1,c	;volatile
  2533  0018F6  EF7F  F00C         	goto	u2061
  2534  0018FA  EF81  F00C         	goto	u2060
  2535  0018FE                     u2061:
  2536  0018FE  EF7A  F00C         	goto	l195
  2537  001902                     u2060:
  2538  001902                     l197:
  2539                           
  2540                           ;incub.c: 144: LATC0 = 0;
  2541  001902  908B               	bcf	3979,0,c	;volatile
  2542                           
  2543                           ;incub.c: 145: break;
  2544  001904  EF36  F00D         	goto	l231
  2545  001908                     l2453:
  2546                           
  2547                           ;incub.c: 147: MSdelay(1);
  2548  001908  0E00               	movlw	0
  2549  00190A  6E02               	movwf	(MSdelay@val+1)^0,c
  2550  00190C  0E01               	movlw	1
  2551  00190E  6E01               	movwf	MSdelay@val^0,c
  2552  001910  ECCD  F011         	call	_MSdelay	;wreg free
  2553  001914                     
  2554                           ;incub.c: 148: LATC0 = 1;
  2555  001914  808B               	bsf	3979,0,c	;volatile
  2556  001916                     l200:
  2557  001916  A282               	btfss	3970,1,c	;volatile
  2558  001918  EF90  F00C         	goto	u2071
  2559  00191C  EF92  F00C         	goto	u2070
  2560  001920                     u2071:
  2561  001920  EF8B  F00C         	goto	l200
  2562  001924                     u2070:
  2563  001924  EF81  F00C         	goto	l197
  2564  001928                     l2457:
  2565                           
  2566                           ;incub.c: 153: MSdelay(2);
  2567  001928  0E00               	movlw	0
  2568  00192A  6E02               	movwf	(MSdelay@val+1)^0,c
  2569  00192C  0E02               	movlw	2
  2570  00192E  6E01               	movwf	MSdelay@val^0,c
  2571  001930  ECCD  F011         	call	_MSdelay	;wreg free
  2572  001934                     
  2573                           ;incub.c: 154: LATC0 = 1;
  2574  001934  808B               	bsf	3979,0,c	;volatile
  2575  001936                     l204:
  2576  001936  A282               	btfss	3970,1,c	;volatile
  2577  001938  EFA0  F00C         	goto	u2081
  2578  00193C  EFA2  F00C         	goto	u2080
  2579  001940                     u2081:
  2580  001940  EF9B  F00C         	goto	l204
  2581  001944                     u2080:
  2582  001944  EF81  F00C         	goto	l197
  2583  001948                     l2461:
  2584                           
  2585                           ;incub.c: 159: MSdelay(3);
  2586  001948  0E00               	movlw	0
  2587  00194A  6E02               	movwf	(MSdelay@val+1)^0,c
  2588  00194C  0E03               	movlw	3
  2589  00194E  6E01               	movwf	MSdelay@val^0,c
  2590  001950  ECCD  F011         	call	_MSdelay	;wreg free
  2591  001954                     
  2592                           ;incub.c: 160: LATC0 = 1;
  2593  001954  808B               	bsf	3979,0,c	;volatile
  2594  001956                     l208:
  2595  001956  A282               	btfss	3970,1,c	;volatile
  2596  001958  EFB0  F00C         	goto	u2091
  2597  00195C  EFB2  F00C         	goto	u2090
  2598  001960                     u2091:
  2599  001960  EFAB  F00C         	goto	l208
  2600  001964                     u2090:
  2601  001964  EF81  F00C         	goto	l197
  2602  001968                     l2465:
  2603                           
  2604                           ;incub.c: 165: MSdelay(4);
  2605  001968  0E00               	movlw	0
  2606  00196A  6E02               	movwf	(MSdelay@val+1)^0,c
  2607  00196C  0E04               	movlw	4
  2608  00196E  6E01               	movwf	MSdelay@val^0,c
  2609  001970  ECCD  F011         	call	_MSdelay	;wreg free
  2610  001974                     
  2611                           ;incub.c: 166: LATC0 = 1;
  2612  001974  808B               	bsf	3979,0,c	;volatile
  2613  001976                     l212:
  2614  001976  A282               	btfss	3970,1,c	;volatile
  2615  001978  EFC0  F00C         	goto	u2101
  2616  00197C  EFC2  F00C         	goto	u2100
  2617  001980                     u2101:
  2618  001980  EFBB  F00C         	goto	l212
  2619  001984                     u2100:
  2620  001984  EF81  F00C         	goto	l197
  2621  001988                     l2469:
  2622                           
  2623                           ;incub.c: 171: MSdelay(5);
  2624  001988  0E00               	movlw	0
  2625  00198A  6E02               	movwf	(MSdelay@val+1)^0,c
  2626  00198C  0E05               	movlw	5
  2627  00198E  6E01               	movwf	MSdelay@val^0,c
  2628  001990  ECCD  F011         	call	_MSdelay	;wreg free
  2629  001994                     
  2630                           ;incub.c: 172: LATC0 = 1;
  2631  001994  808B               	bsf	3979,0,c	;volatile
  2632  001996                     l216:
  2633  001996  A282               	btfss	3970,1,c	;volatile
  2634  001998  EFD0  F00C         	goto	u2111
  2635  00199C  EFD2  F00C         	goto	u2110
  2636  0019A0                     u2111:
  2637  0019A0  EFCB  F00C         	goto	l216
  2638  0019A4                     u2110:
  2639  0019A4  EF81  F00C         	goto	l197
  2640  0019A8                     l2473:
  2641                           
  2642                           ;incub.c: 177: MSdelay(6);
  2643  0019A8  0E00               	movlw	0
  2644  0019AA  6E02               	movwf	(MSdelay@val+1)^0,c
  2645  0019AC  0E06               	movlw	6
  2646  0019AE  6E01               	movwf	MSdelay@val^0,c
  2647  0019B0  ECCD  F011         	call	_MSdelay	;wreg free
  2648  0019B4                     
  2649                           ;incub.c: 178: LATC0 = 1;
  2650  0019B4  808B               	bsf	3979,0,c	;volatile
  2651  0019B6                     l220:
  2652  0019B6  A282               	btfss	3970,1,c	;volatile
  2653  0019B8  EFE0  F00C         	goto	u2121
  2654  0019BC  EFE2  F00C         	goto	u2120
  2655  0019C0                     u2121:
  2656  0019C0  EFDB  F00C         	goto	l220
  2657  0019C4                     u2120:
  2658  0019C4  EF81  F00C         	goto	l197
  2659  0019C8                     l2477:
  2660                           
  2661                           ;incub.c: 183: MSdelay(7);
  2662  0019C8  0E00               	movlw	0
  2663  0019CA  6E02               	movwf	(MSdelay@val+1)^0,c
  2664  0019CC  0E07               	movlw	7
  2665  0019CE  6E01               	movwf	MSdelay@val^0,c
  2666  0019D0  ECCD  F011         	call	_MSdelay	;wreg free
  2667  0019D4                     
  2668                           ;incub.c: 184: LATC0 = 1;
  2669  0019D4  808B               	bsf	3979,0,c	;volatile
  2670  0019D6                     l224:
  2671  0019D6  A282               	btfss	3970,1,c	;volatile
  2672  0019D8  EFF0  F00C         	goto	u2131
  2673  0019DC  EFF2  F00C         	goto	u2130
  2674  0019E0                     u2131:
  2675  0019E0  EFEB  F00C         	goto	l224
  2676  0019E4                     u2130:
  2677  0019E4  EF81  F00C         	goto	l197
  2678  0019E8                     l2481:
  2679                           
  2680                           ;incub.c: 189: MSdelay(8);
  2681  0019E8  0E00               	movlw	0
  2682  0019EA  6E02               	movwf	(MSdelay@val+1)^0,c
  2683  0019EC  0E08               	movlw	8
  2684  0019EE  6E01               	movwf	MSdelay@val^0,c
  2685  0019F0  ECCD  F011         	call	_MSdelay	;wreg free
  2686  0019F4                     
  2687                           ;incub.c: 190: LATC0 = 1;
  2688  0019F4  808B               	bsf	3979,0,c	;volatile
  2689  0019F6                     l228:
  2690  0019F6  A282               	btfss	3970,1,c	;volatile
  2691  0019F8  EF00  F00D         	goto	u2141
  2692  0019FC  EF02  F00D         	goto	u2140
  2693  001A00                     u2141:
  2694  001A00  EFFB  F00C         	goto	l228
  2695  001A04                     u2140:
  2696  001A04  EF81  F00C         	goto	l197
  2697  001A08                     l2487:
  2698  001A08  C00B  F00D         	movff	dimmer@brillo,??_dimmer
  2699  001A0C  C00C  F00E         	movff	dimmer@brillo+1,??_dimmer+1
  2700                           
  2701                           ; Switch on 2 bytes has been partitioned into a top level switch of size 1, and 1 sub-sw
      +                          itches
  2702                           ; Switch size 1, requested type "simple"
  2703                           ; Number of cases is 1, Range of values is 0 to 0
  2704                           ; switch strategies available:
  2705                           ; Name         Instructions Cycles
  2706                           ; simple_byte            4     3 (average)
  2707                           ;	Chosen strategy is simple_byte
  2708  001A10  500E               	movf	(??_dimmer+1)^0,w,c
  2709  001A12  0A00               	xorlw	0	; case 0
  2710  001A14  B4D8               	btfsc	status,2,c
  2711  001A16  EF0F  F00D         	goto	l3051
  2712  001A1A  EF36  F00D         	goto	l231
  2713  001A1E                     l3051:
  2714                           
  2715                           ; Switch size 1, requested type "simple"
  2716                           ; Number of cases is 9, Range of values is 0 to 8
  2717                           ; switch strategies available:
  2718                           ; Name         Instructions Cycles
  2719                           ; simple_byte           28    15 (average)
  2720                           ;	Chosen strategy is simple_byte
  2721  001A1E  500D               	movf	??_dimmer^0,w,c
  2722  001A20  0A00               	xorlw	0	; case 0
  2723  001A22  B4D8               	btfsc	status,2,c
  2724  001A24  EF73  F00C         	goto	l2449
  2725  001A28  0A01               	xorlw	1	; case 1
  2726  001A2A  B4D8               	btfsc	status,2,c
  2727  001A2C  EF84  F00C         	goto	l2453
  2728  001A30  0A03               	xorlw	3	; case 2
  2729  001A32  B4D8               	btfsc	status,2,c
  2730  001A34  EF94  F00C         	goto	l2457
  2731  001A38  0A01               	xorlw	1	; case 3
  2732  001A3A  B4D8               	btfsc	status,2,c
  2733  001A3C  EFA4  F00C         	goto	l2461
  2734  001A40  0A07               	xorlw	7	; case 4
  2735  001A42  B4D8               	btfsc	status,2,c
  2736  001A44  EFB4  F00C         	goto	l2465
  2737  001A48  0A01               	xorlw	1	; case 5
  2738  001A4A  B4D8               	btfsc	status,2,c
  2739  001A4C  EFC4  F00C         	goto	l2469
  2740  001A50  0A03               	xorlw	3	; case 6
  2741  001A52  B4D8               	btfsc	status,2,c
  2742  001A54  EFD4  F00C         	goto	l2473
  2743  001A58  0A01               	xorlw	1	; case 7
  2744  001A5A  B4D8               	btfsc	status,2,c
  2745  001A5C  EFE4  F00C         	goto	l2477
  2746  001A60  0A0F               	xorlw	15	; case 8
  2747  001A62  B4D8               	btfsc	status,2,c
  2748  001A64  EFF4  F00C         	goto	l2481
  2749  001A68  EF36  F00D         	goto	l231
  2750  001A6C                     l231:
  2751  001A6C  0012               	return		;funcret
  2752  001A6E                     __end_of_dimmer:
  2753                           	opt callstack 0
  2754                           
  2755 ;; *************** function _atol *****************
  2756 ;; Defined at:
  2757 ;;		line 5 in file "C:\Program Files (x86)\Microchip\xc8\v2.10\pic\sources\c90\common\atol.c"
  2758 ;; Parameters:    Size  Location     Type
  2759 ;;  s               2   12[COMRAM] PTR const unsigned char 
  2760 ;;		 -> main@sp(2), 
  2761 ;; Auto vars:     Size  Location     Type
  2762 ;;  a               4   21[COMRAM] long 
  2763 ;;  c               1   25[COMRAM] unsigned char 
  2764 ;;  sign            1   20[COMRAM] unsigned char 
  2765 ;; Return value:  Size  Location     Type
  2766 ;;                  4   12[COMRAM] long 
  2767 ;; Registers used:
  2768 ;;		wreg, fsr2l, fsr2h, status,2, status,0, cstack
  2769 ;; Tracked objects:
  2770 ;;		On entry : 0/0
  2771 ;;		On exit  : 0/0
  2772 ;;		Unchanged: 0/0
  2773 ;; Data sizes:     COMRAM   BANK0   BANK1   BANK2   BANK3   BANK4   BANK5   BANK6   BANK7
  2774 ;;      Params:         4       0       0       0       0       0       0       0       0
  2775 ;;      Locals:         6       0       0       0       0       0       0       0       0
  2776 ;;      Temps:          4       0       0       0       0       0       0       0       0
  2777 ;;      Totals:        14       0       0       0       0       0       0       0       0
  2778 ;;Total ram usage:       14 bytes
  2779 ;; Hardware stack levels used:    1
  2780 ;; Hardware stack levels required when called:    1
  2781 ;; This function calls:
  2782 ;;		___lmul
  2783 ;;		_isdigit
  2784 ;; This function is called by:
  2785 ;;		_main
  2786 ;; This function uses a non-reentrant model
  2787 ;;
  2788                           
  2789                           	psect	text7
  2790  001DC2                     __ptext7:
  2791                           	opt callstack 0
  2792  001DC2                     _atol:
  2793                           	opt callstack 29
  2794  001DC2                     l953:
  2795  001DC2  C00D  FFD9         	movff	atol@s,fsr2l
  2796  001DC6  C00E  FFDA         	movff	atol@s+1,fsr2h
  2797  001DCA  50DF               	movf	indf2,w,c
  2798  001DCC  6E1A               	movwf	atol@c^0,c
  2799  001DCE  4A0D               	infsnz	atol@s^0,f,c
  2800  001DD0  2A0E               	incf	(atol@s+1)^0,f,c
  2801  001DD2  0E20               	movlw	32
  2802  001DD4  181A               	xorwf	atol@c^0,w,c
  2803  001DD6  B4D8               	btfsc	status,2,c
  2804  001DD8  EFF0  F00E         	goto	u1841
  2805  001DDC  EFF2  F00E         	goto	u1840
  2806  001DE0                     u1841:
  2807  001DE0  EFE1  F00E         	goto	l953
  2808  001DE4                     u1840:
  2809  001DE4  0E09               	movlw	9
  2810  001DE6  181A               	xorwf	atol@c^0,w,c
  2811  001DE8  B4D8               	btfsc	status,2,c
  2812  001DEA  EFF9  F00E         	goto	u1851
  2813  001DEE  EFFB  F00E         	goto	u1850
  2814  001DF2                     u1851:
  2815  001DF2  EFE1  F00E         	goto	l953
  2816  001DF6                     u1850:
  2817  001DF6  0E00               	movlw	0
  2818  001DF8  6E16               	movwf	atol@a^0,c
  2819  001DFA  0E00               	movlw	0
  2820  001DFC  6E17               	movwf	(atol@a+1)^0,c
  2821  001DFE  0E00               	movlw	0
  2822  001E00  6E18               	movwf	(atol@a+2)^0,c
  2823  001E02  0E00               	movlw	0
  2824  001E04  6E19               	movwf	(atol@a+3)^0,c
  2825  001E06  0E00               	movlw	0
  2826  001E08  6E15               	movwf	atol@sign^0,c
  2827  001E0A  0E2D               	movlw	45
  2828  001E0C  181A               	xorwf	atol@c^0,w,c
  2829  001E0E  A4D8               	btfss	status,2,c
  2830  001E10  EF0C  F00F         	goto	u1861
  2831  001E14  EF0E  F00F         	goto	u1860
  2832  001E18                     u1861:
  2833  001E18  EF19  F00F         	goto	l2353
  2834  001E1C                     u1860:
  2835  001E1C  2A15               	incf	atol@sign^0,f,c
  2836  001E1E                     l2349:
  2837  001E1E  C00D  FFD9         	movff	atol@s,fsr2l
  2838  001E22  C00E  FFDA         	movff	atol@s+1,fsr2h
  2839  001E26  50DF               	movf	indf2,w,c
  2840  001E28  6E1A               	movwf	atol@c^0,c
  2841  001E2A  4A0D               	infsnz	atol@s^0,f,c
  2842  001E2C  2A0E               	incf	(atol@s+1)^0,f,c
  2843  001E2E  EF48  F00F         	goto	l2365
  2844  001E32                     l2353:
  2845  001E32  0E2B               	movlw	43
  2846  001E34  181A               	xorwf	atol@c^0,w,c
  2847  001E36  A4D8               	btfss	status,2,c
  2848  001E38  EF20  F00F         	goto	u1871
  2849  001E3C  EF22  F00F         	goto	u1870
  2850  001E40                     u1871:
  2851  001E40  EF48  F00F         	goto	l2365
  2852  001E44                     u1870:
  2853  001E44  EF0F  F00F         	goto	l2349
  2854  001E48                     l2359:
  2855  001E48  C016  F001         	movff	atol@a,___lmul@multiplier
  2856  001E4C  C017  F002         	movff	atol@a+1,___lmul@multiplier+1
  2857  001E50  C018  F003         	movff	atol@a+2,___lmul@multiplier+2
  2858  001E54  C019  F004         	movff	atol@a+3,___lmul@multiplier+3
  2859  001E58  0E0A               	movlw	10
  2860  001E5A  6E05               	movwf	___lmul@multiplicand^0,c
  2861  001E5C  0E00               	movlw	0
  2862  001E5E  6E06               	movwf	(___lmul@multiplicand+1)^0,c
  2863  001E60  0E00               	movlw	0
  2864  001E62  6E07               	movwf	(___lmul@multiplicand+2)^0,c
  2865  001E64  0E00               	movlw	0
  2866  001E66  6E08               	movwf	(___lmul@multiplicand+3)^0,c
  2867  001E68  ECEB  F010         	call	___lmul	;wreg free
  2868  001E6C  C01A  F011         	movff	atol@c,??_atol
  2869  001E70  0ED0               	movlw	208
  2870  001E72  2611               	addwf	??_atol^0,f,c
  2871  001E74  5011               	movf	??_atol^0,w,c
  2872  001E76  2401               	addwf	?___lmul^0,w,c
  2873  001E78  6E16               	movwf	atol@a^0,c
  2874  001E7A  0E00               	movlw	0
  2875  001E7C  2002               	addwfc	(?___lmul+1)^0,w,c
  2876  001E7E  6E17               	movwf	(atol@a+1)^0,c
  2877  001E80  0E00               	movlw	0
  2878  001E82  2003               	addwfc	(?___lmul+2)^0,w,c
  2879  001E84  6E18               	movwf	(atol@a+2)^0,c
  2880  001E86  0E00               	movlw	0
  2881  001E88  2004               	addwfc	(?___lmul+3)^0,w,c
  2882  001E8A  6E19               	movwf	(atol@a+3)^0,c
  2883  001E8C  EF0F  F00F         	goto	l2349
  2884  001E90                     l2365:
  2885  001E90  501A               	movf	atol@c^0,w,c
  2886  001E92  EC48  F012         	call	_isdigit
  2887  001E96  B0D8               	btfsc	status,0,c
  2888  001E98  EF50  F00F         	goto	u1881
  2889  001E9C  EF52  F00F         	goto	u1880
  2890  001EA0                     u1881:
  2891  001EA0  EF24  F00F         	goto	l2359
  2892  001EA4                     u1880:
  2893  001EA4  5015               	movf	atol@sign^0,w,c
  2894  001EA6  B4D8               	btfsc	status,2,c
  2895  001EA8  EF58  F00F         	goto	u1891
  2896  001EAC  EF5A  F00F         	goto	u1890
  2897  001EB0                     u1891:
  2898  001EB0  EF75  F00F         	goto	l961
  2899  001EB4                     u1890:
  2900  001EB4  C016  F011         	movff	atol@a,??_atol
  2901  001EB8  C017  F012         	movff	atol@a+1,??_atol+1
  2902  001EBC  C018  F013         	movff	atol@a+2,??_atol+2
  2903  001EC0  C019  F014         	movff	atol@a+3,??_atol+3
  2904  001EC4  1E11               	comf	??_atol^0,f,c
  2905  001EC6  1E12               	comf	(??_atol+1)^0,f,c
  2906  001EC8  1E13               	comf	(??_atol+2)^0,f,c
  2907  001ECA  1E14               	comf	(??_atol+3)^0,f,c
  2908  001ECC  2A11               	incf	??_atol^0,f,c
  2909  001ECE  0E00               	movlw	0
  2910  001ED0  2212               	addwfc	(??_atol+1)^0,f,c
  2911  001ED2  2213               	addwfc	(??_atol+2)^0,f,c
  2912  001ED4  2214               	addwfc	(??_atol+3)^0,f,c
  2913  001ED6  C011  F00D         	movff	??_atol,?_atol
  2914  001EDA  C012  F00E         	movff	??_atol+1,?_atol+1
  2915  001EDE  C013  F00F         	movff	??_atol+2,?_atol+2
  2916  001EE2  C014  F010         	movff	??_atol+3,?_atol+3
  2917  001EE6  EF7D  F00F         	goto	l962
  2918  001EEA                     l961:
  2919  001EEA  C016  F00D         	movff	atol@a,?_atol
  2920  001EEE  C017  F00E         	movff	atol@a+1,?_atol+1
  2921  001EF2  C018  F00F         	movff	atol@a+2,?_atol+2
  2922  001EF6  C019  F010         	movff	atol@a+3,?_atol+3
  2923  001EFA                     l962:
  2924  001EFA  0012               	return		;funcret
  2925  001EFC                     __end_of_atol:
  2926                           	opt callstack 0
  2927                           
  2928 ;; *************** function _isdigit *****************
  2929 ;; Defined at:
  2930 ;;		line 8 in file "C:\Program Files (x86)\Microchip\xc8\v2.10\pic\sources\c90\common\isdigit.c"
  2931 ;; Parameters:    Size  Location     Type
  2932 ;;  c               1    wreg     unsigned char 
  2933 ;; Auto vars:     Size  Location     Type
  2934 ;;  c               1    2[COMRAM] unsigned char 
  2935 ;; Return value:  Size  Location     Type
  2936 ;;		None               void
  2937 ;; Registers used:
  2938 ;;		wreg, status,2, status,0
  2939 ;; Tracked objects:
  2940 ;;		On entry : 0/0
  2941 ;;		On exit  : 0/0
  2942 ;;		Unchanged: 0/0
  2943 ;; Data sizes:     COMRAM   BANK0   BANK1   BANK2   BANK3   BANK4   BANK5   BANK6   BANK7
  2944 ;;      Params:         0       0       0       0       0       0       0       0       0
  2945 ;;      Locals:         2       0       0       0       0       0       0       0       0
  2946 ;;      Temps:          1       0       0       0       0       0       0       0       0
  2947 ;;      Totals:         3       0       0       0       0       0       0       0       0
  2948 ;;Total ram usage:        3 bytes
  2949 ;; Hardware stack levels used:    1
  2950 ;; This function calls:
  2951 ;;		Nothing
  2952 ;; This function is called by:
  2953 ;;		_atol
  2954 ;; This function uses a non-reentrant model
  2955 ;;
  2956                           
  2957                           	psect	text8
  2958  002490                     __ptext8:
  2959                           	opt callstack 0
  2960  002490                     _isdigit:
  2961                           	opt callstack 29
  2962                           
  2963                           ;incstack = 0
  2964                           ;isdigit@c stored from wreg
  2965  002490  6E03               	movwf	isdigit@c^0,c
  2966  002492  0E00               	movlw	0
  2967  002494  6E02               	movwf	_isdigit$717^0,c
  2968  002496  0E3A               	movlw	58
  2969  002498  6003               	cpfslt	isdigit@c^0,c
  2970  00249A  EF51  F012         	goto	u1601
  2971  00249E  EF53  F012         	goto	u1600
  2972  0024A2                     u1601:
  2973  0024A2  EF5D  F012         	goto	l2175
  2974  0024A6                     u1600:
  2975  0024A6  0E2F               	movlw	47
  2976  0024A8  6403               	cpfsgt	isdigit@c^0,c
  2977  0024AA  EF59  F012         	goto	u1611
  2978  0024AE  EF5B  F012         	goto	u1610
  2979  0024B2                     u1611:
  2980  0024B2  EF5D  F012         	goto	l2175
  2981  0024B6                     u1610:
  2982  0024B6  0E01               	movlw	1
  2983  0024B8  6E02               	movwf	_isdigit$717^0,c
  2984  0024BA                     l2175:
  2985  0024BA  C002  F001         	movff	_isdigit$717,??_isdigit
  2986  0024BE  3001               	rrcf	??_isdigit^0,w,c
  2987  0024C0  0012               	return		;funcret
  2988  0024C2                     __end_of_isdigit:
  2989                           	opt callstack 0
  2990                           
  2991 ;; *************** function ___lmul *****************
  2992 ;; Defined at:
  2993 ;;		line 15 in file "C:\Program Files (x86)\Microchip\xc8\v2.10\pic\sources\c90\common\Umul32.c"
  2994 ;; Parameters:    Size  Location     Type
  2995 ;;  multiplier      4    0[COMRAM] unsigned long 
  2996 ;;  multiplicand    4    4[COMRAM] unsigned long 
  2997 ;; Auto vars:     Size  Location     Type
  2998 ;;  product         4    8[COMRAM] unsigned long 
  2999 ;; Return value:  Size  Location     Type
  3000 ;;                  4    0[COMRAM] unsigned long 
  3001 ;; Registers used:
  3002 ;;		wreg, status,2, status,0
  3003 ;; Tracked objects:
  3004 ;;		On entry : 0/0
  3005 ;;		On exit  : 0/0
  3006 ;;		Unchanged: 0/0
  3007 ;; Data sizes:     COMRAM   BANK0   BANK1   BANK2   BANK3   BANK4   BANK5   BANK6   BANK7
  3008 ;;      Params:         8       0       0       0       0       0       0       0       0
  3009 ;;      Locals:         4       0       0       0       0       0       0       0       0
  3010 ;;      Temps:          0       0       0       0       0       0       0       0       0
  3011 ;;      Totals:        12       0       0       0       0       0       0       0       0
  3012 ;;Total ram usage:       12 bytes
  3013 ;; Hardware stack levels used:    1
  3014 ;; This function calls:
  3015 ;;		Nothing
  3016 ;; This function is called by:
  3017 ;;		_atol
  3018 ;; This function uses a non-reentrant model
  3019 ;;
  3020                           
  3021                           	psect	text9
  3022  0021D6                     __ptext9:
  3023                           	opt callstack 0
  3024  0021D6                     ___lmul:
  3025                           	opt callstack 29
  3026  0021D6  0E00               	movlw	0
  3027  0021D8  6E09               	movwf	___lmul@product^0,c
  3028  0021DA  0E00               	movlw	0
  3029  0021DC  6E0A               	movwf	(___lmul@product+1)^0,c
  3030  0021DE  0E00               	movlw	0
  3031  0021E0  6E0B               	movwf	(___lmul@product+2)^0,c
  3032  0021E2  0E00               	movlw	0
  3033  0021E4  6E0C               	movwf	(___lmul@product+3)^0,c
  3034  0021E6                     l2121:
  3035  0021E6  A001               	btfss	___lmul@multiplier^0,0,c
  3036  0021E8  EFF8  F010         	goto	u1521
  3037  0021EC  EFFA  F010         	goto	u1520
  3038  0021F0                     u1521:
  3039  0021F0  EF02  F011         	goto	l2125
  3040  0021F4                     u1520:
  3041  0021F4  5005               	movf	___lmul@multiplicand^0,w,c
  3042  0021F6  2609               	addwf	___lmul@product^0,f,c
  3043  0021F8  5006               	movf	(___lmul@multiplicand+1)^0,w,c
  3044  0021FA  220A               	addwfc	(___lmul@product+1)^0,f,c
  3045  0021FC  5007               	movf	(___lmul@multiplicand+2)^0,w,c
  3046  0021FE  220B               	addwfc	(___lmul@product+2)^0,f,c
  3047  002200  5008               	movf	(___lmul@multiplicand+3)^0,w,c
  3048  002202  220C               	addwfc	(___lmul@product+3)^0,f,c
  3049  002204                     l2125:
  3050  002204  90D8               	bcf	status,0,c
  3051  002206  3605               	rlcf	___lmul@multiplicand^0,f,c
  3052  002208  3606               	rlcf	(___lmul@multiplicand+1)^0,f,c
  3053  00220A  3607               	rlcf	(___lmul@multiplicand+2)^0,f,c
  3054  00220C  3608               	rlcf	(___lmul@multiplicand+3)^0,f,c
  3055  00220E  90D8               	bcf	status,0,c
  3056  002210  3204               	rrcf	(___lmul@multiplier+3)^0,f,c
  3057  002212  3203               	rrcf	(___lmul@multiplier+2)^0,f,c
  3058  002214  3202               	rrcf	(___lmul@multiplier+1)^0,f,c
  3059  002216  3201               	rrcf	___lmul@multiplier^0,f,c
  3060  002218  5001               	movf	___lmul@multiplier^0,w,c
  3061  00221A  1002               	iorwf	(___lmul@multiplier+1)^0,w,c
  3062  00221C  1003               	iorwf	(___lmul@multiplier+2)^0,w,c
  3063  00221E  1004               	iorwf	(___lmul@multiplier+3)^0,w,c
  3064  002220  A4D8               	btfss	status,2,c
  3065  002222  EF15  F011         	goto	u1531
  3066  002226  EF17  F011         	goto	u1530
  3067  00222A                     u1531:
  3068  00222A  EFF3  F010         	goto	l2121
  3069  00222E                     u1530:
  3070  00222E  C009  F001         	movff	___lmul@product,?___lmul
  3071  002232  C00A  F002         	movff	___lmul@product+1,?___lmul+1
  3072  002236  C00B  F003         	movff	___lmul@product+2,?___lmul+2
  3073  00223A  C00C  F004         	movff	___lmul@product+3,?___lmul+3
  3074  00223E  0012               	return		;funcret
  3075  002240                     __end_of___lmul:
  3076                           	opt callstack 0
  3077                           
  3078 ;; *************** function ___xxtofl *****************
  3079 ;; Defined at:
  3080 ;;		line 10 in file "C:\Program Files (x86)\Microchip\xc8\v2.10\pic\sources\c90\common\xxtofl.c"
  3081 ;; Parameters:    Size  Location     Type
  3082 ;;  sign            1    wreg     unsigned char 
  3083 ;;  val             4   16[COMRAM] long 
  3084 ;; Auto vars:     Size  Location     Type
  3085 ;;  sign            1   24[COMRAM] unsigned char 
  3086 ;;  arg             4   26[COMRAM] unsigned long 
  3087 ;;  exp             1   25[COMRAM] unsigned char 
  3088 ;; Return value:  Size  Location     Type
  3089 ;;                  4   16[COMRAM] unsigned char 
  3090 ;; Registers used:
  3091 ;;		wreg, status,2, status,0
  3092 ;; Tracked objects:
  3093 ;;		On entry : 0/0
  3094 ;;		On exit  : 0/0
  3095 ;;		Unchanged: 0/0
  3096 ;; Data sizes:     COMRAM   BANK0   BANK1   BANK2   BANK3   BANK4   BANK5   BANK6   BANK7
  3097 ;;      Params:         4       0       0       0       0       0       0       0       0
  3098 ;;      Locals:         6       0       0       0       0       0       0       0       0
  3099 ;;      Temps:          4       0       0       0       0       0       0       0       0
  3100 ;;      Totals:        14       0       0       0       0       0       0       0       0
  3101 ;;Total ram usage:       14 bytes
  3102 ;; Hardware stack levels used:    1
  3103 ;; This function calls:
  3104 ;;		Nothing
  3105 ;; This function is called by:
  3106 ;;		_main
  3107 ;; This function uses a non-reentrant model
  3108 ;;
  3109                           
  3110                           	psect	text10
  3111  001A6E                     __ptext10:
  3112                           	opt callstack 0
  3113  001A6E                     ___xxtofl:
  3114                           	opt callstack 30
  3115                           
  3116                           ;incstack = 0
  3117                           ;___xxtofl@sign stored from wreg
  3118  001A6E  6E19               	movwf	___xxtofl@sign^0,c
  3119  001A70  5019               	movf	___xxtofl@sign^0,w,c
  3120  001A72  B4D8               	btfsc	status,2,c
  3121  001A74  EF3E  F00D         	goto	u2711
  3122  001A78  EF40  F00D         	goto	u2710
  3123  001A7C                     u2711:
  3124  001A7C  EF62  F00D         	goto	l932
  3125  001A80                     u2710:
  3126  001A80  BE14               	btfsc	(___xxtofl@val+3)^0,7,c
  3127  001A82  EF47  F00D         	goto	u2720
  3128  001A86  EF45  F00D         	goto	u2721
  3129  001A8A                     u2721:
  3130  001A8A  EF62  F00D         	goto	l932
  3131  001A8E                     u2720:
  3132  001A8E  C011  F015         	movff	___xxtofl@val,??___xxtofl
  3133  001A92  C012  F016         	movff	___xxtofl@val+1,??___xxtofl+1
  3134  001A96  C013  F017         	movff	___xxtofl@val+2,??___xxtofl+2
  3135  001A9A  C014  F018         	movff	___xxtofl@val+3,??___xxtofl+3
  3136  001A9E  1E15               	comf	??___xxtofl^0,f,c
  3137  001AA0  1E16               	comf	(??___xxtofl+1)^0,f,c
  3138  001AA2  1E17               	comf	(??___xxtofl+2)^0,f,c
  3139  001AA4  1E18               	comf	(??___xxtofl+3)^0,f,c
  3140  001AA6  2A15               	incf	??___xxtofl^0,f,c
  3141  001AA8  0E00               	movlw	0
  3142  001AAA  2216               	addwfc	(??___xxtofl+1)^0,f,c
  3143  001AAC  2217               	addwfc	(??___xxtofl+2)^0,f,c
  3144  001AAE  2218               	addwfc	(??___xxtofl+3)^0,f,c
  3145  001AB0  C015  F01B         	movff	??___xxtofl,___xxtofl@arg
  3146  001AB4  C016  F01C         	movff	??___xxtofl+1,___xxtofl@arg+1
  3147  001AB8  C017  F01D         	movff	??___xxtofl+2,___xxtofl@arg+2
  3148  001ABC  C018  F01E         	movff	??___xxtofl+3,___xxtofl@arg+3
  3149  001AC0  EF6A  F00D         	goto	l2863
  3150  001AC4                     l932:
  3151  001AC4  C011  F01B         	movff	___xxtofl@val,___xxtofl@arg
  3152  001AC8  C012  F01C         	movff	___xxtofl@val+1,___xxtofl@arg+1
  3153  001ACC  C013  F01D         	movff	___xxtofl@val+2,___xxtofl@arg+2
  3154  001AD0  C014  F01E         	movff	___xxtofl@val+3,___xxtofl@arg+3
  3155  001AD4                     l2863:
  3156  001AD4  5011               	movf	___xxtofl@val^0,w,c
  3157  001AD6  1012               	iorwf	(___xxtofl@val+1)^0,w,c
  3158  001AD8  1013               	iorwf	(___xxtofl@val+2)^0,w,c
  3159  001ADA  1014               	iorwf	(___xxtofl@val+3)^0,w,c
  3160  001ADC  A4D8               	btfss	status,2,c
  3161  001ADE  EF73  F00D         	goto	u2731
  3162  001AE2  EF75  F00D         	goto	u2730
  3163  001AE6                     u2731:
  3164  001AE6  EF7F  F00D         	goto	l2869
  3165  001AEA                     u2730:
  3166  001AEA  0E00               	movlw	0
  3167  001AEC  6E11               	movwf	?___xxtofl^0,c
  3168  001AEE  0E00               	movlw	0
  3169  001AF0  6E12               	movwf	(?___xxtofl+1)^0,c
  3170  001AF2  0E00               	movlw	0
  3171  001AF4  6E13               	movwf	(?___xxtofl+2)^0,c
  3172  001AF6  0E00               	movlw	0
  3173  001AF8  6E14               	movwf	(?___xxtofl+3)^0,c
  3174  001AFA  EF10  F00E         	goto	l935
  3175  001AFE                     l2869:
  3176  001AFE  0E96               	movlw	150
  3177  001B00  6E1A               	movwf	___xxtofl@exp^0,c
  3178  001B02  EF89  F00D         	goto	l2873
  3179  001B06                     l2871:
  3180  001B06  2A1A               	incf	___xxtofl@exp^0,f,c
  3181  001B08  90D8               	bcf	status,0,c
  3182  001B0A  321E               	rrcf	(___xxtofl@arg+3)^0,f,c
  3183  001B0C  321D               	rrcf	(___xxtofl@arg+2)^0,f,c
  3184  001B0E  321C               	rrcf	(___xxtofl@arg+1)^0,f,c
  3185  001B10  321B               	rrcf	___xxtofl@arg^0,f,c
  3186  001B12                     l2873:
  3187  001B12  0E00               	movlw	0
  3188  001B14  141B               	andwf	___xxtofl@arg^0,w,c
  3189  001B16  6E15               	movwf	??___xxtofl^0,c
  3190  001B18  0E00               	movlw	0
  3191  001B1A  141C               	andwf	(___xxtofl@arg+1)^0,w,c
  3192  001B1C  6E16               	movwf	(??___xxtofl+1)^0,c
  3193  001B1E  0E00               	movlw	0
  3194  001B20  141D               	andwf	(___xxtofl@arg+2)^0,w,c
  3195  001B22  6E17               	movwf	(??___xxtofl+2)^0,c
  3196  001B24  0EFE               	movlw	254
  3197  001B26  141E               	andwf	(___xxtofl@arg+3)^0,w,c
  3198  001B28  6E18               	movwf	(??___xxtofl+3)^0,c
  3199  001B2A  5015               	movf	??___xxtofl^0,w,c
  3200  001B2C  1016               	iorwf	(??___xxtofl+1)^0,w,c
  3201  001B2E  1017               	iorwf	(??___xxtofl+2)^0,w,c
  3202  001B30  1018               	iorwf	(??___xxtofl+3)^0,w,c
  3203  001B32  A4D8               	btfss	status,2,c
  3204  001B34  EF9E  F00D         	goto	u2741
  3205  001B38  EFA0  F00D         	goto	u2740
  3206  001B3C                     u2741:
  3207  001B3C  EF83  F00D         	goto	l2871
  3208  001B40                     u2740:
  3209  001B40  EFAE  F00D         	goto	l939
  3210  001B44                     l2875:
  3211  001B44  2A1A               	incf	___xxtofl@exp^0,f,c
  3212  001B46  0E01               	movlw	1
  3213  001B48  261B               	addwf	___xxtofl@arg^0,f,c
  3214  001B4A  0E00               	movlw	0
  3215  001B4C  221C               	addwfc	(___xxtofl@arg+1)^0,f,c
  3216  001B4E  221D               	addwfc	(___xxtofl@arg+2)^0,f,c
  3217  001B50  221E               	addwfc	(___xxtofl@arg+3)^0,f,c
  3218  001B52  90D8               	bcf	status,0,c
  3219  001B54  321E               	rrcf	(___xxtofl@arg+3)^0,f,c
  3220  001B56  321D               	rrcf	(___xxtofl@arg+2)^0,f,c
  3221  001B58  321C               	rrcf	(___xxtofl@arg+1)^0,f,c
  3222  001B5A  321B               	rrcf	___xxtofl@arg^0,f,c
  3223  001B5C                     l939:
  3224  001B5C  0E00               	movlw	0
  3225  001B5E  141B               	andwf	___xxtofl@arg^0,w,c
  3226  001B60  6E15               	movwf	??___xxtofl^0,c
  3227  001B62  0E00               	movlw	0
  3228  001B64  141C               	andwf	(___xxtofl@arg+1)^0,w,c
  3229  001B66  6E16               	movwf	(??___xxtofl+1)^0,c
  3230  001B68  0E00               	movlw	0
  3231  001B6A  141D               	andwf	(___xxtofl@arg+2)^0,w,c
  3232  001B6C  6E17               	movwf	(??___xxtofl+2)^0,c
  3233  001B6E  0EFF               	movlw	255
  3234  001B70  141E               	andwf	(___xxtofl@arg+3)^0,w,c
  3235  001B72  6E18               	movwf	(??___xxtofl+3)^0,c
  3236  001B74  5015               	movf	??___xxtofl^0,w,c
  3237  001B76  1016               	iorwf	(??___xxtofl+1)^0,w,c
  3238  001B78  1017               	iorwf	(??___xxtofl+2)^0,w,c
  3239  001B7A  1018               	iorwf	(??___xxtofl+3)^0,w,c
  3240  001B7C  A4D8               	btfss	status,2,c
  3241  001B7E  EFC3  F00D         	goto	u2751
  3242  001B82  EFC5  F00D         	goto	u2750
  3243  001B86                     u2751:
  3244  001B86  EFA2  F00D         	goto	l2875
  3245  001B8A                     u2750:
  3246  001B8A  EFCD  F00D         	goto	l2883
  3247  001B8E                     l2881:
  3248  001B8E  061A               	decf	___xxtofl@exp^0,f,c
  3249  001B90  90D8               	bcf	status,0,c
  3250  001B92  361B               	rlcf	___xxtofl@arg^0,f,c
  3251  001B94  361C               	rlcf	(___xxtofl@arg+1)^0,f,c
  3252  001B96  361D               	rlcf	(___xxtofl@arg+2)^0,f,c
  3253  001B98  361E               	rlcf	(___xxtofl@arg+3)^0,f,c
  3254  001B9A                     l2883:
  3255  001B9A  BE1D               	btfsc	(___xxtofl@arg+2)^0,7,c
  3256  001B9C  EFD2  F00D         	goto	u2761
  3257  001BA0  EFD4  F00D         	goto	u2760
  3258  001BA4                     u2761:
  3259  001BA4  EFDC  F00D         	goto	l946
  3260  001BA8                     u2760:
  3261  001BA8  0E02               	movlw	2
  3262  001BAA  601A               	cpfslt	___xxtofl@exp^0,c
  3263  001BAC  EFDA  F00D         	goto	u2771
  3264  001BB0  EFDC  F00D         	goto	u2770
  3265  001BB4                     u2771:
  3266  001BB4  EFC7  F00D         	goto	l2881
  3267  001BB8                     u2770:
  3268  001BB8                     l946:
  3269  001BB8  B01A               	btfsc	___xxtofl@exp^0,0,c
  3270  001BBA  EFE1  F00D         	goto	u2781
  3271  001BBE  EFE3  F00D         	goto	u2780
  3272  001BC2                     u2781:
  3273  001BC2  EFE4  F00D         	goto	l2889
  3274  001BC6                     u2780:
  3275  001BC6  9E1D               	bcf	(___xxtofl@arg+2)^0,7,c
  3276  001BC8                     l2889:
  3277  001BC8  90D8               	bcf	status,0,c
  3278  001BCA  321A               	rrcf	___xxtofl@exp^0,f,c
  3279  001BCC  C01A  F015         	movff	___xxtofl@exp,??___xxtofl
  3280  001BD0  6A16               	clrf	(??___xxtofl+1)^0,c
  3281  001BD2  6A17               	clrf	(??___xxtofl+2)^0,c
  3282  001BD4  6A18               	clrf	(??___xxtofl+3)^0,c
  3283  001BD6  C015  F018         	movff	??___xxtofl,??___xxtofl+3
  3284  001BDA  6A17               	clrf	(??___xxtofl+2)^0,c
  3285  001BDC  6A16               	clrf	(??___xxtofl+1)^0,c
  3286  001BDE  6A15               	clrf	??___xxtofl^0,c
  3287  001BE0  5015               	movf	??___xxtofl^0,w,c
  3288  001BE2  121B               	iorwf	___xxtofl@arg^0,f,c
  3289  001BE4  5016               	movf	(??___xxtofl+1)^0,w,c
  3290  001BE6  121C               	iorwf	(___xxtofl@arg+1)^0,f,c
  3291  001BE8  5017               	movf	(??___xxtofl+2)^0,w,c
  3292  001BEA  121D               	iorwf	(___xxtofl@arg+2)^0,f,c
  3293  001BEC  5018               	movf	(??___xxtofl+3)^0,w,c
  3294  001BEE  121E               	iorwf	(___xxtofl@arg+3)^0,f,c
  3295  001BF0  5019               	movf	___xxtofl@sign^0,w,c
  3296  001BF2  B4D8               	btfsc	status,2,c
  3297  001BF4  EFFE  F00D         	goto	u2791
  3298  001BF8  EF00  F00E         	goto	u2790
  3299  001BFC                     u2791:
  3300  001BFC  EF08  F00E         	goto	l2899
  3301  001C00                     u2790:
  3302  001C00  BE14               	btfsc	(___xxtofl@val+3)^0,7,c
  3303  001C02  EF07  F00E         	goto	u2800
  3304  001C06  EF05  F00E         	goto	u2801
  3305  001C0A                     u2801:
  3306  001C0A  EF08  F00E         	goto	l2899
  3307  001C0E                     u2800:
  3308  001C0E  8E1E               	bsf	(___xxtofl@arg+3)^0,7,c
  3309  001C10                     l2899:
  3310  001C10  C01B  F011         	movff	___xxtofl@arg,?___xxtofl
  3311  001C14  C01C  F012         	movff	___xxtofl@arg+1,?___xxtofl+1
  3312  001C18  C01D  F013         	movff	___xxtofl@arg+2,?___xxtofl+2
  3313  001C1C  C01E  F014         	movff	___xxtofl@arg+3,?___xxtofl+3
  3314  001C20                     l935:
  3315  001C20  0012               	return		;funcret
  3316  001C22                     __end_of___xxtofl:
  3317                           	opt callstack 0
  3318                           
  3319 ;; *************** function ___fltol *****************
  3320 ;; Defined at:
  3321 ;;		line 43 in file "C:\Program Files (x86)\Microchip\xc8\v2.10\pic\sources\c90\common\fltol.c"
  3322 ;; Parameters:    Size  Location     Type
  3323 ;;  f1              4    0[COMRAM] unsigned char 
  3324 ;; Auto vars:     Size  Location     Type
  3325 ;;  exp1            1    9[COMRAM] unsigned char 
  3326 ;;  sign1           1    8[COMRAM] unsigned char 
  3327 ;; Return value:  Size  Location     Type
  3328 ;;                  4    0[COMRAM] long 
  3329 ;; Registers used:
  3330 ;;		wreg, status,2, status,0
  3331 ;; Tracked objects:
  3332 ;;		On entry : 0/0
  3333 ;;		On exit  : 0/0
  3334 ;;		Unchanged: 0/0
  3335 ;; Data sizes:     COMRAM   BANK0   BANK1   BANK2   BANK3   BANK4   BANK5   BANK6   BANK7
  3336 ;;      Params:         4       0       0       0       0       0       0       0       0
  3337 ;;      Locals:         2       0       0       0       0       0       0       0       0
  3338 ;;      Temps:          4       0       0       0       0       0       0       0       0
  3339 ;;      Totals:        10       0       0       0       0       0       0       0       0
  3340 ;;Total ram usage:       10 bytes
  3341 ;; Hardware stack levels used:    1
  3342 ;; This function calls:
  3343 ;;		Nothing
  3344 ;; This function is called by:
  3345 ;;		_main
  3346 ;; This function uses a non-reentrant model
  3347 ;;
  3348                           
  3349                           	psect	text11
  3350  001EFC                     __ptext11:
  3351                           	opt callstack 0
  3352  001EFC                     ___fltol:
  3353                           	opt callstack 30
  3354  001EFC  3403               	rlcf	(___fltol@f1+2)^0,w,c
  3355  001EFE  3404               	rlcf	(___fltol@f1+3)^0,w,c
  3356  001F00  6E0A               	movwf	___fltol@exp1^0,c
  3357  001F02  500A               	movf	___fltol@exp1^0,w,c
  3358  001F04  A4D8               	btfss	status,2,c
  3359  001F06  EF87  F00F         	goto	u2641
  3360  001F0A  EF89  F00F         	goto	u2640
  3361  001F0E                     u2641:
  3362  001F0E  EF93  F00F         	goto	l2819
  3363  001F12                     u2640:
  3364  001F12                     l2815:
  3365  001F12  0E00               	movlw	0
  3366  001F14  6E01               	movwf	?___fltol^0,c
  3367  001F16  0E00               	movlw	0
  3368  001F18  6E02               	movwf	(?___fltol+1)^0,c
  3369  001F1A  0E00               	movlw	0
  3370  001F1C  6E03               	movwf	(?___fltol+2)^0,c
  3371  001F1E  0E00               	movlw	0
  3372  001F20  6E04               	movwf	(?___fltol+3)^0,c
  3373  001F22  EF00  F010         	goto	l578
  3374  001F26                     l2819:
  3375  001F26  C001  F005         	movff	___fltol@f1,??___fltol
  3376  001F2A  C002  F006         	movff	___fltol@f1+1,??___fltol+1
  3377  001F2E  C003  F007         	movff	___fltol@f1+2,??___fltol+2
  3378  001F32  C004  F008         	movff	___fltol@f1+3,??___fltol+3
  3379  001F36  0E20               	movlw	32
  3380  001F38  EFA3  F00F         	goto	u2650
  3381  001F3C                     u2655:
  3382  001F3C  90D8               	bcf	status,0,c
  3383  001F3E  3208               	rrcf	(??___fltol+3)^0,f,c
  3384  001F40  3207               	rrcf	(??___fltol+2)^0,f,c
  3385  001F42  3206               	rrcf	(??___fltol+1)^0,f,c
  3386  001F44  3205               	rrcf	??___fltol^0,f,c
  3387  001F46                     u2650:
  3388  001F46  2EE8               	decfsz	wreg,f,c
  3389  001F48  EF9E  F00F         	goto	u2655
  3390  001F4C  5005               	movf	??___fltol^0,w,c
  3391  001F4E  6E09               	movwf	___fltol@sign1^0,c
  3392  001F50  8E03               	bsf	(___fltol@f1+2)^0,7,c
  3393  001F52  0EFF               	movlw	255
  3394  001F54  1601               	andwf	___fltol@f1^0,f,c
  3395  001F56  0EFF               	movlw	255
  3396  001F58  1602               	andwf	(___fltol@f1+1)^0,f,c
  3397  001F5A  0EFF               	movlw	255
  3398  001F5C  1603               	andwf	(___fltol@f1+2)^0,f,c
  3399  001F5E  0E00               	movlw	0
  3400  001F60  1604               	andwf	(___fltol@f1+3)^0,f,c
  3401  001F62  0E96               	movlw	150
  3402  001F64  5E0A               	subwf	___fltol@exp1^0,f,c
  3403  001F66  BE0A               	btfsc	___fltol@exp1^0,7,c
  3404  001F68  EFBA  F00F         	goto	u2660
  3405  001F6C  EFB8  F00F         	goto	u2661
  3406  001F70                     u2661:
  3407  001F70  EFD0  F00F         	goto	l2839
  3408  001F74                     u2660:
  3409  001F74  500A               	movf	___fltol@exp1^0,w,c
  3410  001F76  0A80               	xorlw	128
  3411  001F78  0F97               	addlw	151
  3412  001F7A  B0D8               	btfsc	status,0,c
  3413  001F7C  EFC2  F00F         	goto	u2671
  3414  001F80  EFC4  F00F         	goto	u2670
  3415  001F84                     u2671:
  3416  001F84  EFC6  F00F         	goto	l2835
  3417  001F88                     u2670:
  3418  001F88  EF89  F00F         	goto	l2815
  3419  001F8C                     l2835:
  3420  001F8C  90D8               	bcf	status,0,c
  3421  001F8E  3204               	rrcf	(___fltol@f1+3)^0,f,c
  3422  001F90  3203               	rrcf	(___fltol@f1+2)^0,f,c
  3423  001F92  3202               	rrcf	(___fltol@f1+1)^0,f,c
  3424  001F94  3201               	rrcf	___fltol@f1^0,f,c
  3425  001F96  3E0A               	incfsz	___fltol@exp1^0,f,c
  3426  001F98  EFC6  F00F         	goto	l2835
  3427  001F9C  EFE8  F00F         	goto	l2849
  3428  001FA0                     l2839:
  3429  001FA0  0E1F               	movlw	31
  3430  001FA2  640A               	cpfsgt	___fltol@exp1^0,c
  3431  001FA4  EFD6  F00F         	goto	u2681
  3432  001FA8  EFD8  F00F         	goto	u2680
  3433  001FAC                     u2681:
  3434  001FAC  EFE0  F00F         	goto	l2847
  3435  001FB0                     u2680:
  3436  001FB0  EF89  F00F         	goto	l2815
  3437  001FB4                     l2845:
  3438  001FB4  90D8               	bcf	status,0,c
  3439  001FB6  3601               	rlcf	___fltol@f1^0,f,c
  3440  001FB8  3602               	rlcf	(___fltol@f1+1)^0,f,c
  3441  001FBA  3603               	rlcf	(___fltol@f1+2)^0,f,c
  3442  001FBC  3604               	rlcf	(___fltol@f1+3)^0,f,c
  3443  001FBE  060A               	decf	___fltol@exp1^0,f,c
  3444  001FC0                     l2847:
  3445  001FC0  500A               	movf	___fltol@exp1^0,w,c
  3446  001FC2  A4D8               	btfss	status,2,c
  3447  001FC4  EFE6  F00F         	goto	u2691
  3448  001FC8  EFE8  F00F         	goto	u2690
  3449  001FCC                     u2691:
  3450  001FCC  EFDA  F00F         	goto	l2845
  3451  001FD0                     u2690:
  3452  001FD0                     l2849:
  3453  001FD0  5009               	movf	___fltol@sign1^0,w,c
  3454  001FD2  B4D8               	btfsc	status,2,c
  3455  001FD4  EFEE  F00F         	goto	u2701
  3456  001FD8  EFF0  F00F         	goto	u2700
  3457  001FDC                     u2701:
  3458  001FDC  EFF8  F00F         	goto	l2853
  3459  001FE0                     u2700:
  3460  001FE0  1E04               	comf	(___fltol@f1+3)^0,f,c
  3461  001FE2  1E03               	comf	(___fltol@f1+2)^0,f,c
  3462  001FE4  1E02               	comf	(___fltol@f1+1)^0,f,c
  3463  001FE6  6C01               	negf	___fltol@f1^0,c
  3464  001FE8  0E00               	movlw	0
  3465  001FEA  2202               	addwfc	(___fltol@f1+1)^0,f,c
  3466  001FEC  2203               	addwfc	(___fltol@f1+2)^0,f,c
  3467  001FEE  2204               	addwfc	(___fltol@f1+3)^0,f,c
  3468  001FF0                     l2853:
  3469  001FF0  C001  F001         	movff	___fltol@f1,?___fltol
  3470  001FF4  C002  F002         	movff	___fltol@f1+1,?___fltol+1
  3471  001FF8  C003  F003         	movff	___fltol@f1+2,?___fltol+2
  3472  001FFC  C004  F004         	movff	___fltol@f1+3,?___fltol+3
  3473  002000                     l578:
  3474  002000  0012               	return		;funcret
  3475  002002                     __end_of___fltol:
  3476                           	opt callstack 0
  3477                           
  3478 ;; *************** function ___flmul *****************
  3479 ;; Defined at:
  3480 ;;		line 8 in file "C:\Program Files (x86)\Microchip\xc8\v2.10\pic\sources\c90\common\sprcmul.c"
  3481 ;; Parameters:    Size  Location     Type
  3482 ;;  b               4   30[COMRAM] long 
  3483 ;;  a               4   34[COMRAM] long 
  3484 ;; Auto vars:     Size  Location     Type
  3485 ;;  prod            4   49[COMRAM] struct .
  3486 ;;  grs             4   43[COMRAM] unsigned long 
  3487 ;;  temp            2   53[COMRAM] struct .
  3488 ;;  bexp            1   48[COMRAM] unsigned char 
  3489 ;;  aexp            1   47[COMRAM] unsigned char 
  3490 ;;  sign            1   42[COMRAM] unsigned char 
  3491 ;; Return value:  Size  Location     Type
  3492 ;;                  4   30[COMRAM] unsigned char 
  3493 ;; Registers used:
  3494 ;;		wreg, status,2, status,0, prodl, prodh
  3495 ;; Tracked objects:
  3496 ;;		On entry : 0/0
  3497 ;;		On exit  : 0/0
  3498 ;;		Unchanged: 0/0
  3499 ;; Data sizes:     COMRAM   BANK0   BANK1   BANK2   BANK3   BANK4   BANK5   BANK6   BANK7
  3500 ;;      Params:         8       0       0       0       0       0       0       0       0
  3501 ;;      Locals:        13       0       0       0       0       0       0       0       0
  3502 ;;      Temps:          4       0       0       0       0       0       0       0       0
  3503 ;;      Totals:        25       0       0       0       0       0       0       0       0
  3504 ;;Total ram usage:       25 bytes
  3505 ;; Hardware stack levels used:    1
  3506 ;; This function calls:
  3507 ;;		Nothing
  3508 ;; This function is called by:
  3509 ;;		_main
  3510 ;; This function uses a non-reentrant model
  3511 ;;
  3512                           
  3513                           	psect	text12
  3514  000DFE                     __ptext12:
  3515                           	opt callstack 0
  3516  000DFE                     ___flmul:
  3517                           	opt callstack 30
  3518  000DFE  5022               	movf	(___flmul@b+3)^0,w,c
  3519  000E00  0B80               	andlw	128
  3520  000E02  6E2B               	movwf	___flmul@sign^0,c
  3521  000E04  5022               	movf	(___flmul@b+3)^0,w,c
  3522  000E06  2422               	addwf	(___flmul@b+3)^0,w,c
  3523  000E08  6E31               	movwf	___flmul@bexp^0,c
  3524  000E0A  AE21               	btfss	(___flmul@b+2)^0,7,c
  3525  000E0C  EF0A  F007         	goto	u2391
  3526  000E10  EF0C  F007         	goto	u2390
  3527  000E14                     u2391:
  3528  000E14  EF0D  F007         	goto	l2645
  3529  000E18                     u2390:
  3530  000E18  8031               	bsf	___flmul@bexp^0,0,c
  3531  000E1A                     l2645:
  3532  000E1A  5031               	movf	___flmul@bexp^0,w,c
  3533  000E1C  B4D8               	btfsc	status,2,c
  3534  000E1E  EF13  F007         	goto	u2401
  3535  000E22  EF15  F007         	goto	u2400
  3536  000E26                     u2401:
  3537  000E26  EF28  F007         	goto	l2653
  3538  000E2A                     u2400:
  3539  000E2A  2831               	incf	___flmul@bexp^0,w,c
  3540  000E2C  A4D8               	btfss	status,2,c
  3541  000E2E  EF1B  F007         	goto	u2411
  3542  000E32  EF1D  F007         	goto	u2410
  3543  000E36                     u2411:
  3544  000E36  EF25  F007         	goto	l2651
  3545  000E3A                     u2410:
  3546  000E3A  0E00               	movlw	0
  3547  000E3C  6E1F               	movwf	___flmul@b^0,c
  3548  000E3E  0E00               	movlw	0
  3549  000E40  6E20               	movwf	(___flmul@b+1)^0,c
  3550  000E42  0E00               	movlw	0
  3551  000E44  6E21               	movwf	(___flmul@b+2)^0,c
  3552  000E46  0E00               	movlw	0
  3553  000E48  6E22               	movwf	(___flmul@b+3)^0,c
  3554  000E4A                     l2651:
  3555  000E4A  8E21               	bsf	(___flmul@b+2)^0,7,c
  3556  000E4C  EF30  F007         	goto	l2655
  3557  000E50                     l2653:
  3558  000E50  0E00               	movlw	0
  3559  000E52  6E1F               	movwf	___flmul@b^0,c
  3560  000E54  0E00               	movlw	0
  3561  000E56  6E20               	movwf	(___flmul@b+1)^0,c
  3562  000E58  0E00               	movlw	0
  3563  000E5A  6E21               	movwf	(___flmul@b+2)^0,c
  3564  000E5C  0E00               	movlw	0
  3565  000E5E  6E22               	movwf	(___flmul@b+3)^0,c
  3566  000E60                     l2655:
  3567  000E60  5026               	movf	(___flmul@a+3)^0,w,c
  3568  000E62  0B80               	andlw	128
  3569  000E64  1A2B               	xorwf	___flmul@sign^0,f,c
  3570  000E66  5026               	movf	(___flmul@a+3)^0,w,c
  3571  000E68  2426               	addwf	(___flmul@a+3)^0,w,c
  3572  000E6A  6E30               	movwf	___flmul@aexp^0,c
  3573  000E6C  AE25               	btfss	(___flmul@a+2)^0,7,c
  3574  000E6E  EF3B  F007         	goto	u2421
  3575  000E72  EF3D  F007         	goto	u2420
  3576  000E76                     u2421:
  3577  000E76  EF3E  F007         	goto	l2663
  3578  000E7A                     u2420:
  3579  000E7A  8030               	bsf	___flmul@aexp^0,0,c
  3580  000E7C                     l2663:
  3581  000E7C  5030               	movf	___flmul@aexp^0,w,c
  3582  000E7E  B4D8               	btfsc	status,2,c
  3583  000E80  EF44  F007         	goto	u2431
  3584  000E84  EF46  F007         	goto	u2430
  3585  000E88                     u2431:
  3586  000E88  EF59  F007         	goto	l2671
  3587  000E8C                     u2430:
  3588  000E8C  2830               	incf	___flmul@aexp^0,w,c
  3589  000E8E  A4D8               	btfss	status,2,c
  3590  000E90  EF4C  F007         	goto	u2441
  3591  000E94  EF4E  F007         	goto	u2440
  3592  000E98                     u2441:
  3593  000E98  EF56  F007         	goto	l2669
  3594  000E9C                     u2440:
  3595  000E9C  0E00               	movlw	0
  3596  000E9E  6E23               	movwf	___flmul@a^0,c
  3597  000EA0  0E00               	movlw	0
  3598  000EA2  6E24               	movwf	(___flmul@a+1)^0,c
  3599  000EA4  0E00               	movlw	0
  3600  000EA6  6E25               	movwf	(___flmul@a+2)^0,c
  3601  000EA8  0E00               	movlw	0
  3602  000EAA  6E26               	movwf	(___flmul@a+3)^0,c
  3603  000EAC                     l2669:
  3604  000EAC  8E25               	bsf	(___flmul@a+2)^0,7,c
  3605  000EAE  EF61  F007         	goto	l891
  3606  000EB2                     l2671:
  3607  000EB2  0E00               	movlw	0
  3608  000EB4  6E23               	movwf	___flmul@a^0,c
  3609  000EB6  0E00               	movlw	0
  3610  000EB8  6E24               	movwf	(___flmul@a+1)^0,c
  3611  000EBA  0E00               	movlw	0
  3612  000EBC  6E25               	movwf	(___flmul@a+2)^0,c
  3613  000EBE  0E00               	movlw	0
  3614  000EC0  6E26               	movwf	(___flmul@a+3)^0,c
  3615  000EC2                     l891:
  3616  000EC2  5030               	movf	___flmul@aexp^0,w,c
  3617  000EC4  B4D8               	btfsc	status,2,c
  3618  000EC6  EF67  F007         	goto	u2451
  3619  000ECA  EF69  F007         	goto	u2450
  3620  000ECE                     u2451:
  3621  000ECE  EF71  F007         	goto	l2675
  3622  000ED2                     u2450:
  3623  000ED2  5031               	movf	___flmul@bexp^0,w,c
  3624  000ED4  A4D8               	btfss	status,2,c
  3625  000ED6  EF6F  F007         	goto	u2461
  3626  000EDA  EF71  F007         	goto	u2460
  3627  000EDE                     u2461:
  3628  000EDE  EF7B  F007         	goto	l2679
  3629  000EE2                     u2460:
  3630  000EE2                     l2675:
  3631  000EE2  0E00               	movlw	0
  3632  000EE4  6E1F               	movwf	?___flmul^0,c
  3633  000EE6  0E00               	movlw	0
  3634  000EE8  6E20               	movwf	(?___flmul+1)^0,c
  3635  000EEA  0E00               	movlw	0
  3636  000EEC  6E21               	movwf	(?___flmul+2)^0,c
  3637  000EEE  0E00               	movlw	0
  3638  000EF0  6E22               	movwf	(?___flmul+3)^0,c
  3639  000EF2  EF13  F009         	goto	l895
  3640  000EF6                     l2679:
  3641  000EF6  5025               	movf	(___flmul@a+2)^0,w,c
  3642  000EF8  021F               	mulwf	___flmul@b^0,c
  3643  000EFA  CFF3 F036          	movff	prodl,___flmul@temp
  3644  000EFE  CFF4 F037          	movff	prodh,___flmul@temp+1
  3645  000F02  5036               	movf	___flmul@temp^0,w,c
  3646  000F04  6E2C               	movwf	___flmul@grs^0,c
  3647  000F06  6A2D               	clrf	(___flmul@grs+1)^0,c
  3648  000F08  6A2E               	clrf	(___flmul@grs+2)^0,c
  3649  000F0A  6A2F               	clrf	(___flmul@grs+3)^0,c
  3650  000F0C  5037               	movf	(___flmul@temp+1)^0,w,c
  3651  000F0E  6E32               	movwf	___flmul@prod^0,c
  3652  000F10  6A33               	clrf	(___flmul@prod+1)^0,c
  3653  000F12  6A34               	clrf	(___flmul@prod+2)^0,c
  3654  000F14  6A35               	clrf	(___flmul@prod+3)^0,c
  3655  000F16  5024               	movf	(___flmul@a+1)^0,w,c
  3656  000F18  0220               	mulwf	(___flmul@b+1)^0,c
  3657  000F1A  CFF3 F036          	movff	prodl,___flmul@temp
  3658  000F1E  CFF4 F037          	movff	prodh,___flmul@temp+1
  3659  000F22  5036               	movf	___flmul@temp^0,w,c
  3660  000F24  262C               	addwf	___flmul@grs^0,f,c
  3661  000F26  0E00               	movlw	0
  3662  000F28  222D               	addwfc	(___flmul@grs+1)^0,f,c
  3663  000F2A  222E               	addwfc	(___flmul@grs+2)^0,f,c
  3664  000F2C  222F               	addwfc	(___flmul@grs+3)^0,f,c
  3665  000F2E  5037               	movf	(___flmul@temp+1)^0,w,c
  3666  000F30  2632               	addwf	___flmul@prod^0,f,c
  3667  000F32  0E00               	movlw	0
  3668  000F34  2233               	addwfc	(___flmul@prod+1)^0,f,c
  3669  000F36  2234               	addwfc	(___flmul@prod+2)^0,f,c
  3670  000F38  2235               	addwfc	(___flmul@prod+3)^0,f,c
  3671  000F3A  5023               	movf	___flmul@a^0,w,c
  3672  000F3C  0221               	mulwf	(___flmul@b+2)^0,c
  3673  000F3E  CFF3 F036          	movff	prodl,___flmul@temp
  3674  000F42  CFF4 F037          	movff	prodh,___flmul@temp+1
  3675  000F46  5036               	movf	___flmul@temp^0,w,c
  3676  000F48  262C               	addwf	___flmul@grs^0,f,c
  3677  000F4A  0E00               	movlw	0
  3678  000F4C  222D               	addwfc	(___flmul@grs+1)^0,f,c
  3679  000F4E  222E               	addwfc	(___flmul@grs+2)^0,f,c
  3680  000F50  222F               	addwfc	(___flmul@grs+3)^0,f,c
  3681  000F52  5037               	movf	(___flmul@temp+1)^0,w,c
  3682  000F54  2632               	addwf	___flmul@prod^0,f,c
  3683  000F56  0E00               	movlw	0
  3684  000F58  2233               	addwfc	(___flmul@prod+1)^0,f,c
  3685  000F5A  2234               	addwfc	(___flmul@prod+2)^0,f,c
  3686  000F5C  2235               	addwfc	(___flmul@prod+3)^0,f,c
  3687  000F5E  C02E  F02F         	movff	___flmul@grs+2,___flmul@grs+3
  3688  000F62  C02D  F02E         	movff	___flmul@grs+1,___flmul@grs+2
  3689  000F66  C02C  F02D         	movff	___flmul@grs,___flmul@grs+1
  3690  000F6A  6A2C               	clrf	___flmul@grs^0,c
  3691  000F6C  5023               	movf	___flmul@a^0,w,c
  3692  000F6E  0220               	mulwf	(___flmul@b+1)^0,c
  3693  000F70  CFF3 F036          	movff	prodl,___flmul@temp
  3694  000F74  CFF4 F037          	movff	prodh,___flmul@temp+1
  3695  000F78  5036               	movf	___flmul@temp^0,w,c
  3696  000F7A  262C               	addwf	___flmul@grs^0,f,c
  3697  000F7C  5037               	movf	(___flmul@temp+1)^0,w,c
  3698  000F7E  222D               	addwfc	(___flmul@grs+1)^0,f,c
  3699  000F80  0E00               	movlw	0
  3700  000F82  222E               	addwfc	(___flmul@grs+2)^0,f,c
  3701  000F84  0E00               	movlw	0
  3702  000F86  222F               	addwfc	(___flmul@grs+3)^0,f,c
  3703  000F88  5024               	movf	(___flmul@a+1)^0,w,c
  3704  000F8A  021F               	mulwf	___flmul@b^0,c
  3705  000F8C  CFF3 F036          	movff	prodl,___flmul@temp
  3706  000F90  CFF4 F037          	movff	prodh,___flmul@temp+1
  3707  000F94  5036               	movf	___flmul@temp^0,w,c
  3708  000F96  262C               	addwf	___flmul@grs^0,f,c
  3709  000F98  5037               	movf	(___flmul@temp+1)^0,w,c
  3710  000F9A  222D               	addwfc	(___flmul@grs+1)^0,f,c
  3711  000F9C  0E00               	movlw	0
  3712  000F9E  222E               	addwfc	(___flmul@grs+2)^0,f,c
  3713  000FA0  0E00               	movlw	0
  3714  000FA2  222F               	addwfc	(___flmul@grs+3)^0,f,c
  3715  000FA4  C02E  F02F         	movff	___flmul@grs+2,___flmul@grs+3
  3716  000FA8  C02D  F02E         	movff	___flmul@grs+1,___flmul@grs+2
  3717  000FAC  C02C  F02D         	movff	___flmul@grs,___flmul@grs+1
  3718  000FB0  6A2C               	clrf	___flmul@grs^0,c
  3719  000FB2  5023               	movf	___flmul@a^0,w,c
  3720  000FB4  021F               	mulwf	___flmul@b^0,c
  3721  000FB6  CFF3 F036          	movff	prodl,___flmul@temp
  3722  000FBA  CFF4 F037          	movff	prodh,___flmul@temp+1
  3723  000FBE  5036               	movf	___flmul@temp^0,w,c
  3724  000FC0  262C               	addwf	___flmul@grs^0,f,c
  3725  000FC2  5037               	movf	(___flmul@temp+1)^0,w,c
  3726  000FC4  222D               	addwfc	(___flmul@grs+1)^0,f,c
  3727  000FC6  0E00               	movlw	0
  3728  000FC8  222E               	addwfc	(___flmul@grs+2)^0,f,c
  3729  000FCA  0E00               	movlw	0
  3730  000FCC  222F               	addwfc	(___flmul@grs+3)^0,f,c
  3731  000FCE  5025               	movf	(___flmul@a+2)^0,w,c
  3732  000FD0  0220               	mulwf	(___flmul@b+1)^0,c
  3733  000FD2  CFF3 F036          	movff	prodl,___flmul@temp
  3734  000FD6  CFF4 F037          	movff	prodh,___flmul@temp+1
  3735  000FDA  5036               	movf	___flmul@temp^0,w,c
  3736  000FDC  2632               	addwf	___flmul@prod^0,f,c
  3737  000FDE  5037               	movf	(___flmul@temp+1)^0,w,c
  3738  000FE0  2233               	addwfc	(___flmul@prod+1)^0,f,c
  3739  000FE2  0E00               	movlw	0
  3740  000FE4  2234               	addwfc	(___flmul@prod+2)^0,f,c
  3741  000FE6  0E00               	movlw	0
  3742  000FE8  2235               	addwfc	(___flmul@prod+3)^0,f,c
  3743  000FEA  5024               	movf	(___flmul@a+1)^0,w,c
  3744  000FEC  0221               	mulwf	(___flmul@b+2)^0,c
  3745  000FEE  CFF3 F036          	movff	prodl,___flmul@temp
  3746  000FF2  CFF4 F037          	movff	prodh,___flmul@temp+1
  3747  000FF6  5036               	movf	___flmul@temp^0,w,c
  3748  000FF8  2632               	addwf	___flmul@prod^0,f,c
  3749  000FFA  5037               	movf	(___flmul@temp+1)^0,w,c
  3750  000FFC  2233               	addwfc	(___flmul@prod+1)^0,f,c
  3751  000FFE  0E00               	movlw	0
  3752  001000  2234               	addwfc	(___flmul@prod+2)^0,f,c
  3753  001002  0E00               	movlw	0
  3754  001004  2235               	addwfc	(___flmul@prod+3)^0,f,c
  3755  001006  5025               	movf	(___flmul@a+2)^0,w,c
  3756  001008  0221               	mulwf	(___flmul@b+2)^0,c
  3757  00100A  CFF3 F036          	movff	prodl,___flmul@temp
  3758  00100E  CFF4 F037          	movff	prodh,___flmul@temp+1
  3759  001012  5036               	movf	___flmul@temp^0,w,c
  3760  001014  6E27               	movwf	??___flmul^0,c
  3761  001016  5037               	movf	(___flmul@temp+1)^0,w,c
  3762  001018  6E28               	movwf	(??___flmul+1)^0,c
  3763  00101A  6A29               	clrf	(??___flmul+2)^0,c
  3764  00101C  6A2A               	clrf	(??___flmul+3)^0,c
  3765  00101E  C029  F02A         	movff	??___flmul+2,??___flmul+3
  3766  001022  C028  F029         	movff	??___flmul+1,??___flmul+2
  3767  001026  C027  F028         	movff	??___flmul,??___flmul+1
  3768  00102A  6A27               	clrf	??___flmul^0,c
  3769  00102C  5027               	movf	??___flmul^0,w,c
  3770  00102E  2632               	addwf	___flmul@prod^0,f,c
  3771  001030  5028               	movf	(??___flmul+1)^0,w,c
  3772  001032  2233               	addwfc	(___flmul@prod+1)^0,f,c
  3773  001034  5029               	movf	(??___flmul+2)^0,w,c
  3774  001036  2234               	addwfc	(___flmul@prod+2)^0,f,c
  3775  001038  502A               	movf	(??___flmul+3)^0,w,c
  3776  00103A  2235               	addwfc	(___flmul@prod+3)^0,f,c
  3777  00103C  C02C  F027         	movff	___flmul@grs,??___flmul
  3778  001040  C02D  F028         	movff	___flmul@grs+1,??___flmul+1
  3779  001044  C02E  F029         	movff	___flmul@grs+2,??___flmul+2
  3780  001048  C02F  F02A         	movff	___flmul@grs+3,??___flmul+3
  3781  00104C  0E19               	movlw	25
  3782  00104E  EF2E  F008         	goto	u2470
  3783  001052                     u2475:
  3784  001052  90D8               	bcf	status,0,c
  3785  001054  322A               	rrcf	(??___flmul+3)^0,f,c
  3786  001056  3229               	rrcf	(??___flmul+2)^0,f,c
  3787  001058  3228               	rrcf	(??___flmul+1)^0,f,c
  3788  00105A  3227               	rrcf	??___flmul^0,f,c
  3789  00105C                     u2470:
  3790  00105C  2EE8               	decfsz	wreg,f,c
  3791  00105E  EF29  F008         	goto	u2475
  3792  001062  5027               	movf	??___flmul^0,w,c
  3793  001064  2632               	addwf	___flmul@prod^0,f,c
  3794  001066  5028               	movf	(??___flmul+1)^0,w,c
  3795  001068  2233               	addwfc	(___flmul@prod+1)^0,f,c
  3796  00106A  5029               	movf	(??___flmul+2)^0,w,c
  3797  00106C  2234               	addwfc	(___flmul@prod+2)^0,f,c
  3798  00106E  502A               	movf	(??___flmul+3)^0,w,c
  3799  001070  2235               	addwfc	(___flmul@prod+3)^0,f,c
  3800  001072  C02E  F02F         	movff	___flmul@grs+2,___flmul@grs+3
  3801  001076  C02D  F02E         	movff	___flmul@grs+1,___flmul@grs+2
  3802  00107A  C02C  F02D         	movff	___flmul@grs,___flmul@grs+1
  3803  00107E  6A2C               	clrf	___flmul@grs^0,c
  3804  001080  5030               	movf	___flmul@aexp^0,w,c
  3805  001082  C031  F027         	movff	___flmul@bexp,??___flmul
  3806  001086  6A28               	clrf	(??___flmul+1)^0,c
  3807  001088  2627               	addwf	??___flmul^0,f,c
  3808  00108A  0E00               	movlw	0
  3809  00108C  2228               	addwfc	(??___flmul+1)^0,f,c
  3810  00108E  0E82               	movlw	130
  3811  001090  2427               	addwf	??___flmul^0,w,c
  3812  001092  6E36               	movwf	___flmul@temp^0,c
  3813  001094  0EFF               	movlw	255
  3814  001096  2028               	addwfc	(??___flmul+1)^0,w,c
  3815  001098  6E37               	movwf	(___flmul@temp+1)^0,c
  3816  00109A  EF64  F008         	goto	l2727
  3817  00109E                     l2721:
  3818  00109E  90D8               	bcf	status,0,c
  3819  0010A0  3632               	rlcf	___flmul@prod^0,f,c
  3820  0010A2  3633               	rlcf	(___flmul@prod+1)^0,f,c
  3821  0010A4  3634               	rlcf	(___flmul@prod+2)^0,f,c
  3822  0010A6  3635               	rlcf	(___flmul@prod+3)^0,f,c
  3823  0010A8  AE2F               	btfss	(___flmul@grs+3)^0,7,c
  3824  0010AA  EF59  F008         	goto	u2481
  3825  0010AE  EF5B  F008         	goto	u2480
  3826  0010B2                     u2481:
  3827  0010B2  EF5C  F008         	goto	l898
  3828  0010B6                     u2480:
  3829  0010B6  8032               	bsf	___flmul@prod^0,0,c
  3830  0010B8                     l898:
  3831  0010B8  90D8               	bcf	status,0,c
  3832  0010BA  362C               	rlcf	___flmul@grs^0,f,c
  3833  0010BC  362D               	rlcf	(___flmul@grs+1)^0,f,c
  3834  0010BE  362E               	rlcf	(___flmul@grs+2)^0,f,c
  3835  0010C0  362F               	rlcf	(___flmul@grs+3)^0,f,c
  3836  0010C2  0636               	decf	___flmul@temp^0,f,c
  3837  0010C4  A0D8               	btfss	status,0,c
  3838  0010C6  0637               	decf	(___flmul@temp+1)^0,f,c
  3839  0010C8                     l2727:
  3840  0010C8  AE34               	btfss	(___flmul@prod+2)^0,7,c
  3841  0010CA  EF69  F008         	goto	u2491
  3842  0010CE  EF6B  F008         	goto	u2490
  3843  0010D2                     u2491:
  3844  0010D2  EF4F  F008         	goto	l2721
  3845  0010D6                     u2490:
  3846  0010D6  0E00               	movlw	0
  3847  0010D8  6E30               	movwf	___flmul@aexp^0,c
  3848  0010DA  AE2F               	btfss	(___flmul@grs+3)^0,7,c
  3849  0010DC  EF72  F008         	goto	u2501
  3850  0010E0  EF74  F008         	goto	u2500
  3851  0010E4                     u2501:
  3852  0010E4  EF98  F008         	goto	l900
  3853  0010E8                     u2500:
  3854  0010E8  0EFF               	movlw	255
  3855  0010EA  142C               	andwf	___flmul@grs^0,w,c
  3856  0010EC  6E27               	movwf	??___flmul^0,c
  3857  0010EE  0EFF               	movlw	255
  3858  0010F0  142D               	andwf	(___flmul@grs+1)^0,w,c
  3859  0010F2  6E28               	movwf	(??___flmul+1)^0,c
  3860  0010F4  0EFF               	movlw	255
  3861  0010F6  142E               	andwf	(___flmul@grs+2)^0,w,c
  3862  0010F8  6E29               	movwf	(??___flmul+2)^0,c
  3863  0010FA  0E7F               	movlw	127
  3864  0010FC  142F               	andwf	(___flmul@grs+3)^0,w,c
  3865  0010FE  6E2A               	movwf	(??___flmul+3)^0,c
  3866  001100  5027               	movf	??___flmul^0,w,c
  3867  001102  1028               	iorwf	(??___flmul+1)^0,w,c
  3868  001104  1029               	iorwf	(??___flmul+2)^0,w,c
  3869  001106  102A               	iorwf	(??___flmul+3)^0,w,c
  3870  001108  B4D8               	btfsc	status,2,c
  3871  00110A  EF89  F008         	goto	u2511
  3872  00110E  EF8B  F008         	goto	u2510
  3873  001112                     u2511:
  3874  001112  EF8F  F008         	goto	l901
  3875  001116                     u2510:
  3876  001116                     l2735:
  3877  001116  0E01               	movlw	1
  3878  001118  6E30               	movwf	___flmul@aexp^0,c
  3879  00111A  EF98  F008         	goto	l900
  3880  00111E                     l901:
  3881  00111E  A032               	btfss	___flmul@prod^0,0,c
  3882  001120  EF94  F008         	goto	u2521
  3883  001124  EF96  F008         	goto	u2520
  3884  001128                     u2521:
  3885  001128  EF98  F008         	goto	l900
  3886  00112C                     u2520:
  3887  00112C  EF8B  F008         	goto	l2735
  3888  001130                     l900:
  3889  001130  5030               	movf	___flmul@aexp^0,w,c
  3890  001132  B4D8               	btfsc	status,2,c
  3891  001134  EF9E  F008         	goto	u2531
  3892  001138  EFA0  F008         	goto	u2530
  3893  00113C                     u2531:
  3894  00113C  EFC4  F008         	goto	l2747
  3895  001140                     u2530:
  3896  001140  0E01               	movlw	1
  3897  001142  2632               	addwf	___flmul@prod^0,f,c
  3898  001144  0E00               	movlw	0
  3899  001146  2233               	addwfc	(___flmul@prod+1)^0,f,c
  3900  001148  2234               	addwfc	(___flmul@prod+2)^0,f,c
  3901  00114A  2235               	addwfc	(___flmul@prod+3)^0,f,c
  3902  00114C  A035               	btfss	(___flmul@prod+3)^0,0,c
  3903  00114E  EFAB  F008         	goto	u2541
  3904  001152  EFAD  F008         	goto	u2540
  3905  001156                     u2541:
  3906  001156  EFC4  F008         	goto	l2747
  3907  00115A                     u2540:
  3908  00115A  C032  F027         	movff	___flmul@prod,??___flmul
  3909  00115E  C033  F028         	movff	___flmul@prod+1,??___flmul+1
  3910  001162  C034  F029         	movff	___flmul@prod+2,??___flmul+2
  3911  001166  C035  F02A         	movff	___flmul@prod+3,??___flmul+3
  3912  00116A  342A               	rlcf	(??___flmul+3)^0,w,c
  3913  00116C  322A               	rrcf	(??___flmul+3)^0,f,c
  3914  00116E  3229               	rrcf	(??___flmul+2)^0,f,c
  3915  001170  3228               	rrcf	(??___flmul+1)^0,f,c
  3916  001172  3227               	rrcf	??___flmul^0,f,c
  3917  001174  C027  F032         	movff	??___flmul,___flmul@prod
  3918  001178  C028  F033         	movff	??___flmul+1,___flmul@prod+1
  3919  00117C  C029  F034         	movff	??___flmul+2,___flmul@prod+2
  3920  001180  C02A  F035         	movff	??___flmul+3,___flmul@prod+3
  3921  001184  4A36               	infsnz	___flmul@temp^0,f,c
  3922  001186  2A37               	incf	(___flmul@temp+1)^0,f,c
  3923  001188                     l2747:
  3924  001188  BE37               	btfsc	(___flmul@temp+1)^0,7,c
  3925  00118A  EFCF  F008         	goto	u2551
  3926  00118E  5037               	movf	(___flmul@temp+1)^0,w,c
  3927  001190  E108               	bnz	u2550
  3928  001192  2836               	incf	___flmul@temp^0,w,c
  3929  001194  A0D8               	btfss	status,0,c
  3930  001196  EFCF  F008         	goto	u2551
  3931  00119A  EFD1  F008         	goto	u2550
  3932  00119E                     u2551:
  3933  00119E  EFDB  F008         	goto	l2751
  3934  0011A2                     u2550:
  3935  0011A2  0E00               	movlw	0
  3936  0011A4  6E32               	movwf	___flmul@prod^0,c
  3937  0011A6  0E00               	movlw	0
  3938  0011A8  6E33               	movwf	(___flmul@prod+1)^0,c
  3939  0011AA  0E80               	movlw	128
  3940  0011AC  6E34               	movwf	(___flmul@prod+2)^0,c
  3941  0011AE  0E7F               	movlw	127
  3942  0011B0  6E35               	movwf	(___flmul@prod+3)^0,c
  3943  0011B2  EF09  F009         	goto	l2763
  3944  0011B6                     l2751:
  3945  0011B6  BE37               	btfsc	(___flmul@temp+1)^0,7,c
  3946  0011B8  EFE8  F008         	goto	u2560
  3947  0011BC  5037               	movf	(___flmul@temp+1)^0,w,c
  3948  0011BE  E106               	bnz	u2561
  3949  0011C0  0436               	decf	___flmul@temp^0,w,c
  3950  0011C2  B0D8               	btfsc	status,0,c
  3951  0011C4  EFE6  F008         	goto	u2561
  3952  0011C8  EFE8  F008         	goto	u2560
  3953  0011CC                     u2561:
  3954  0011CC  EFF4  F008         	goto	l908
  3955  0011D0                     u2560:
  3956  0011D0  0E00               	movlw	0
  3957  0011D2  6E32               	movwf	___flmul@prod^0,c
  3958  0011D4  0E00               	movlw	0
  3959  0011D6  6E33               	movwf	(___flmul@prod+1)^0,c
  3960  0011D8  0E00               	movlw	0
  3961  0011DA  6E34               	movwf	(___flmul@prod+2)^0,c
  3962  0011DC  0E00               	movlw	0
  3963  0011DE  6E35               	movwf	(___flmul@prod+3)^0,c
  3964  0011E0  0E00               	movlw	0
  3965  0011E2  6E2B               	movwf	___flmul@sign^0,c
  3966  0011E4  EF09  F009         	goto	l2763
  3967  0011E8                     l908:
  3968  0011E8  C036  F031         	movff	___flmul@temp,___flmul@bexp
  3969  0011EC  0EFF               	movlw	255
  3970  0011EE  1632               	andwf	___flmul@prod^0,f,c
  3971  0011F0  0EFF               	movlw	255
  3972  0011F2  1633               	andwf	(___flmul@prod+1)^0,f,c
  3973  0011F4  0E7F               	movlw	127
  3974  0011F6  1634               	andwf	(___flmul@prod+2)^0,f,c
  3975  0011F8  0E00               	movlw	0
  3976  0011FA  1635               	andwf	(___flmul@prod+3)^0,f,c
  3977  0011FC  A031               	btfss	___flmul@bexp^0,0,c
  3978  0011FE  EF03  F009         	goto	u2571
  3979  001202  EF05  F009         	goto	u2570
  3980  001206                     u2571:
  3981  001206  EF06  F009         	goto	l2761
  3982  00120A                     u2570:
  3983  00120A  8E34               	bsf	(___flmul@prod+2)^0,7,c
  3984  00120C                     l2761:
  3985  00120C  90D8               	bcf	status,0,c
  3986  00120E  3031               	rrcf	___flmul@bexp^0,w,c
  3987  001210  6E35               	movwf	(___flmul@prod+3)^0,c
  3988  001212                     l2763:
  3989  001212  502B               	movf	___flmul@sign^0,w,c
  3990  001214  1235               	iorwf	(___flmul@prod+3)^0,f,c
  3991  001216  C032  F01F         	movff	___flmul@prod,?___flmul
  3992  00121A  C033  F020         	movff	___flmul@prod+1,?___flmul+1
  3993  00121E  C034  F021         	movff	___flmul@prod+2,?___flmul+2
  3994  001222  C035  F022         	movff	___flmul@prod+3,?___flmul+3
  3995  001226                     l895:
  3996  001226  0012               	return		;funcret
  3997  001228                     __end_of___flmul:
  3998                           	opt callstack 0
  3999                           
  4000 ;; *************** function ___fldiv *****************
  4001 ;; Defined at:
  4002 ;;		line 11 in file "C:\Program Files (x86)\Microchip\xc8\v2.10\pic\sources\c90\common\sprcdiv.c"
  4003 ;; Parameters:    Size  Location     Type
  4004 ;;  b               4   55[COMRAM] unsigned char 
  4005 ;;  a               4   59[COMRAM] unsigned char 
  4006 ;; Auto vars:     Size  Location     Type
  4007 ;;  grs             4   74[COMRAM] unsigned long 
  4008 ;;  rem             4   67[COMRAM] unsigned long 
  4009 ;;  new_exp         2   72[COMRAM] int 
  4010 ;;  aexp            1   79[COMRAM] unsigned char 
  4011 ;;  bexp            1   78[COMRAM] unsigned char 
  4012 ;;  sign            1   71[COMRAM] unsigned char 
  4013 ;; Return value:  Size  Location     Type
  4014 ;;                  4   55[COMRAM] unsigned char 
  4015 ;; Registers used:
  4016 ;;		wreg, status,2, status,0
  4017 ;; Tracked objects:
  4018 ;;		On entry : 0/0
  4019 ;;		On exit  : 0/0
  4020 ;;		Unchanged: 0/0
  4021 ;; Data sizes:     COMRAM   BANK0   BANK1   BANK2   BANK3   BANK4   BANK5   BANK6   BANK7
  4022 ;;      Params:         8       0       0       0       0       0       0       0       0
  4023 ;;      Locals:        13       0       0       0       0       0       0       0       0
  4024 ;;      Temps:          4       0       0       0       0       0       0       0       0
  4025 ;;      Totals:        25       0       0       0       0       0       0       0       0
  4026 ;;Total ram usage:       25 bytes
  4027 ;; Hardware stack levels used:    1
  4028 ;; This function calls:
  4029 ;;		Nothing
  4030 ;; This function is called by:
  4031 ;;		_main
  4032 ;; This function uses a non-reentrant model
  4033 ;;
  4034                           
  4035                           	psect	text13
  4036  001228                     __ptext13:
  4037                           	opt callstack 0
  4038  001228                     ___fldiv:
  4039                           	opt callstack 30
  4040  001228  503B               	movf	(___fldiv@b+3)^0,w,c
  4041  00122A  0B80               	andlw	128
  4042  00122C  6E48               	movwf	___fldiv@sign^0,c
  4043  00122E  503B               	movf	(___fldiv@b+3)^0,w,c
  4044  001230  243B               	addwf	(___fldiv@b+3)^0,w,c
  4045  001232  6E4F               	movwf	___fldiv@bexp^0,c
  4046  001234  AE3A               	btfss	(___fldiv@b+2)^0,7,c
  4047  001236  EF1F  F009         	goto	u2161
  4048  00123A  EF21  F009         	goto	u2160
  4049  00123E                     u2161:
  4050  00123E  EF22  F009         	goto	l2507
  4051  001242                     u2160:
  4052  001242  804F               	bsf	___fldiv@bexp^0,0,c
  4053  001244                     l2507:
  4054  001244  504F               	movf	___fldiv@bexp^0,w,c
  4055  001246  B4D8               	btfsc	status,2,c
  4056  001248  EF28  F009         	goto	u2171
  4057  00124C  EF2A  F009         	goto	u2170
  4058  001250                     u2171:
  4059  001250  EF3F  F009         	goto	l2517
  4060  001254                     u2170:
  4061  001254  284F               	incf	___fldiv@bexp^0,w,c
  4062  001256  A4D8               	btfss	status,2,c
  4063  001258  EF30  F009         	goto	u2181
  4064  00125C  EF32  F009         	goto	u2180
  4065  001260                     u2181:
  4066  001260  EF3A  F009         	goto	l2513
  4067  001264                     u2180:
  4068  001264  0E00               	movlw	0
  4069  001266  6E38               	movwf	___fldiv@b^0,c
  4070  001268  0E00               	movlw	0
  4071  00126A  6E39               	movwf	(___fldiv@b+1)^0,c
  4072  00126C  0E00               	movlw	0
  4073  00126E  6E3A               	movwf	(___fldiv@b+2)^0,c
  4074  001270  0E00               	movlw	0
  4075  001272  6E3B               	movwf	(___fldiv@b+3)^0,c
  4076  001274                     l2513:
  4077  001274  8E3A               	bsf	(___fldiv@b+2)^0,7,c
  4078  001276  0E00               	movlw	0
  4079  001278  6E3B               	movwf	(___fldiv@b+3)^0,c
  4080  00127A  EF47  F009         	goto	l2519
  4081  00127E                     l2517:
  4082  00127E  0E00               	movlw	0
  4083  001280  6E38               	movwf	___fldiv@b^0,c
  4084  001282  0E00               	movlw	0
  4085  001284  6E39               	movwf	(___fldiv@b+1)^0,c
  4086  001286  0E00               	movlw	0
  4087  001288  6E3A               	movwf	(___fldiv@b+2)^0,c
  4088  00128A  0E00               	movlw	0
  4089  00128C  6E3B               	movwf	(___fldiv@b+3)^0,c
  4090  00128E                     l2519:
  4091  00128E  503F               	movf	(___fldiv@a+3)^0,w,c
  4092  001290  0B80               	andlw	128
  4093  001292  1A48               	xorwf	___fldiv@sign^0,f,c
  4094  001294  503F               	movf	(___fldiv@a+3)^0,w,c
  4095  001296  243F               	addwf	(___fldiv@a+3)^0,w,c
  4096  001298  6E50               	movwf	___fldiv@aexp^0,c
  4097  00129A  AE3E               	btfss	(___fldiv@a+2)^0,7,c
  4098  00129C  EF52  F009         	goto	u2191
  4099  0012A0  EF54  F009         	goto	u2190
  4100  0012A4                     u2191:
  4101  0012A4  EF55  F009         	goto	l2527
  4102  0012A8                     u2190:
  4103  0012A8  8050               	bsf	___fldiv@aexp^0,0,c
  4104  0012AA                     l2527:
  4105  0012AA  5050               	movf	___fldiv@aexp^0,w,c
  4106  0012AC  B4D8               	btfsc	status,2,c
  4107  0012AE  EF5B  F009         	goto	u2201
  4108  0012B2  EF5D  F009         	goto	u2200
  4109  0012B6                     u2201:
  4110  0012B6  EF72  F009         	goto	l2537
  4111  0012BA                     u2200:
  4112  0012BA  2850               	incf	___fldiv@aexp^0,w,c
  4113  0012BC  A4D8               	btfss	status,2,c
  4114  0012BE  EF63  F009         	goto	u2211
  4115  0012C2  EF65  F009         	goto	u2210
  4116  0012C6                     u2211:
  4117  0012C6  EF6D  F009         	goto	l2533
  4118  0012CA                     u2210:
  4119  0012CA  0E00               	movlw	0
  4120  0012CC  6E3C               	movwf	___fldiv@a^0,c
  4121  0012CE  0E00               	movlw	0
  4122  0012D0  6E3D               	movwf	(___fldiv@a+1)^0,c
  4123  0012D2  0E00               	movlw	0
  4124  0012D4  6E3E               	movwf	(___fldiv@a+2)^0,c
  4125  0012D6  0E00               	movlw	0
  4126  0012D8  6E3F               	movwf	(___fldiv@a+3)^0,c
  4127  0012DA                     l2533:
  4128  0012DA  8E3E               	bsf	(___fldiv@a+2)^0,7,c
  4129  0012DC  0E00               	movlw	0
  4130  0012DE  6E3F               	movwf	(___fldiv@a+3)^0,c
  4131  0012E0  EF7A  F009         	goto	l2539
  4132  0012E4                     l2537:
  4133  0012E4  0E00               	movlw	0
  4134  0012E6  6E3C               	movwf	___fldiv@a^0,c
  4135  0012E8  0E00               	movlw	0
  4136  0012EA  6E3D               	movwf	(___fldiv@a+1)^0,c
  4137  0012EC  0E00               	movlw	0
  4138  0012EE  6E3E               	movwf	(___fldiv@a+2)^0,c
  4139  0012F0  0E00               	movlw	0
  4140  0012F2  6E3F               	movwf	(___fldiv@a+3)^0,c
  4141  0012F4                     l2539:
  4142  0012F4  503C               	movf	___fldiv@a^0,w,c
  4143  0012F6  103D               	iorwf	(___fldiv@a+1)^0,w,c
  4144  0012F8  103E               	iorwf	(___fldiv@a+2)^0,w,c
  4145  0012FA  103F               	iorwf	(___fldiv@a+3)^0,w,c
  4146  0012FC  A4D8               	btfss	status,2,c
  4147  0012FE  EF83  F009         	goto	u2221
  4148  001302  EF85  F009         	goto	u2220
  4149  001306                     u2221:
  4150  001306  EF9D  F009         	goto	l2551
  4151  00130A                     u2220:
  4152  00130A  0E00               	movlw	0
  4153  00130C  6E38               	movwf	___fldiv@b^0,c
  4154  00130E  0E00               	movlw	0
  4155  001310  6E39               	movwf	(___fldiv@b+1)^0,c
  4156  001312  0E00               	movlw	0
  4157  001314  6E3A               	movwf	(___fldiv@b+2)^0,c
  4158  001316  0E00               	movlw	0
  4159  001318  6E3B               	movwf	(___fldiv@b+3)^0,c
  4160  00131A  0E80               	movlw	128
  4161  00131C  123A               	iorwf	(___fldiv@b+2)^0,f,c
  4162  00131E  0E7F               	movlw	127
  4163  001320  123B               	iorwf	(___fldiv@b+3)^0,f,c
  4164  001322                     l2545:
  4165  001322  5048               	movf	___fldiv@sign^0,w,c
  4166  001324  123B               	iorwf	(___fldiv@b+3)^0,f,c
  4167  001326  C038  F038         	movff	___fldiv@b,?___fldiv
  4168  00132A  C039  F039         	movff	___fldiv@b+1,?___fldiv+1
  4169  00132E  C03A  F03A         	movff	___fldiv@b+2,?___fldiv+2
  4170  001332  C03B  F03B         	movff	___fldiv@b+3,?___fldiv+3
  4171  001336  EFE0  F00A         	goto	l859
  4172  00133A                     l2551:
  4173  00133A  504F               	movf	___fldiv@bexp^0,w,c
  4174  00133C  A4D8               	btfss	status,2,c
  4175  00133E  EFA3  F009         	goto	u2231
  4176  001342  EFA5  F009         	goto	u2230
  4177  001346                     u2231:
  4178  001346  EFAF  F009         	goto	l2559
  4179  00134A                     u2230:
  4180  00134A  0E00               	movlw	0
  4181  00134C  6E38               	movwf	?___fldiv^0,c
  4182  00134E  0E00               	movlw	0
  4183  001350  6E39               	movwf	(?___fldiv+1)^0,c
  4184  001352  0E00               	movlw	0
  4185  001354  6E3A               	movwf	(?___fldiv+2)^0,c
  4186  001356  0E00               	movlw	0
  4187  001358  6E3B               	movwf	(?___fldiv+3)^0,c
  4188  00135A  EFE0  F00A         	goto	l859
  4189  00135E                     l2559:
  4190  00135E  5050               	movf	___fldiv@aexp^0,w,c
  4191  001360  C04F  F040         	movff	___fldiv@bexp,??___fldiv
  4192  001364  6A41               	clrf	(??___fldiv+1)^0,c
  4193  001366  5E40               	subwf	??___fldiv^0,f,c
  4194  001368  0E00               	movlw	0
  4195  00136A  5A41               	subwfb	(??___fldiv+1)^0,f,c
  4196  00136C  0E7F               	movlw	127
  4197  00136E  2440               	addwf	??___fldiv^0,w,c
  4198  001370  6E49               	movwf	___fldiv@new_exp^0,c
  4199  001372  0E00               	movlw	0
  4200  001374  2041               	addwfc	(??___fldiv+1)^0,w,c
  4201  001376  6E4A               	movwf	(___fldiv@new_exp+1)^0,c
  4202  001378  C038  F044         	movff	___fldiv@b,___fldiv@rem
  4203  00137C  C039  F045         	movff	___fldiv@b+1,___fldiv@rem+1
  4204  001380  C03A  F046         	movff	___fldiv@b+2,___fldiv@rem+2
  4205  001384  C03B  F047         	movff	___fldiv@b+3,___fldiv@rem+3
  4206  001388  0E00               	movlw	0
  4207  00138A  6E38               	movwf	___fldiv@b^0,c
  4208  00138C  0E00               	movlw	0
  4209  00138E  6E39               	movwf	(___fldiv@b+1)^0,c
  4210  001390  0E00               	movlw	0
  4211  001392  6E3A               	movwf	(___fldiv@b+2)^0,c
  4212  001394  0E00               	movlw	0
  4213  001396  6E3B               	movwf	(___fldiv@b+3)^0,c
  4214  001398  0E00               	movlw	0
  4215  00139A  6E4B               	movwf	___fldiv@grs^0,c
  4216  00139C  0E00               	movlw	0
  4217  00139E  6E4C               	movwf	(___fldiv@grs+1)^0,c
  4218  0013A0  0E00               	movlw	0
  4219  0013A2  6E4D               	movwf	(___fldiv@grs+2)^0,c
  4220  0013A4  0E00               	movlw	0
  4221  0013A6  6E4E               	movwf	(___fldiv@grs+3)^0,c
  4222  0013A8  0E00               	movlw	0
  4223  0013AA  6E50               	movwf	___fldiv@aexp^0,c
  4224  0013AC  EF10  F00A         	goto	l861
  4225  0013B0                     l2569:
  4226  0013B0  5050               	movf	___fldiv@aexp^0,w,c
  4227  0013B2  B4D8               	btfsc	status,2,c
  4228  0013B4  EFDE  F009         	goto	u2241
  4229  0013B8  EFE0  F009         	goto	u2240
  4230  0013BC                     u2241:
  4231  0013BC  EFF7  F009         	goto	l2577
  4232  0013C0                     u2240:
  4233  0013C0  90D8               	bcf	status,0,c
  4234  0013C2  3644               	rlcf	___fldiv@rem^0,f,c
  4235  0013C4  3645               	rlcf	(___fldiv@rem+1)^0,f,c
  4236  0013C6  3646               	rlcf	(___fldiv@rem+2)^0,f,c
  4237  0013C8  3647               	rlcf	(___fldiv@rem+3)^0,f,c
  4238  0013CA  90D8               	bcf	status,0,c
  4239  0013CC  3638               	rlcf	___fldiv@b^0,f,c
  4240  0013CE  3639               	rlcf	(___fldiv@b+1)^0,f,c
  4241  0013D0  363A               	rlcf	(___fldiv@b+2)^0,f,c
  4242  0013D2  363B               	rlcf	(___fldiv@b+3)^0,f,c
  4243  0013D4  AE4E               	btfss	(___fldiv@grs+3)^0,7,c
  4244  0013D6  EFEF  F009         	goto	u2251
  4245  0013DA  EFF1  F009         	goto	u2250
  4246  0013DE                     u2251:
  4247  0013DE  EFF2  F009         	goto	l864
  4248  0013E2                     u2250:
  4249  0013E2  8038               	bsf	___fldiv@b^0,0,c
  4250  0013E4                     l864:
  4251  0013E4  90D8               	bcf	status,0,c
  4252  0013E6  364B               	rlcf	___fldiv@grs^0,f,c
  4253  0013E8  364C               	rlcf	(___fldiv@grs+1)^0,f,c
  4254  0013EA  364D               	rlcf	(___fldiv@grs+2)^0,f,c
  4255  0013EC  364E               	rlcf	(___fldiv@grs+3)^0,f,c
  4256  0013EE                     l2577:
  4257  0013EE  503C               	movf	___fldiv@a^0,w,c
  4258  0013F0  5C44               	subwf	___fldiv@rem^0,w,c
  4259  0013F2  503D               	movf	(___fldiv@a+1)^0,w,c
  4260  0013F4  5845               	subwfb	(___fldiv@rem+1)^0,w,c
  4261  0013F6  503E               	movf	(___fldiv@a+2)^0,w,c
  4262  0013F8  5846               	subwfb	(___fldiv@rem+2)^0,w,c
  4263  0013FA  503F               	movf	(___fldiv@a+3)^0,w,c
  4264  0013FC  5847               	subwfb	(___fldiv@rem+3)^0,w,c
  4265  0013FE  A0D8               	btfss	status,0,c
  4266  001400  EF04  F00A         	goto	u2261
  4267  001404  EF06  F00A         	goto	u2260
  4268  001408                     u2261:
  4269  001408  EF0F  F00A         	goto	l2583
  4270  00140C                     u2260:
  4271  00140C  8C4E               	bsf	(___fldiv@grs+3)^0,6,c
  4272  00140E  503C               	movf	___fldiv@a^0,w,c
  4273  001410  5E44               	subwf	___fldiv@rem^0,f,c
  4274  001412  503D               	movf	(___fldiv@a+1)^0,w,c
  4275  001414  5A45               	subwfb	(___fldiv@rem+1)^0,f,c
  4276  001416  503E               	movf	(___fldiv@a+2)^0,w,c
  4277  001418  5A46               	subwfb	(___fldiv@rem+2)^0,f,c
  4278  00141A  503F               	movf	(___fldiv@a+3)^0,w,c
  4279  00141C  5A47               	subwfb	(___fldiv@rem+3)^0,f,c
  4280  00141E                     l2583:
  4281  00141E  2A50               	incf	___fldiv@aexp^0,f,c
  4282  001420                     l861:
  4283  001420  0E19               	movlw	25
  4284  001422  6450               	cpfsgt	___fldiv@aexp^0,c
  4285  001424  EF16  F00A         	goto	u2271
  4286  001428  EF18  F00A         	goto	u2270
  4287  00142C                     u2271:
  4288  00142C  EFD8  F009         	goto	l2569
  4289  001430                     u2270:
  4290  001430  5044               	movf	___fldiv@rem^0,w,c
  4291  001432  1045               	iorwf	(___fldiv@rem+1)^0,w,c
  4292  001434  1046               	iorwf	(___fldiv@rem+2)^0,w,c
  4293  001436  1047               	iorwf	(___fldiv@rem+3)^0,w,c
  4294  001438  B4D8               	btfsc	status,2,c
  4295  00143A  EF21  F00A         	goto	u2281
  4296  00143E  EF23  F00A         	goto	u2280
  4297  001442                     u2281:
  4298  001442  EF3B  F00A         	goto	l2595
  4299  001446                     u2280:
  4300  001446  804B               	bsf	___fldiv@grs^0,0,c
  4301  001448  EF3B  F00A         	goto	l2595
  4302  00144C                     l2589:
  4303  00144C  90D8               	bcf	status,0,c
  4304  00144E  3638               	rlcf	___fldiv@b^0,f,c
  4305  001450  3639               	rlcf	(___fldiv@b+1)^0,f,c
  4306  001452  363A               	rlcf	(___fldiv@b+2)^0,f,c
  4307  001454  363B               	rlcf	(___fldiv@b+3)^0,f,c
  4308  001456  AE4E               	btfss	(___fldiv@grs+3)^0,7,c
  4309  001458  EF30  F00A         	goto	u2291
  4310  00145C  EF32  F00A         	goto	u2290
  4311  001460                     u2291:
  4312  001460  EF33  F00A         	goto	l870
  4313  001464                     u2290:
  4314  001464  8038               	bsf	___fldiv@b^0,0,c
  4315  001466                     l870:
  4316  001466  90D8               	bcf	status,0,c
  4317  001468  364B               	rlcf	___fldiv@grs^0,f,c
  4318  00146A  364C               	rlcf	(___fldiv@grs+1)^0,f,c
  4319  00146C  364D               	rlcf	(___fldiv@grs+2)^0,f,c
  4320  00146E  364E               	rlcf	(___fldiv@grs+3)^0,f,c
  4321  001470  0649               	decf	___fldiv@new_exp^0,f,c
  4322  001472  A0D8               	btfss	status,0,c
  4323  001474  064A               	decf	(___fldiv@new_exp+1)^0,f,c
  4324  001476                     l2595:
  4325  001476  AE3A               	btfss	(___fldiv@b+2)^0,7,c
  4326  001478  EF40  F00A         	goto	u2301
  4327  00147C  EF42  F00A         	goto	u2300
  4328  001480                     u2301:
  4329  001480  EF26  F00A         	goto	l2589
  4330  001484                     u2300:
  4331  001484  0E00               	movlw	0
  4332  001486  6E50               	movwf	___fldiv@aexp^0,c
  4333  001488  AE4E               	btfss	(___fldiv@grs+3)^0,7,c
  4334  00148A  EF49  F00A         	goto	u2311
  4335  00148E  EF4B  F00A         	goto	u2310
  4336  001492                     u2311:
  4337  001492  EF6F  F00A         	goto	l872
  4338  001496                     u2310:
  4339  001496  0EFF               	movlw	255
  4340  001498  144B               	andwf	___fldiv@grs^0,w,c
  4341  00149A  6E40               	movwf	??___fldiv^0,c
  4342  00149C  0EFF               	movlw	255
  4343  00149E  144C               	andwf	(___fldiv@grs+1)^0,w,c
  4344  0014A0  6E41               	movwf	(??___fldiv+1)^0,c
  4345  0014A2  0EFF               	movlw	255
  4346  0014A4  144D               	andwf	(___fldiv@grs+2)^0,w,c
  4347  0014A6  6E42               	movwf	(??___fldiv+2)^0,c
  4348  0014A8  0E7F               	movlw	127
  4349  0014AA  144E               	andwf	(___fldiv@grs+3)^0,w,c
  4350  0014AC  6E43               	movwf	(??___fldiv+3)^0,c
  4351  0014AE  5040               	movf	??___fldiv^0,w,c
  4352  0014B0  1041               	iorwf	(??___fldiv+1)^0,w,c
  4353  0014B2  1042               	iorwf	(??___fldiv+2)^0,w,c
  4354  0014B4  1043               	iorwf	(??___fldiv+3)^0,w,c
  4355  0014B6  B4D8               	btfsc	status,2,c
  4356  0014B8  EF60  F00A         	goto	u2321
  4357  0014BC  EF62  F00A         	goto	u2320
  4358  0014C0                     u2321:
  4359  0014C0  EF66  F00A         	goto	l873
  4360  0014C4                     u2320:
  4361  0014C4                     l2603:
  4362  0014C4  0E01               	movlw	1
  4363  0014C6  6E50               	movwf	___fldiv@aexp^0,c
  4364  0014C8  EF6F  F00A         	goto	l872
  4365  0014CC                     l873:
  4366  0014CC  A038               	btfss	___fldiv@b^0,0,c
  4367  0014CE  EF6B  F00A         	goto	u2331
  4368  0014D2  EF6D  F00A         	goto	u2330
  4369  0014D6                     u2331:
  4370  0014D6  EF6F  F00A         	goto	l872
  4371  0014DA                     u2330:
  4372  0014DA  EF62  F00A         	goto	l2603
  4373  0014DE                     l872:
  4374  0014DE  5050               	movf	___fldiv@aexp^0,w,c
  4375  0014E0  B4D8               	btfsc	status,2,c
  4376  0014E2  EF75  F00A         	goto	u2341
  4377  0014E6  EF77  F00A         	goto	u2340
  4378  0014EA                     u2341:
  4379  0014EA  EF9B  F00A         	goto	l2615
  4380  0014EE                     u2340:
  4381  0014EE  0E01               	movlw	1
  4382  0014F0  2638               	addwf	___fldiv@b^0,f,c
  4383  0014F2  0E00               	movlw	0
  4384  0014F4  2239               	addwfc	(___fldiv@b+1)^0,f,c
  4385  0014F6  223A               	addwfc	(___fldiv@b+2)^0,f,c
  4386  0014F8  223B               	addwfc	(___fldiv@b+3)^0,f,c
  4387  0014FA  A03B               	btfss	(___fldiv@b+3)^0,0,c
  4388  0014FC  EF82  F00A         	goto	u2351
  4389  001500  EF84  F00A         	goto	u2350
  4390  001504                     u2351:
  4391  001504  EF9B  F00A         	goto	l2615
  4392  001508                     u2350:
  4393  001508  C038  F040         	movff	___fldiv@b,??___fldiv
  4394  00150C  C039  F041         	movff	___fldiv@b+1,??___fldiv+1
  4395  001510  C03A  F042         	movff	___fldiv@b+2,??___fldiv+2
  4396  001514  C03B  F043         	movff	___fldiv@b+3,??___fldiv+3
  4397  001518  3443               	rlcf	(??___fldiv+3)^0,w,c
  4398  00151A  3243               	rrcf	(??___fldiv+3)^0,f,c
  4399  00151C  3242               	rrcf	(??___fldiv+2)^0,f,c
  4400  00151E  3241               	rrcf	(??___fldiv+1)^0,f,c
  4401  001520  3240               	rrcf	??___fldiv^0,f,c
  4402  001522  C040  F038         	movff	??___fldiv,___fldiv@b
  4403  001526  C041  F039         	movff	??___fldiv+1,___fldiv@b+1
  4404  00152A  C042  F03A         	movff	??___fldiv+2,___fldiv@b+2
  4405  00152E  C043  F03B         	movff	??___fldiv+3,___fldiv@b+3
  4406  001532  4A49               	infsnz	___fldiv@new_exp^0,f,c
  4407  001534  2A4A               	incf	(___fldiv@new_exp+1)^0,f,c
  4408  001536                     l2615:
  4409  001536  BE4A               	btfsc	(___fldiv@new_exp+1)^0,7,c
  4410  001538  EFA6  F00A         	goto	u2361
  4411  00153C  504A               	movf	(___fldiv@new_exp+1)^0,w,c
  4412  00153E  E108               	bnz	u2360
  4413  001540  2849               	incf	___fldiv@new_exp^0,w,c
  4414  001542  A0D8               	btfss	status,0,c
  4415  001544  EFA6  F00A         	goto	u2361
  4416  001548  EFA8  F00A         	goto	u2360
  4417  00154C                     u2361:
  4418  00154C  EFB3  F00A         	goto	l2619
  4419  001550                     u2360:
  4420  001550  0E00               	movlw	0
  4421  001552  6E4A               	movwf	(___fldiv@new_exp+1)^0,c
  4422  001554  6849               	setf	___fldiv@new_exp^0,c
  4423  001556  0E00               	movlw	0
  4424  001558  6E38               	movwf	___fldiv@b^0,c
  4425  00155A  0E00               	movlw	0
  4426  00155C  6E39               	movwf	(___fldiv@b+1)^0,c
  4427  00155E  0E00               	movlw	0
  4428  001560  6E3A               	movwf	(___fldiv@b+2)^0,c
  4429  001562  0E00               	movlw	0
  4430  001564  6E3B               	movwf	(___fldiv@b+3)^0,c
  4431  001566                     l2619:
  4432  001566  BE4A               	btfsc	(___fldiv@new_exp+1)^0,7,c
  4433  001568  EFC0  F00A         	goto	u2370
  4434  00156C  504A               	movf	(___fldiv@new_exp+1)^0,w,c
  4435  00156E  E106               	bnz	u2371
  4436  001570  0449               	decf	___fldiv@new_exp^0,w,c
  4437  001572  B0D8               	btfsc	status,0,c
  4438  001574  EFBE  F00A         	goto	u2371
  4439  001578  EFC0  F00A         	goto	u2370
  4440  00157C                     u2371:
  4441  00157C  EFCE  F00A         	goto	l2623
  4442  001580                     u2370:
  4443  001580  0E00               	movlw	0
  4444  001582  6E4A               	movwf	(___fldiv@new_exp+1)^0,c
  4445  001584  0E00               	movlw	0
  4446  001586  6E49               	movwf	___fldiv@new_exp^0,c
  4447  001588  0E00               	movlw	0
  4448  00158A  6E38               	movwf	___fldiv@b^0,c
  4449  00158C  0E00               	movlw	0
  4450  00158E  6E39               	movwf	(___fldiv@b+1)^0,c
  4451  001590  0E00               	movlw	0
  4452  001592  6E3A               	movwf	(___fldiv@b+2)^0,c
  4453  001594  0E00               	movlw	0
  4454  001596  6E3B               	movwf	(___fldiv@b+3)^0,c
  4455  001598  0E00               	movlw	0
  4456  00159A  6E48               	movwf	___fldiv@sign^0,c
  4457  00159C                     l2623:
  4458  00159C  C049  F04F         	movff	___fldiv@new_exp,___fldiv@bexp
  4459  0015A0  A04F               	btfss	___fldiv@bexp^0,0,c
  4460  0015A2  EFD5  F00A         	goto	u2381
  4461  0015A6  EFD7  F00A         	goto	u2380
  4462  0015AA                     u2381:
  4463  0015AA  EFDA  F00A         	goto	l2629
  4464  0015AE                     u2380:
  4465  0015AE  8E3A               	bsf	(___fldiv@b+2)^0,7,c
  4466  0015B0  EFDB  F00A         	goto	l2631
  4467  0015B4                     l2629:
  4468  0015B4  9E3A               	bcf	(___fldiv@b+2)^0,7,c
  4469  0015B6                     l2631:
  4470  0015B6  90D8               	bcf	status,0,c
  4471  0015B8  304F               	rrcf	___fldiv@bexp^0,w,c
  4472  0015BA  6E3B               	movwf	(___fldiv@b+3)^0,c
  4473  0015BC  EF91  F009         	goto	l2545
  4474  0015C0                     l859:
  4475  0015C0  0012               	return		;funcret
  4476  0015C2                     __end_of___fldiv:
  4477                           	opt callstack 0
  4478                           
  4479 ;; *************** function ___awdiv *****************
  4480 ;; Defined at:
  4481 ;;		line 7 in file "C:\Program Files (x86)\Microchip\xc8\v2.10\pic\sources\c90\common\awdiv.c"
  4482 ;; Parameters:    Size  Location     Type
  4483 ;;  dividend        2    8[COMRAM] int 
  4484 ;;  divisor         2   10[COMRAM] int 
  4485 ;; Auto vars:     Size  Location     Type
  4486 ;;  quotient        2   14[COMRAM] int 
  4487 ;;  sign            1   13[COMRAM] unsigned char 
  4488 ;;  counter         1   12[COMRAM] unsigned char 
  4489 ;; Return value:  Size  Location     Type
  4490 ;;                  2    8[COMRAM] int 
  4491 ;; Registers used:
  4492 ;;		wreg, status,2, status,0
  4493 ;; Tracked objects:
  4494 ;;		On entry : 0/0
  4495 ;;		On exit  : 0/0
  4496 ;;		Unchanged: 0/0
  4497 ;; Data sizes:     COMRAM   BANK0   BANK1   BANK2   BANK3   BANK4   BANK5   BANK6   BANK7
  4498 ;;      Params:         4       0       0       0       0       0       0       0       0
  4499 ;;      Locals:         4       0       0       0       0       0       0       0       0
  4500 ;;      Temps:          0       0       0       0       0       0       0       0       0
  4501 ;;      Totals:         8       0       0       0       0       0       0       0       0
  4502 ;;Total ram usage:        8 bytes
  4503 ;; Hardware stack levels used:    1
  4504 ;; This function calls:
  4505 ;;		Nothing
  4506 ;; This function is called by:
  4507 ;;		_main
  4508 ;; This function uses a non-reentrant model
  4509 ;;
  4510                           
  4511                           	psect	text14
  4512  002002                     __ptext14:
  4513                           	opt callstack 0
  4514  002002                     ___awdiv:
  4515                           	opt callstack 30
  4516  002002  0E00               	movlw	0
  4517  002004  6E0E               	movwf	___awdiv@sign^0,c
  4518  002006  BE0C               	btfsc	(___awdiv@divisor+1)^0,7,c
  4519  002008  EF0A  F010         	goto	u2580
  4520  00200C  EF08  F010         	goto	u2581
  4521  002010                     u2581:
  4522  002010  EF10  F010         	goto	l2777
  4523  002014                     u2580:
  4524  002014  6C0B               	negf	___awdiv@divisor^0,c
  4525  002016  1E0C               	comf	(___awdiv@divisor+1)^0,f,c
  4526  002018  B0D8               	btfsc	status,0,c
  4527  00201A  2A0C               	incf	(___awdiv@divisor+1)^0,f,c
  4528  00201C  0E01               	movlw	1
  4529  00201E  6E0E               	movwf	___awdiv@sign^0,c
  4530  002020                     l2777:
  4531  002020  BE0A               	btfsc	(___awdiv@dividend+1)^0,7,c
  4532  002022  EF17  F010         	goto	u2590
  4533  002026  EF15  F010         	goto	u2591
  4534  00202A                     u2591:
  4535  00202A  EF1D  F010         	goto	l2783
  4536  00202E                     u2590:
  4537  00202E  6C09               	negf	___awdiv@dividend^0,c
  4538  002030  1E0A               	comf	(___awdiv@dividend+1)^0,f,c
  4539  002032  B0D8               	btfsc	status,0,c
  4540  002034  2A0A               	incf	(___awdiv@dividend+1)^0,f,c
  4541  002036  0E01               	movlw	1
  4542  002038  1A0E               	xorwf	___awdiv@sign^0,f,c
  4543  00203A                     l2783:
  4544  00203A  0E00               	movlw	0
  4545  00203C  6E10               	movwf	(___awdiv@quotient+1)^0,c
  4546  00203E  0E00               	movlw	0
  4547  002040  6E0F               	movwf	___awdiv@quotient^0,c
  4548  002042  500B               	movf	___awdiv@divisor^0,w,c
  4549  002044  100C               	iorwf	(___awdiv@divisor+1)^0,w,c
  4550  002046  B4D8               	btfsc	status,2,c
  4551  002048  EF28  F010         	goto	u2601
  4552  00204C  EF2A  F010         	goto	u2600
  4553  002050                     u2601:
  4554  002050  EF52  F010         	goto	l2805
  4555  002054                     u2600:
  4556  002054  0E01               	movlw	1
  4557  002056  6E0D               	movwf	___awdiv@counter^0,c
  4558  002058  EF32  F010         	goto	l2791
  4559  00205C                     l2789:
  4560  00205C  90D8               	bcf	status,0,c
  4561  00205E  360B               	rlcf	___awdiv@divisor^0,f,c
  4562  002060  360C               	rlcf	(___awdiv@divisor+1)^0,f,c
  4563  002062  2A0D               	incf	___awdiv@counter^0,f,c
  4564  002064                     l2791:
  4565  002064  AE0C               	btfss	(___awdiv@divisor+1)^0,7,c
  4566  002066  EF37  F010         	goto	u2611
  4567  00206A  EF39  F010         	goto	u2610
  4568  00206E                     u2611:
  4569  00206E  EF2E  F010         	goto	l2789
  4570  002072                     u2610:
  4571  002072                     l2793:
  4572  002072  90D8               	bcf	status,0,c
  4573  002074  360F               	rlcf	___awdiv@quotient^0,f,c
  4574  002076  3610               	rlcf	(___awdiv@quotient+1)^0,f,c
  4575  002078  500B               	movf	___awdiv@divisor^0,w,c
  4576  00207A  5C09               	subwf	___awdiv@dividend^0,w,c
  4577  00207C  500C               	movf	(___awdiv@divisor+1)^0,w,c
  4578  00207E  580A               	subwfb	(___awdiv@dividend+1)^0,w,c
  4579  002080  A0D8               	btfss	status,0,c
  4580  002082  EF45  F010         	goto	u2621
  4581  002086  EF47  F010         	goto	u2620
  4582  00208A                     u2621:
  4583  00208A  EF4C  F010         	goto	l2801
  4584  00208E                     u2620:
  4585  00208E  500B               	movf	___awdiv@divisor^0,w,c
  4586  002090  5E09               	subwf	___awdiv@dividend^0,f,c
  4587  002092  500C               	movf	(___awdiv@divisor+1)^0,w,c
  4588  002094  5A0A               	subwfb	(___awdiv@dividend+1)^0,f,c
  4589  002096  800F               	bsf	___awdiv@quotient^0,0,c
  4590  002098                     l2801:
  4591  002098  90D8               	bcf	status,0,c
  4592  00209A  320C               	rrcf	(___awdiv@divisor+1)^0,f,c
  4593  00209C  320B               	rrcf	___awdiv@divisor^0,f,c
  4594  00209E  2E0D               	decfsz	___awdiv@counter^0,f,c
  4595  0020A0  EF39  F010         	goto	l2793
  4596  0020A4                     l2805:
  4597  0020A4  500E               	movf	___awdiv@sign^0,w,c
  4598  0020A6  B4D8               	btfsc	status,2,c
  4599  0020A8  EF58  F010         	goto	u2631
  4600  0020AC  EF5A  F010         	goto	u2630
  4601  0020B0                     u2631:
  4602  0020B0  EF5E  F010         	goto	l2809
  4603  0020B4                     u2630:
  4604  0020B4  6C0F               	negf	___awdiv@quotient^0,c
  4605  0020B6  1E10               	comf	(___awdiv@quotient+1)^0,f,c
  4606  0020B8  B0D8               	btfsc	status,0,c
  4607  0020BA  2A10               	incf	(___awdiv@quotient+1)^0,f,c
  4608  0020BC                     l2809:
  4609  0020BC  C00F  F009         	movff	___awdiv@quotient,?___awdiv
  4610  0020C0  C010  F00A         	movff	___awdiv@quotient+1,?___awdiv+1
  4611  0020C4  0012               	return		;funcret
  4612  0020C6                     __end_of___awdiv:
  4613                           	opt callstack 0
  4614                           
  4615 ;; *************** function _LCD_String_xy *****************
  4616 ;; Defined at:
  4617 ;;		line 59 in file "lcd.c"
  4618 ;; Parameters:    Size  Location     Type
  4619 ;;  row             1    wreg     unsigned char 
  4620 ;;  pos             1   10[COMRAM] unsigned char 
  4621 ;;  msg             2   11[COMRAM] PTR const unsigned char 
  4622 ;;		 -> main@Potencio(10), STR_10(12), STR_8(12), main@Temperatura(10), 
  4623 ;;		 -> STR_6(12), STR_5(10), STR_4(9), STR_3(13), 
  4624 ;;		 -> STR_2(9), STR_1(13), 
  4625 ;; Auto vars:     Size  Location     Type
  4626 ;;  row             1   13[COMRAM] unsigned char 
  4627 ;;  location        1   14[COMRAM] unsigned char 
  4628 ;; Return value:  Size  Location     Type
  4629 ;;                  1    wreg      void 
  4630 ;; Registers used:
  4631 ;;		wreg, fsr0l, fsr0h, status,2, status,0, tblptrl, tblptrh, tblptru, cstack
  4632 ;; Tracked objects:
  4633 ;;		On entry : 0/0
  4634 ;;		On exit  : 0/0
  4635 ;;		Unchanged: 0/0
  4636 ;; Data sizes:     COMRAM   BANK0   BANK1   BANK2   BANK3   BANK4   BANK5   BANK6   BANK7
  4637 ;;      Params:         3       0       0       0       0       0       0       0       0
  4638 ;;      Locals:         2       0       0       0       0       0       0       0       0
  4639 ;;      Temps:          0       0       0       0       0       0       0       0       0
  4640 ;;      Totals:         5       0       0       0       0       0       0       0       0
  4641 ;;Total ram usage:        5 bytes
  4642 ;; Hardware stack levels used:    1
  4643 ;; Hardware stack levels required when called:    3
  4644 ;; This function calls:
  4645 ;;		_LCD_Command
  4646 ;;		_LCD_String
  4647 ;; This function is called by:
  4648 ;;		_main
  4649 ;; This function uses a non-reentrant model
  4650 ;;
  4651                           
  4652                           	psect	text15
  4653  0023E4                     __ptext15:
  4654                           	opt callstack 0
  4655  0023E4                     _LCD_String_xy:
  4656                           	opt callstack 27
  4657                           
  4658                           ;incstack = 0
  4659                           ;LCD_String_xy@row stored from wreg
  4660  0023E4  6E0E               	movwf	LCD_String_xy@row^0,c
  4661  0023E6                     
  4662                           ;lcd.c: 62: if(row<=1)
  4663  0023E6  0E02               	movlw	2
  4664  0023E8  600E               	cpfslt	LCD_String_xy@row^0,c
  4665  0023EA  EFF9  F011         	goto	u1621
  4666  0023EE  EFFB  F011         	goto	u1620
  4667  0023F2                     u1621:
  4668  0023F2  EF04  F012         	goto	l2201
  4669  0023F6                     u1620:
  4670  0023F6                     
  4671                           ;lcd.c: 63: {;lcd.c: 64: location = (0x80) | ((pos) & 0x0f);
  4672  0023F6  500B               	movf	LCD_String_xy@pos^0,w,c
  4673  0023F8  0B0F               	andlw	15
  4674  0023FA  0980               	iorlw	128
  4675  0023FC  6E0F               	movwf	LCD_String_xy@location^0,c
  4676  0023FE                     
  4677                           ;lcd.c: 65: LCD_Command(location);
  4678  0023FE  500F               	movf	LCD_String_xy@location^0,w,c
  4679  002400  ECA7  F011         	call	_LCD_Command
  4680                           
  4681                           ;lcd.c: 66: }
  4682  002404  EF0B  F012         	goto	l2205
  4683  002408                     l2201:
  4684                           
  4685                           ;lcd.c: 67: else;lcd.c: 68: {;lcd.c: 69: location = (0xC0) | ((pos) & 0x0f);
  4686  002408  500B               	movf	LCD_String_xy@pos^0,w,c
  4687  00240A  0B0F               	andlw	15
  4688  00240C  09C0               	iorlw	192
  4689  00240E  6E0F               	movwf	LCD_String_xy@location^0,c
  4690  002410                     
  4691                           ;lcd.c: 70: LCD_Command(location);
  4692  002410  500F               	movf	LCD_String_xy@location^0,w,c
  4693  002412  ECA7  F011         	call	_LCD_Command
  4694  002416                     l2205:
  4695                           
  4696                           ;lcd.c: 71: };lcd.c: 74: LCD_String(msg);
  4697  002416  C00C  F009         	movff	LCD_String_xy@msg,LCD_String@msg
  4698  00241A  C00D  F00A         	movff	LCD_String_xy@msg+1,LCD_String@msg+1
  4699  00241E  EC52  F011         	call	_LCD_String	;wreg free
  4700  002422  0012               	return		;funcret
  4701  002424                     __end_of_LCD_String_xy:
  4702                           	opt callstack 0
  4703                           
  4704 ;; *************** function _LCD_String *****************
  4705 ;; Defined at:
  4706 ;;		line 49 in file "lcd.c"
  4707 ;; Parameters:    Size  Location     Type
  4708 ;;  msg             2    8[COMRAM] PTR const unsigned char 
  4709 ;;		 -> main@Potencio(10), STR_10(12), STR_8(12), main@Temperatura(10), 
  4710 ;;		 -> STR_6(12), STR_5(10), STR_4(9), STR_3(13), 
  4711 ;;		 -> STR_2(9), STR_1(13), 
  4712 ;; Auto vars:     Size  Location     Type
  4713 ;;		None
  4714 ;; Return value:  Size  Location     Type
  4715 ;;                  1    wreg      void 
  4716 ;; Registers used:
  4717 ;;		wreg, fsr0l, fsr0h, status,2, status,0, tblptrl, tblptrh, tblptru, cstack
  4718 ;; Tracked objects:
  4719 ;;		On entry : 0/0
  4720 ;;		On exit  : 0/0
  4721 ;;		Unchanged: 0/0
  4722 ;; Data sizes:     COMRAM   BANK0   BANK1   BANK2   BANK3   BANK4   BANK5   BANK6   BANK7
  4723 ;;      Params:         2       0       0       0       0       0       0       0       0
  4724 ;;      Locals:         0       0       0       0       0       0       0       0       0
  4725 ;;      Temps:          0       0       0       0       0       0       0       0       0
  4726 ;;      Totals:         2       0       0       0       0       0       0       0       0
  4727 ;;Total ram usage:        2 bytes
  4728 ;; Hardware stack levels used:    1
  4729 ;; Hardware stack levels required when called:    2
  4730 ;; This function calls:
  4731 ;;		_LCD_Char
  4732 ;; This function is called by:
  4733 ;;		_LCD_String_xy
  4734 ;; This function uses a non-reentrant model
  4735 ;;
  4736                           
  4737                           	psect	text16
  4738  0022A4                     __ptext16:
  4739                           	opt callstack 0
  4740  0022A4                     _LCD_String:
  4741                           	opt callstack 27
  4742  0022A4                     
  4743                           ;lcd.c: 51: while((*msg)!=0)
  4744  0022A4  EF68  F011         	goto	l2117
  4745  0022A8                     l2113:
  4746                           
  4747                           ;lcd.c: 52: {;lcd.c: 53: LCD_Char(*msg);
  4748  0022A8  C009  FFF6         	movff	LCD_String@msg,tblptrl
  4749  0022AC  C00A  FFF7         	movff	LCD_String@msg+1,tblptrh
  4750  0022B0  6AF8               	clrf	tblptru,c
  4751  0022B2  0E07               	movlw	(high __ramtop+-1)
  4752  0022B4  64F7               	cpfsgt	tblptrh,c
  4753  0022B6  D003               	bra	u1497
  4754  0022B8  0008               	tblrd		*
  4755  0022BA  50F5               	movf	tablat,w,c
  4756  0022BC  D005               	bra	u1490
  4757  0022BE                     u1497:
  4758  0022BE  CFF6 FFE9          	movff	tblptrl,fsr0l
  4759  0022C2  CFF7 FFEA          	movff	tblptrh,fsr0h
  4760  0022C6  50EF               	movf	indf0,w,c
  4761  0022C8                     u1490:
  4762  0022C8  EC81  F011         	call	_LCD_Char
  4763  0022CC                     
  4764                           ;lcd.c: 54: msg++;
  4765  0022CC  4A09               	infsnz	LCD_String@msg^0,f,c
  4766  0022CE  2A0A               	incf	(LCD_String@msg+1)^0,f,c
  4767  0022D0                     l2117:
  4768  0022D0  C009  FFF6         	movff	LCD_String@msg,tblptrl
  4769  0022D4  C00A  FFF7         	movff	LCD_String@msg+1,tblptrh
  4770  0022D8  6AF8               	clrf	tblptru,c
  4771  0022DA  0E07               	movlw	(high __ramtop+-1)
  4772  0022DC  64F7               	cpfsgt	tblptrh,c
  4773  0022DE  D003               	bra	u1507
  4774  0022E0  0008               	tblrd		*
  4775  0022E2  50F5               	movf	tablat,w,c
  4776  0022E4  D005               	bra	u1500
  4777  0022E6                     u1507:
  4778  0022E6  CFF6 FFE9          	movff	tblptrl,fsr0l
  4779  0022EA  CFF7 FFEA          	movff	tblptrh,fsr0h
  4780  0022EE  50EF               	movf	indf0,w,c
  4781  0022F0                     u1500:
  4782  0022F0  0900               	iorlw	0
  4783  0022F2  A4D8               	btfss	status,2,c
  4784  0022F4  EF7E  F011         	goto	u1511
  4785  0022F8  EF80  F011         	goto	u1510
  4786  0022FC                     u1511:
  4787  0022FC  EF54  F011         	goto	l2113
  4788  002300                     u1510:
  4789  002300  0012               	return		;funcret
  4790  002302                     __end_of_LCD_String:
  4791                           	opt callstack 0
  4792                           
  4793 ;; *************** function _LCD_Char *****************
  4794 ;; Defined at:
  4795 ;;		line 35 in file "lcd.c"
  4796 ;; Parameters:    Size  Location     Type
  4797 ;;  dat             1    wreg     unsigned char 
  4798 ;; Auto vars:     Size  Location     Type
  4799 ;;  dat             1    7[COMRAM] unsigned char 
  4800 ;; Return value:  Size  Location     Type
  4801 ;;                  1    wreg      void 
  4802 ;; Registers used:
  4803 ;;		wreg, status,2, status,0, cstack
  4804 ;; Tracked objects:
  4805 ;;		On entry : 0/0
  4806 ;;		On exit  : 0/0
  4807 ;;		Unchanged: 0/0
  4808 ;; Data sizes:     COMRAM   BANK0   BANK1   BANK2   BANK3   BANK4   BANK5   BANK6   BANK7
  4809 ;;      Params:         0       0       0       0       0       0       0       0       0
  4810 ;;      Locals:         1       0       0       0       0       0       0       0       0
  4811 ;;      Temps:          1       0       0       0       0       0       0       0       0
  4812 ;;      Totals:         2       0       0       0       0       0       0       0       0
  4813 ;;Total ram usage:        2 bytes
  4814 ;; Hardware stack levels used:    1
  4815 ;; Hardware stack levels required when called:    1
  4816 ;; This function calls:
  4817 ;;		_MSdelay
  4818 ;; This function is called by:
  4819 ;;		_LCD_String
  4820 ;;		_keyfind
  4821 ;; This function uses a non-reentrant model
  4822 ;;
  4823                           
  4824                           	psect	text17
  4825  002302                     __ptext17:
  4826                           	opt callstack 0
  4827  002302                     _LCD_Char:
  4828                           	opt callstack 28
  4829                           
  4830                           ;incstack = 0
  4831                           ;LCD_Char@dat stored from wreg
  4832  002302  6E08               	movwf	LCD_Char@dat^0,c
  4833  002304                     
  4834                           ;lcd.c: 37: LATD = (LATD & 0x0f) | (0xF0 & dat);
  4835  002304  C008  F007         	movff	LCD_Char@dat,??_LCD_Char
  4836  002308  0EF0               	movlw	240
  4837  00230A  1607               	andwf	??_LCD_Char^0,f,c
  4838  00230C  508C               	movf	140,w,c	;volatile
  4839  00230E  0B0F               	andlw	15
  4840  002310  1007               	iorwf	??_LCD_Char^0,w,c
  4841  002312  6E8C               	movwf	140,c	;volatile
  4842  002314                     
  4843                           ;lcd.c: 38: LATD0 = 1;
  4844  002314  808C               	bsf	3980,0,c	;volatile
  4845  002316                     
  4846                           ;lcd.c: 39: LATD1 = 1;
  4847  002316  828C               	bsf	3980,1,c	;volatile
  4848  002318                     
  4849                           ;lcd.c: 40: __nop();
  4850  002318  F000               	nop	
  4851  00231A                     
  4852                           ;lcd.c: 41: LATD1 = 0;
  4853  00231A  928C               	bcf	3980,1,c	;volatile
  4854  00231C                     
  4855                           ;lcd.c: 42: MSdelay(1);
  4856  00231C  0E00               	movlw	0
  4857  00231E  6E02               	movwf	(MSdelay@val+1)^0,c
  4858  002320  0E01               	movlw	1
  4859  002322  6E01               	movwf	MSdelay@val^0,c
  4860  002324  ECCD  F011         	call	_MSdelay	;wreg free
  4861  002328                     
  4862                           ;lcd.c: 43: LATD = (LATD & 0x0f) | (dat<<4);
  4863  002328  C008  F007         	movff	LCD_Char@dat,??_LCD_Char
  4864  00232C  3A07               	swapf	??_LCD_Char^0,f,c
  4865  00232E  0EF0               	movlw	240
  4866  002330  1607               	andwf	??_LCD_Char^0,f,c
  4867  002332  508C               	movf	140,w,c	;volatile
  4868  002334  0B0F               	andlw	15
  4869  002336  1007               	iorwf	??_LCD_Char^0,w,c
  4870  002338  6E8C               	movwf	140,c	;volatile
  4871  00233A                     
  4872                           ;lcd.c: 44: LATD1 = 1;
  4873  00233A  828C               	bsf	3980,1,c	;volatile
  4874  00233C                     
  4875                           ;lcd.c: 45: __nop();
  4876  00233C  F000               	nop	
  4877  00233E                     
  4878                           ;lcd.c: 46: LATD1 = 0;
  4879  00233E  928C               	bcf	3980,1,c	;volatile
  4880                           
  4881                           ;lcd.c: 47: MSdelay(3);
  4882  002340  0E00               	movlw	0
  4883  002342  6E02               	movwf	(MSdelay@val+1)^0,c
  4884  002344  0E03               	movlw	3
  4885  002346  6E01               	movwf	MSdelay@val^0,c
  4886  002348  ECCD  F011         	call	_MSdelay	;wreg free
  4887  00234C  0012               	return		;funcret
  4888  00234E                     __end_of_LCD_Char:
  4889                           	opt callstack 0
  4890                           
  4891 ;; *************** function _LCD_Init *****************
  4892 ;; Defined at:
  4893 ;;		line 4 in file "lcd.c"
  4894 ;; Parameters:    Size  Location     Type
  4895 ;;		None
  4896 ;; Auto vars:     Size  Location     Type
  4897 ;;		None
  4898 ;; Return value:  Size  Location     Type
  4899 ;;                  1    wreg      void 
  4900 ;; Registers used:
  4901 ;;		wreg, status,2, status,0, cstack
  4902 ;; Tracked objects:
  4903 ;;		On entry : 0/0
  4904 ;;		On exit  : 0/0
  4905 ;;		Unchanged: 0/0
  4906 ;; Data sizes:     COMRAM   BANK0   BANK1   BANK2   BANK3   BANK4   BANK5   BANK6   BANK7
  4907 ;;      Params:         0       0       0       0       0       0       0       0       0
  4908 ;;      Locals:         0       0       0       0       0       0       0       0       0
  4909 ;;      Temps:          0       0       0       0       0       0       0       0       0
  4910 ;;      Totals:         0       0       0       0       0       0       0       0       0
  4911 ;;Total ram usage:        0 bytes
  4912 ;; Hardware stack levels used:    1
  4913 ;; Hardware stack levels required when called:    2
  4914 ;; This function calls:
  4915 ;;		_LCD_Command
  4916 ;;		_MSdelay
  4917 ;; This function is called by:
  4918 ;;		_main
  4919 ;; This function uses a non-reentrant model
  4920 ;;
  4921                           
  4922                           	psect	text18
  4923  0024C2                     __ptext18:
  4924                           	opt callstack 0
  4925  0024C2                     _LCD_Init:
  4926                           	opt callstack 28
  4927  0024C2                     
  4928                           ;lcd.c: 6: TRISD = 0;
  4929  0024C2  0E00               	movlw	0
  4930  0024C4  6E95               	movwf	149,c	;volatile
  4931  0024C6                     
  4932                           ;lcd.c: 7: MSdelay(15);
  4933  0024C6  0E00               	movlw	0
  4934  0024C8  6E02               	movwf	(MSdelay@val+1)^0,c
  4935  0024CA  0E0F               	movlw	15
  4936  0024CC  6E01               	movwf	MSdelay@val^0,c
  4937  0024CE  ECCD  F011         	call	_MSdelay	;wreg free
  4938  0024D2                     
  4939                           ;lcd.c: 8: LCD_Command(0x02);
  4940  0024D2  0E02               	movlw	2
  4941  0024D4  ECA7  F011         	call	_LCD_Command
  4942  0024D8                     
  4943                           ;lcd.c: 10: LCD_Command(0x28);
  4944  0024D8  0E28               	movlw	40
  4945  0024DA  ECA7  F011         	call	_LCD_Command
  4946  0024DE                     
  4947                           ;lcd.c: 12: LCD_Command(0x01);
  4948  0024DE  0E01               	movlw	1
  4949  0024E0  ECA7  F011         	call	_LCD_Command
  4950  0024E4                     
  4951                           ;lcd.c: 13: LCD_Command(0x0c);
  4952  0024E4  0E0C               	movlw	12
  4953  0024E6  ECA7  F011         	call	_LCD_Command
  4954  0024EA                     
  4955                           ;lcd.c: 14: LCD_Command(0x06);
  4956  0024EA  0E06               	movlw	6
  4957  0024EC  ECA7  F011         	call	_LCD_Command
  4958  0024F0  0012               	return		;funcret
  4959  0024F2                     __end_of_LCD_Init:
  4960                           	opt callstack 0
  4961                           
  4962 ;; *************** function _LCD_Clear *****************
  4963 ;; Defined at:
  4964 ;;		line 78 in file "lcd.c"
  4965 ;; Parameters:    Size  Location     Type
  4966 ;;		None
  4967 ;; Auto vars:     Size  Location     Type
  4968 ;;		None
  4969 ;; Return value:  Size  Location     Type
  4970 ;;                  1    wreg      void 
  4971 ;; Registers used:
  4972 ;;		wreg, status,2, status,0, cstack
  4973 ;; Tracked objects:
  4974 ;;		On entry : 0/0
  4975 ;;		On exit  : 0/0
  4976 ;;		Unchanged: 0/0
  4977 ;; Data sizes:     COMRAM   BANK0   BANK1   BANK2   BANK3   BANK4   BANK5   BANK6   BANK7
  4978 ;;      Params:         0       0       0       0       0       0       0       0       0
  4979 ;;      Locals:         0       0       0       0       0       0       0       0       0
  4980 ;;      Temps:          0       0       0       0       0       0       0       0       0
  4981 ;;      Totals:         0       0       0       0       0       0       0       0       0
  4982 ;;Total ram usage:        0 bytes
  4983 ;; Hardware stack levels used:    1
  4984 ;; Hardware stack levels required when called:    2
  4985 ;; This function calls:
  4986 ;;		_LCD_Command
  4987 ;; This function is called by:
  4988 ;;		_main
  4989 ;; This function uses a non-reentrant model
  4990 ;;
  4991                           
  4992                           	psect	text19
  4993  002516                     __ptext19:
  4994                           	opt callstack 0
  4995  002516                     _LCD_Clear:
  4996                           	opt callstack 28
  4997  002516                     
  4998                           ;lcd.c: 80: LCD_Command(0x01);
  4999  002516  0E01               	movlw	1
  5000  002518  ECA7  F011         	call	_LCD_Command
  5001  00251C  0012               	return		;funcret
  5002  00251E                     __end_of_LCD_Clear:
  5003                           	opt callstack 0
  5004                           
  5005 ;; *************** function _LCD_Command *****************
  5006 ;; Defined at:
  5007 ;;		line 17 in file "lcd.c"
  5008 ;; Parameters:    Size  Location     Type
  5009 ;;  cmd             1    wreg     unsigned char 
  5010 ;; Auto vars:     Size  Location     Type
  5011 ;;  cmd             1    7[COMRAM] unsigned char 
  5012 ;; Return value:  Size  Location     Type
  5013 ;;                  1    wreg      void 
  5014 ;; Registers used:
  5015 ;;		wreg, status,2, status,0, cstack
  5016 ;; Tracked objects:
  5017 ;;		On entry : 0/0
  5018 ;;		On exit  : 0/0
  5019 ;;		Unchanged: 0/0
  5020 ;; Data sizes:     COMRAM   BANK0   BANK1   BANK2   BANK3   BANK4   BANK5   BANK6   BANK7
  5021 ;;      Params:         0       0       0       0       0       0       0       0       0
  5022 ;;      Locals:         1       0       0       0       0       0       0       0       0
  5023 ;;      Temps:          1       0       0       0       0       0       0       0       0
  5024 ;;      Totals:         2       0       0       0       0       0       0       0       0
  5025 ;;Total ram usage:        2 bytes
  5026 ;; Hardware stack levels used:    1
  5027 ;; Hardware stack levels required when called:    1
  5028 ;; This function calls:
  5029 ;;		_MSdelay
  5030 ;; This function is called by:
  5031 ;;		_LCD_Init
  5032 ;;		_LCD_String_xy
  5033 ;;		_LCD_Clear
  5034 ;;		_main
  5035 ;; This function uses a non-reentrant model
  5036 ;;
  5037                           
  5038                           	psect	text20
  5039  00234E                     __ptext20:
  5040                           	opt callstack 0
  5041  00234E                     _LCD_Command:
  5042                           	opt callstack 28
  5043                           
  5044                           ;incstack = 0
  5045                           ;LCD_Command@cmd stored from wreg
  5046  00234E  6E08               	movwf	LCD_Command@cmd^0,c
  5047  002350                     
  5048                           ;lcd.c: 19: LATD = (LATD & 0x0f) |(0xF0 & cmd);
  5049  002350  C008  F007         	movff	LCD_Command@cmd,??_LCD_Command
  5050  002354  0EF0               	movlw	240
  5051  002356  1607               	andwf	??_LCD_Command^0,f,c
  5052  002358  508C               	movf	140,w,c	;volatile
  5053  00235A  0B0F               	andlw	15
  5054  00235C  1007               	iorwf	??_LCD_Command^0,w,c
  5055  00235E  6E8C               	movwf	140,c	;volatile
  5056  002360                     
  5057                           ;lcd.c: 20: LATD0 = 0;
  5058  002360  908C               	bcf	3980,0,c	;volatile
  5059  002362                     
  5060                           ;lcd.c: 21: LATD1 = 1;
  5061  002362  828C               	bsf	3980,1,c	;volatile
  5062  002364                     
  5063                           ;lcd.c: 22: __nop();
  5064  002364  F000               	nop	
  5065  002366                     
  5066                           ;lcd.c: 23: LATD1 = 0;
  5067  002366  928C               	bcf	3980,1,c	;volatile
  5068  002368                     
  5069                           ;lcd.c: 24: MSdelay(1);
  5070  002368  0E00               	movlw	0
  5071  00236A  6E02               	movwf	(MSdelay@val+1)^0,c
  5072  00236C  0E01               	movlw	1
  5073  00236E  6E01               	movwf	MSdelay@val^0,c
  5074  002370  ECCD  F011         	call	_MSdelay	;wreg free
  5075  002374                     
  5076                           ;lcd.c: 25: LATD = (LATD & 0x0f) | (cmd<<4);
  5077  002374  C008  F007         	movff	LCD_Command@cmd,??_LCD_Command
  5078  002378  3A07               	swapf	??_LCD_Command^0,f,c
  5079  00237A  0EF0               	movlw	240
  5080  00237C  1607               	andwf	??_LCD_Command^0,f,c
  5081  00237E  508C               	movf	140,w,c	;volatile
  5082  002380  0B0F               	andlw	15
  5083  002382  1007               	iorwf	??_LCD_Command^0,w,c
  5084  002384  6E8C               	movwf	140,c	;volatile
  5085  002386                     
  5086                           ;lcd.c: 26: LATD1 = 1;
  5087  002386  828C               	bsf	3980,1,c	;volatile
  5088  002388                     
  5089                           ;lcd.c: 27: __nop();
  5090  002388  F000               	nop	
  5091  00238A                     
  5092                           ;lcd.c: 28: LATD1 = 0;
  5093  00238A  928C               	bcf	3980,1,c	;volatile
  5094                           
  5095                           ;lcd.c: 29: MSdelay(3);
  5096  00238C  0E00               	movlw	0
  5097  00238E  6E02               	movwf	(MSdelay@val+1)^0,c
  5098  002390  0E03               	movlw	3
  5099  002392  6E01               	movwf	MSdelay@val^0,c
  5100  002394  ECCD  F011         	call	_MSdelay	;wreg free
  5101  002398  0012               	return		;funcret
  5102  00239A                     __end_of_LCD_Command:
  5103                           	opt callstack 0
  5104                           
  5105 ;; *************** function _MSdelay *****************
  5106 ;; Defined at:
  5107 ;;		line 83 in file "lcd.c"
  5108 ;; Parameters:    Size  Location     Type
  5109 ;;  val             2    0[COMRAM] unsigned int 
  5110 ;; Auto vars:     Size  Location     Type
  5111 ;;  j               2    4[COMRAM] unsigned int 
  5112 ;;  i               2    2[COMRAM] unsigned int 
  5113 ;; Return value:  Size  Location     Type
  5114 ;;                  1    wreg      void 
  5115 ;; Registers used:
  5116 ;;		wreg, status,2, status,0
  5117 ;; Tracked objects:
  5118 ;;		On entry : 0/0
  5119 ;;		On exit  : 0/0
  5120 ;;		Unchanged: 0/0
  5121 ;; Data sizes:     COMRAM   BANK0   BANK1   BANK2   BANK3   BANK4   BANK5   BANK6   BANK7
  5122 ;;      Params:         2       0       0       0       0       0       0       0       0
  5123 ;;      Locals:         4       0       0       0       0       0       0       0       0
  5124 ;;      Temps:          0       0       0       0       0       0       0       0       0
  5125 ;;      Totals:         6       0       0       0       0       0       0       0       0
  5126 ;;Total ram usage:        6 bytes
  5127 ;; Hardware stack levels used:    1
  5128 ;; This function calls:
  5129 ;;		Nothing
  5130 ;; This function is called by:
  5131 ;;		_LCD_Init
  5132 ;;		_LCD_Command
  5133 ;;		_LCD_Char
  5134 ;;		_keyfind
  5135 ;;		_main
  5136 ;;		_dimmer
  5137 ;; This function uses a non-reentrant model
  5138 ;;
  5139                           
  5140                           	psect	text21
  5141  00239A                     __ptext21:
  5142                           	opt callstack 0
  5143  00239A                     _MSdelay:
  5144                           	opt callstack 29
  5145  00239A                     
  5146                           ;lcd.c: 85: unsigned int i,j;;lcd.c: 86: for(i=0;i<val;i++)
  5147  00239A  0E00               	movlw	0
  5148  00239C  6E04               	movwf	(MSdelay@i+1)^0,c
  5149  00239E  0E00               	movlw	0
  5150  0023A0  6E03               	movwf	MSdelay@i^0,c
  5151  0023A2  EFE6  F011         	goto	l2069
  5152  0023A6                     l2057:
  5153                           
  5154                           ;lcd.c: 87: for(j=0;j<165;j++);
  5155  0023A6  0E00               	movlw	0
  5156  0023A8  6E06               	movwf	(MSdelay@j+1)^0,c
  5157  0023AA  0E00               	movlw	0
  5158  0023AC  6E05               	movwf	MSdelay@j^0,c
  5159  0023AE                     l2063:
  5160  0023AE  4A05               	infsnz	MSdelay@j^0,f,c
  5161  0023B0  2A06               	incf	(MSdelay@j+1)^0,f,c
  5162  0023B2  5006               	movf	(MSdelay@j+1)^0,w,c
  5163  0023B4  E109               	bnz	u1470
  5164  0023B6  0EA5               	movlw	165
  5165  0023B8  5C05               	subwf	MSdelay@j^0,w,c
  5166  0023BA  A0D8               	btfss	status,0,c
  5167  0023BC  EFE2  F011         	goto	u1471
  5168  0023C0  EFE4  F011         	goto	u1470
  5169  0023C4                     u1471:
  5170  0023C4  EFD7  F011         	goto	l2063
  5171  0023C8                     u1470:
  5172  0023C8  4A03               	infsnz	MSdelay@i^0,f,c
  5173  0023CA  2A04               	incf	(MSdelay@i+1)^0,f,c
  5174  0023CC                     l2069:
  5175  0023CC  5001               	movf	MSdelay@val^0,w,c
  5176  0023CE  5C03               	subwf	MSdelay@i^0,w,c
  5177  0023D0  5002               	movf	(MSdelay@val+1)^0,w,c
  5178  0023D2  5804               	subwfb	(MSdelay@i+1)^0,w,c
  5179  0023D4  A0D8               	btfss	status,0,c
  5180  0023D6  EFEF  F011         	goto	u1481
  5181  0023DA  EFF1  F011         	goto	u1480
  5182  0023DE                     u1481:
  5183  0023DE  EFD3  F011         	goto	l2057
  5184  0023E2                     u1480:
  5185  0023E2  0012               	return		;funcret
  5186  0023E4                     __end_of_MSdelay:
  5187                           	opt callstack 0
  5188                           
  5189 ;; *************** function _ADC_Read *****************
  5190 ;; Defined at:
  5191 ;;		line 13 in file "adc.c"
  5192 ;; Parameters:    Size  Location     Type
  5193 ;;  channel         2    0[COMRAM] int 
  5194 ;; Auto vars:     Size  Location     Type
  5195 ;;  digital         2    6[COMRAM] int 
  5196 ;; Return value:  Size  Location     Type
  5197 ;;                  2    0[COMRAM] int 
  5198 ;; Registers used:
  5199 ;;		wreg, status,2, status,0
  5200 ;; Tracked objects:
  5201 ;;		On entry : 0/0
  5202 ;;		On exit  : 0/0
  5203 ;;		Unchanged: 0/0
  5204 ;; Data sizes:     COMRAM   BANK0   BANK1   BANK2   BANK3   BANK4   BANK5   BANK6   BANK7
  5205 ;;      Params:         2       0       0       0       0       0       0       0       0
  5206 ;;      Locals:         2       0       0       0       0       0       0       0       0
  5207 ;;      Temps:          4       0       0       0       0       0       0       0       0
  5208 ;;      Totals:         8       0       0       0       0       0       0       0       0
  5209 ;;Total ram usage:        8 bytes
  5210 ;; Hardware stack levels used:    1
  5211 ;; This function calls:
  5212 ;;		Nothing
  5213 ;; This function is called by:
  5214 ;;		_main
  5215 ;; This function uses a non-reentrant model
  5216 ;;
  5217                           
  5218                           	psect	text22
  5219  0020C6                     __ptext22:
  5220                           	opt callstack 0
  5221  0020C6                     _ADC_Read:
  5222                           	opt callstack 30
  5223  0020C6                     
  5224                           ;adc.c: 15: int digital;;adc.c: 16: ADCON0 =(ADCON0 & 0b11000011)|((channel<<2) & 0b0011
      +                          1100);
  5225  0020C6  C001  F003         	movff	ADC_Read@channel,??_ADC_Read
  5226  0020CA  90D8               	bcf	status,0,c
  5227  0020CC  3603               	rlcf	??_ADC_Read^0,f,c
  5228  0020CE  90D8               	bcf	status,0,c
  5229  0020D0  3603               	rlcf	??_ADC_Read^0,f,c
  5230  0020D2  0E3C               	movlw	60
  5231  0020D4  1603               	andwf	??_ADC_Read^0,f,c
  5232  0020D6  50C2               	movf	194,w,c	;volatile
  5233  0020D8  0BC3               	andlw	195
  5234  0020DA  1003               	iorwf	??_ADC_Read^0,w,c
  5235  0020DC  6EC2               	movwf	194,c	;volatile
  5236                           
  5237                           ;adc.c: 18: ADCON0 |= ((1<<ADON)|(1<<GO));
  5238  0020DE  B2C2               	btfsc	4034,1,c	;volatile
  5239  0020E0  EF74  F010         	goto	u1901
  5240  0020E4  EF78  F010         	goto	u1900
  5241  0020E8                     u1901:
  5242  0020E8  6A03               	clrf	??_ADC_Read^0,c
  5243  0020EA  2A03               	incf	??_ADC_Read^0,f,c
  5244  0020EC  EF79  F010         	goto	u1918
  5245  0020F0                     u1900:
  5246  0020F0  6A03               	clrf	??_ADC_Read^0,c
  5247  0020F2                     u1918:
  5248  0020F2  0E01               	movlw	1
  5249  0020F4  6E04               	movwf	(??_ADC_Read+1)^0,c
  5250  0020F6  2A03               	incf	??_ADC_Read^0,f,c
  5251  0020F8  EF80  F010         	goto	u1924
  5252  0020FC                     u1925:
  5253  0020FC  90D8               	bcf	status,0,c
  5254  0020FE  3604               	rlcf	(??_ADC_Read+1)^0,f,c
  5255  002100                     u1924:
  5256  002100  2E03               	decfsz	??_ADC_Read^0,f,c
  5257  002102  EF7E  F010         	goto	u1925
  5258  002106  B0C2               	btfsc	4034,0,c	;volatile
  5259  002108  EF88  F010         	goto	u1931
  5260  00210C  EF8C  F010         	goto	u1930
  5261  002110                     u1931:
  5262  002110  6A05               	clrf	(??_ADC_Read+2)^0,c
  5263  002112  2A05               	incf	(??_ADC_Read+2)^0,f,c
  5264  002114  EF8D  F010         	goto	u1948
  5265  002118                     u1930:
  5266  002118  6A05               	clrf	(??_ADC_Read+2)^0,c
  5267  00211A                     u1948:
  5268  00211A  0E01               	movlw	1
  5269  00211C  6E06               	movwf	(??_ADC_Read+3)^0,c
  5270  00211E  2A05               	incf	(??_ADC_Read+2)^0,f,c
  5271  002120  EF94  F010         	goto	u1954
  5272  002124                     u1955:
  5273  002124  90D8               	bcf	status,0,c
  5274  002126  3606               	rlcf	(??_ADC_Read+3)^0,f,c
  5275  002128                     u1954:
  5276  002128  2E05               	decfsz	(??_ADC_Read+2)^0,f,c
  5277  00212A  EF92  F010         	goto	u1955
  5278  00212E  5006               	movf	(??_ADC_Read+3)^0,w,c
  5279  002130  1004               	iorwf	(??_ADC_Read+1)^0,w,c
  5280  002132  12C2               	iorwf	194,f,c	;volatile
  5281  002134                     l255:
  5282  002134  B2C2               	btfsc	194,1,c	;volatile
  5283  002136  EF9F  F010         	goto	u1961
  5284  00213A  EFA1  F010         	goto	u1960
  5285  00213E                     u1961:
  5286  00213E  EF9A  F010         	goto	l255
  5287  002142                     u1960:
  5288  002142                     
  5289                           ;adc.c: 20: digital = (ADRESH*256) | (ADRESL);
  5290  002142  50C3               	movf	195,w,c	;volatile
  5291  002144  CFC4 F003          	movff	4036,??_ADC_Read	;volatile
  5292  002148  6A04               	clrf	(??_ADC_Read+1)^0,c
  5293  00214A  C003  F004         	movff	??_ADC_Read,??_ADC_Read+1
  5294  00214E  6A03               	clrf	??_ADC_Read^0,c
  5295  002150  1003               	iorwf	??_ADC_Read^0,w,c
  5296  002152  6E07               	movwf	ADC_Read@digital^0,c
  5297  002154  5004               	movf	(??_ADC_Read+1)^0,w,c
  5298  002156  6E08               	movwf	(ADC_Read@digital+1)^0,c
  5299  002158                     
  5300                           ;adc.c: 21: return(digital);
  5301  002158  C007  F001         	movff	ADC_Read@digital,?_ADC_Read
  5302  00215C  C008  F002         	movff	ADC_Read@digital+1,?_ADC_Read+1
  5303  002160  0012               	return		;funcret
  5304  002162                     __end_of_ADC_Read:
  5305                           	opt callstack 0
  5306                           
  5307 ;; *************** function _ADC_Init *****************
  5308 ;; Defined at:
  5309 ;;		line 4 in file "adc.c"
  5310 ;; Parameters:    Size  Location     Type
  5311 ;;		None
  5312 ;; Auto vars:     Size  Location     Type
  5313 ;;		None
  5314 ;; Return value:  Size  Location     Type
  5315 ;;                  1    wreg      void 
  5316 ;; Registers used:
  5317 ;;		wreg, status,2
  5318 ;; Tracked objects:
  5319 ;;		On entry : 0/0
  5320 ;;		On exit  : 0/0
  5321 ;;		Unchanged: 0/0
  5322 ;; Data sizes:     COMRAM   BANK0   BANK1   BANK2   BANK3   BANK4   BANK5   BANK6   BANK7
  5323 ;;      Params:         0       0       0       0       0       0       0       0       0
  5324 ;;      Locals:         0       0       0       0       0       0       0       0       0
  5325 ;;      Temps:          0       0       0       0       0       0       0       0       0
  5326 ;;      Totals:         0       0       0       0       0       0       0       0       0
  5327 ;;Total ram usage:        0 bytes
  5328 ;; Hardware stack levels used:    1
  5329 ;; This function calls:
  5330 ;;		Nothing
  5331 ;; This function is called by:
  5332 ;;		_main
  5333 ;; This function uses a non-reentrant model
  5334 ;;
  5335                           
  5336                           	psect	text23
  5337  0024F2                     __ptext23:
  5338                           	opt callstack 0
  5339  0024F2                     _ADC_Init:
  5340                           	opt callstack 30
  5341  0024F2                     
  5342                           ;adc.c: 6: TRISA = 0xff;
  5343  0024F2  6892               	setf	146,c	;volatile
  5344  0024F4                     
  5345                           ;adc.c: 7: ADCON1 = 0x0D;
  5346  0024F4  0E0D               	movlw	13
  5347  0024F6  6EC1               	movwf	193,c	;volatile
  5348                           
  5349                           ;adc.c: 8: ADCON2 = 0x92;
  5350  0024F8  0E92               	movlw	146
  5351  0024FA  6EC0               	movwf	192,c	;volatile
  5352                           
  5353                           ;adc.c: 9: ADRESH=0;
  5354  0024FC  0E00               	movlw	0
  5355  0024FE  6EC4               	movwf	196,c	;volatile
  5356                           
  5357                           ;adc.c: 10: ADRESL=0;
  5358  002500  0E00               	movlw	0
  5359  002502  6EC3               	movwf	195,c	;volatile
  5360  002504  0012               	return		;funcret
  5361  002506                     __end_of_ADC_Init:
  5362                           	opt callstack 0
  5363                           
  5364                           	psect	rparam
  5365  0000                     tosu	equ	0xFFF
  5366                           tosh	equ	0xFFE
  5367                           tosl	equ	0xFFD
  5368                           stkptr	equ	0xFFC
  5369                           pclatu	equ	0xFFB
  5370                           pclath	equ	0xFFA
  5371                           pcl	equ	0xFF9
  5372                           tblptru	equ	0xFF8
  5373                           tblptrh	equ	0xFF7
  5374                           tblptrl	equ	0xFF6
  5375                           tablat	equ	0xFF5
  5376                           prodh	equ	0xFF4
  5377                           prodl	equ	0xFF3
  5378                           indf0	equ	0xFEF
  5379                           postinc0	equ	0xFEE
  5380                           postdec0	equ	0xFED
  5381                           preinc0	equ	0xFEC
  5382                           plusw0	equ	0xFEB
  5383                           fsr0h	equ	0xFEA
  5384                           fsr0l	equ	0xFE9
  5385                           wreg	equ	0xFE8
  5386                           indf1	equ	0xFE7
  5387                           postinc1	equ	0xFE6
  5388                           postdec1	equ	0xFE5
  5389                           preinc1	equ	0xFE4
  5390                           plusw1	equ	0xFE3
  5391                           fsr1h	equ	0xFE2
  5392                           fsr1l	equ	0xFE1
  5393                           bsr	equ	0xFE0
  5394                           indf2	equ	0xFDF
  5395                           postinc2	equ	0xFDE
  5396                           postdec2	equ	0xFDD
  5397                           preinc2	equ	0xFDC
  5398                           plusw2	equ	0xFDB
  5399                           fsr2h	equ	0xFDA
  5400                           fsr2l	equ	0xFD9
  5401                           status	equ	0xFD8


Data Sizes:
    Strings     66
    Constant    10
    Data        16
    BSS         5
    Persistent  0
    Stack       0

Auto Spaces:
    Space          Size  Autos    Used
    COMRAM           95     80      85
    BANK0           160     49      65
    BANK1           256      0       0
    BANK2           256      0       0
    BANK3           256      0       0
    BANK4           256      0       0
    BANK5           256      0       0
    BANK6           256      0       0
    BANK7           256      0       0

Pointer List with Targets:

    memset@p1	PTR void  size(2) Largest target is 10
		 -> main@Temperatura(BANK0[10]), 

    memset@p	PTR unsigned char  size(2) Largest target is 10
		 -> main@Temperatura(BANK0[10]), 

    atol@s	PTR const unsigned char  size(2) Largest target is 2
		 -> main@sp(BANK0[2]), 

    sprintf@f	PTR const unsigned char  size(2) Largest target is 6
		 -> STR_11(CODE[4]), STR_9(CODE[6]), STR_7(CODE[6]), 

    sprintf@sp	PTR unsigned char  size(2) Largest target is 10
		 -> main@Potencio(BANK0[10]), main@Temperatura(BANK0[10]), 

    sprintf@ap	PTR void [1] size(2) Largest target is 2
		 -> ?_sprintf(COMRAM[2]), 

    sp__memset	PTR void  size(2) Largest target is 10
		 -> main@Temperatura(BANK0[10]), 

    LCD_String_xy@msg	PTR const unsigned char  size(2) Largest target is 13
		 -> main@Potencio(BANK0[10]), STR_10(CODE[12]), STR_8(CODE[12]), main@Temperatura(BANK0[10]), 
		 -> STR_6(CODE[12]), STR_5(CODE[10]), STR_4(CODE[9]), STR_3(CODE[13]), 
		 -> STR_2(CODE[9]), STR_1(CODE[13]), 

    LCD_String@msg	PTR const unsigned char  size(2) Largest target is 13
		 -> main@Potencio(BANK0[10]), STR_10(CODE[12]), STR_8(CODE[12]), main@Temperatura(BANK0[10]), 
		 -> STR_6(CODE[12]), STR_5(CODE[10]), STR_4(CODE[9]), STR_3(CODE[13]), 
		 -> STR_2(CODE[9]), STR_1(CODE[13]), 


Critical Paths under _main in COMRAM

    _main->___fldiv
    _sprintf->___lwmod
    ___lwmod->___lwdiv
    _keyfind->_LCD_Char
    _dimmer->___fltol
    _atol->___lmul
    ___xxtofl->___awdiv
    ___flmul->___xxtofl
    ___fldiv->___flmul
    ___awdiv->_ADC_Read
    _LCD_String_xy->_LCD_String
    _LCD_String->_LCD_Char
    _LCD_Char->_MSdelay
    _LCD_Init->_LCD_Command
    _LCD_Clear->_LCD_Command
    _LCD_Command->_MSdelay

Critical Paths under _main in BANK0

    None.

Critical Paths under _main in BANK1

    None.

Critical Paths under _main in BANK2

    None.

Critical Paths under _main in BANK3

    None.

Critical Paths under _main in BANK4

    None.

Critical Paths under _main in BANK5

    None.

Critical Paths under _main in BANK6

    None.

Critical Paths under _main in BANK7

    None.

Call Graph Tables:

 ---------------------------------------------------------------------------------
 (Depth) Function   	        Calls       Base Space   Used Autos Params    Refs
 ---------------------------------------------------------------------------------
 (0) _main                                                49    49      0   28202
                                              0 BANK0     49    49      0
                           _ADC_Init
                           _ADC_Read
                          _LCD_Clear
                        _LCD_Command
                           _LCD_Init
                      _LCD_String_xy
                            _MSdelay
                            ___awdiv
                            ___fldiv
                            ___flmul
                            ___fltol
                           ___xxtofl
                               _atol
                             _dimmer
                            _keyfind
                             _memset
                            _sprintf
 ---------------------------------------------------------------------------------
 (1) _sprintf                                             23    17      6    1558
                                             12 COMRAM    14     8      6
                            ___fltol (ARG)
                            ___lwdiv
                            ___lwmod
 ---------------------------------------------------------------------------------
 (2) ___lwmod                                              5     1      4     311
                                              7 COMRAM     5     1      4
                            ___lwdiv (ARG)
 ---------------------------------------------------------------------------------
 (2) ___lwdiv                                              7     3      4     314
                                              0 COMRAM     7     3      4
 ---------------------------------------------------------------------------------
 (1) _memset                                               8     2      6     552
                                              0 COMRAM     8     2      6
 ---------------------------------------------------------------------------------
 (1) _keyfind                                              0     0      0    3268
                           _LCD_Char
                            _MSdelay
 ---------------------------------------------------------------------------------
 (1) _dimmer                                               4     2      2    1832
                                             10 COMRAM     4     2      2
                            _MSdelay
                            ___fltol (ARG)
 ---------------------------------------------------------------------------------
 (1) _atol                                                14    10      4     834
                                             12 COMRAM    14    10      4
                             ___lmul
                            _isdigit
 ---------------------------------------------------------------------------------
 (2) _isdigit                                              3     3      0      68
                                              0 COMRAM     3     3      0
 ---------------------------------------------------------------------------------
 (2) ___lmul                                              12     4      8     370
                                              0 COMRAM    12     4      8
 ---------------------------------------------------------------------------------
 (1) ___xxtofl                                            14    10      4     626
                                             16 COMRAM    14    10      4
                           _ADC_Read (ARG)
                            ___awdiv (ARG)
                            ___fltol (ARG)
 ---------------------------------------------------------------------------------
 (1) ___fltol                                             10     6      4     761
                                              0 COMRAM    10     6      4
 ---------------------------------------------------------------------------------
 (1) ___flmul                                             25    17      8    2048
                                             30 COMRAM    25    17      8
                           _ADC_Read (ARG)
                           ___xxtofl (ARG)
 ---------------------------------------------------------------------------------
 (1) ___fldiv                                             25    17      8    1703
                                             55 COMRAM    25    17      8
                            ___flmul (ARG)
 ---------------------------------------------------------------------------------
 (1) ___awdiv                                              8     4      4     452
                                              8 COMRAM     8     4      4
                           _ADC_Read (ARG)
 ---------------------------------------------------------------------------------
 (1) _LCD_String_xy                                        5     2      3    5240
                                             10 COMRAM     5     2      3
                        _LCD_Command
                         _LCD_String
 ---------------------------------------------------------------------------------
 (2) _LCD_String                                           2     0      2    1777
                                              8 COMRAM     2     0      2
                           _LCD_Char
 ---------------------------------------------------------------------------------
 (2) _LCD_Char                                             2     2      0    1656
                                              6 COMRAM     2     2      0
                            _MSdelay
 ---------------------------------------------------------------------------------
 (1) _LCD_Init                                             0     0      0    3268
                        _LCD_Command
                            _MSdelay
 ---------------------------------------------------------------------------------
 (1) _LCD_Clear                                            0     0      0    1656
                        _LCD_Command
 ---------------------------------------------------------------------------------
 (2) _LCD_Command                                          2     2      0    1656
                                              6 COMRAM     2     2      0
                            _MSdelay
 ---------------------------------------------------------------------------------
 (2) _MSdelay                                              6     4      2    1612
                                              0 COMRAM     6     4      2
 ---------------------------------------------------------------------------------
 (1) _ADC_Read                                             8     6      2     273
                                              0 COMRAM     8     6      2
 ---------------------------------------------------------------------------------
 (1) _ADC_Init                                             0     0      0       0
 ---------------------------------------------------------------------------------
 Estimated maximum stack depth 2
 ---------------------------------------------------------------------------------

 Call Graph Graphs:

 _main (ROOT)
   _ADC_Init
   _ADC_Read
   _LCD_Clear
     _LCD_Command
       _MSdelay
   _LCD_Command
     _MSdelay
   _LCD_Init
     _LCD_Command
       _MSdelay
     _MSdelay
   _LCD_String_xy
     _LCD_Command
       _MSdelay
     _LCD_String
       _LCD_Char
         _MSdelay
   _MSdelay
   ___awdiv
     _ADC_Read (ARG)
   ___fldiv
     ___flmul (ARG)
       _ADC_Read (ARG)
       ___xxtofl (ARG)
         _ADC_Read (ARG)
         ___awdiv (ARG)
           _ADC_Read (ARG)
         ___fltol (ARG)
   ___flmul
     _ADC_Read (ARG)
     ___xxtofl (ARG)
       _ADC_Read (ARG)
       ___awdiv (ARG)
         _ADC_Read (ARG)
       ___fltol (ARG)
   ___fltol
   ___xxtofl
     _ADC_Read (ARG)
     ___awdiv (ARG)
       _ADC_Read (ARG)
     ___fltol (ARG)
   _atol
     ___lmul
     _isdigit
   _dimmer
     _MSdelay
     ___fltol (ARG)
   _keyfind
     _LCD_Char
       _MSdelay
     _MSdelay
   _memset
   _sprintf
     ___fltol (ARG)
     ___lwdiv (ARG)
     ___lwmod (ARG)
       ___lwdiv (ARG)

 Address spaces:
Name               Size   Autos  Total    Cost      Usage
BIGRAM             7FF      0       0      21        0.0%
EEDATA             100      0       0       0        0.0%
BITBANK7           100      0       0      18        0.0%
BANK7              100      0       0      19        0.0%
BITBANK6           100      0       0      16        0.0%
BANK6              100      0       0      17        0.0%
BITBANK5           100      0       0      14        0.0%
BANK5              100      0       0      15        0.0%
BITBANK4           100      0       0      12        0.0%
BANK4              100      0       0      13        0.0%
BITBANK3           100      0       0      10        0.0%
BANK3              100      0       0      11        0.0%
BITBANK2           100      0       0       8        0.0%
BANK2              100      0       0       9        0.0%
BITBANK1           100      0       0       6        0.0%
BANK1              100      0       0       7        0.0%
BITBANK0            A0      0       0       4        0.0%
BANK0               A0     31      41       5       40.6%
BITCOMRAM           5F      0       0       0        0.0%
COMRAM              5F     50      55       1       89.5%
BITSFR               0      0       0     200        0.0%
SFR                  0      0       0     200        0.0%
STACK                0      0       0       2        0.0%
NULL                 0      0       0       0        0.0%
ABS                  0      0      96      20        0.0%
DATA                 0      0      96       3        0.0%
CODE                 0      0       0       0        0.0%


Microchip Technology PIC18 Macro Assembler V2.10 build 88905656 
Symbol Table                                                                                   Wed Nov 20 23:09:57 2019

           ___fldiv@aexp 0050             ___fldiv@bexp 004F             ___fldiv@sign 0048  
           ?_LCD_Command 0001                       l20 2398                       l23 234C  
                     l17 24F0                       l34 2422                       l45 23E2  
                     l37 251C                       l29 2300                       l91 173A  
                     l83 16B2                       l78 166E                       l87 16F6  
                     _GO 007E11                       l99 189A             ___awdiv@sign 000E  
            __CFG_BOR$ON 000000              __CFG_BORV$3 000000              ?_LCD_String 0009  
            main@Tem_Act 0084             __CFG_CP0$OFF 000000             __CFG_CP1$OFF 000000  
           __CFG_CP2$OFF 000000             __CFG_CP3$OFF 000000                      l200 1916  
                    l105 1826                      l300 222E                      l220 19B6  
                    l212 1976                      l204 1936                      l301 223E  
                    l231 1A6C                      l224 19D6                      l216 1996  
                    l208 1956                      l252 2504                      l228 19F6  
                    l164 094E                      l255 2134                      l520 20C4  
                    l258 2160                      l195 18F4                      l197 1902  
                    l286 1DC0                      l900 1130                      l901 111E  
                    l578 2000                      l908 11E8                      l932 1AC4  
                    l861 1420                      l870 1466                      l935 1C20  
                    l775 21D4                      l872 14DE                      l864 13E4  
                    l768 21CC                      l873 14CC                      l961 1EEA  
                    l953 1DC2                      l785 22A2                      l946 1BB8  
                    l962 1EFA                      l778 229A                      l859 15C0  
                    l891 0EC2                      l939 1B5C                      l973 245A  
                    l895 1226                      l967 24C0                      l898 10B8  
           __CFG_CPB$OFF 000000                      _RC1 007C11             __CFG_CPD$OFF 000000  
                    _lim 0052                      _seg 0051                      prod 000FF3  
                    wreg 000FE8             ___flmul@aexp 0030             ___flmul@bexp 0031  
           ___flmul@sign 002B             ___flmul@temp 0036             ___flmul@prod 0032  
           main@SetPoint 0076              main@celsius 008C             __CFG_LVP$OFF 000000  
            LCD_Char@dat 0008             ___fltol@exp1 000A             __CFG_WDT$OFF 000000  
                   l2101 2368                     l2103 2374                     l2111 22A4  
                   l2105 2386                     l2113 22A8                     l2201 2408  
                   l2121 21E6                     l3001 0B76                     l2107 2388  
                   l2115 22CC                     l2203 2410                     l2123 21F4  
                   l2211 15CA                     l2131 216A                     l3011 0C3C  
                   l3003 0B8A                     l2109 238A                     l2117 22D0  
                   l2205 2416                     l2125 2204                     l2221 1604  
                   l2213 15D0                     l2141 21A0                     l2133 217C  
                   l3021 0D0E                     l3013 0C6C                     l3005 0B9C  
                   l2063 23AE                     l2055 239A                     l2207 2516  
                   l2071 2304                     l2127 220E                     l2119 21D6  
                   l2311 1836                     l2231 1644                     l2223 1616  
                   l2215 15E2                     l2143 21B6                     l2135 2184  
                   l2151 2240                     l3023 0D66                     l3015 0C7E  
                   l3007 0BF4                     l2065 23B2                     l2057 23A6  
                   l2081 231C                     l2073 2314                     l2321 1872  
                   l2313 184C                     l2305 17FE                     l2241 1684  
                   l2233 164A                     l2225 162E                     l2217 15FA  
                   l2209 15C2                     l2145 21BE                     l2137 218C  
                   l2129 2162                     l2161 2286                     l2153 2252  
                   l2401 1CAE                     l3025 0D78                     l3017 0C8A  
                   l3009 0C28                     l2331 24F2                     l2067 23C8  
                   l2091 2350                     l2083 2328                     l2075 2316  
                   l2171 24A6                     l3051 1A1E                     l2323 1888  
                   l2307 1810                     l2251 16AC                     l2243 1688  
                   l2235 164E                     l2227 163A                     l2219 15FE  
                   l2147 21C0                     l2139 219A                     l2163 228E  
                   l2155 225A                     l2411 1CBE                     l2403 1CB2  
                   l3027 0DA8                     l3019 0CD2                     l2333 24F4  
                   l2069 23CC                     l2093 2360                     l2181 24C6  
                   l2085 233A                     l2077 2318                     l2501 1228  
                   l2173 24B6                     l2341 1DE4                     l2309 1822  
                   l2261 16E8                     l2253 16C8                     l2245 168E  
                   l2237 1660                     l2229 1640                     l2149 21C6  
                   l2165 2294                     l2157 2262                     l2421 1D16  
                   l2405 1CBA                     l3029 0DDA                     l2095 2362  
                   l2191 24EA                     l2183 24D2                     l2087 233C  
                   l2079 231A                     l2511 1264                     l2503 1234  
                   l2175 24BA                     l2167 2492                     l2351 1E2A  
                   l2343 1DF6                     l2335 1DC2                     l2319 1862  
                   l2271 171A                     l2263 16F0                     l2255 16CC  
                   l2247 1692                     l2239 1668                     l2159 2270  
                   l2431 1D7C                     l2423 1D22                     l2415 1CEC  
                   l2097 2364                     l2185 24D8                     l2089 233E  
                   l2193 23E6                     l2601 1496                     l2521 1294  
                   l2513 1274                     l2505 1242                     l2169 2496  
                   l2353 1E32                     l2345 1E0A                     l2337 1DCE  
                   l2441 189C                     l2281 176E                     l2273 172C  
                   l2265 170C                     l2257 16D2                     l2249 16A4  
                   l2433 1D80                     l2425 1D26                     l2417 1CEE  
                   l2099 2366                     l2187 24DE                     l2179 24C2  
                   l2195 23E6                     l2611 1508                     l2603 14C4  
                   l2531 12CA                     l2523 129A                     l2515 1276  
                   l2507 1244                     l2347 1E1C                     l2339 1DD2  
                   l2451 18F2                     l2443 18B8                     l2283 1784  
                   l2275 1734                     l2267 1710                     l2259 16D6  
                   l2427 1D2E                     l2419 1D00                     l2435 1D92  
                   l2373 20C6                     l2189 24E4                     l2197 23F6  
                   l2621 1580                     l2613 1532                     l2541 130A  
                   l2533 12DA                     l2525 12A8                     l2509 1254  
                   l2517 127E                     l2701 0F94                     l2365 1E90  
                   l2349 1E1E                     l2461 1948                     l2453 1908  
                   l2445 18C0                     l2285 1796                     l2293 17B0  
                   l2269 1716                     l2277 174C                     l2429 1D70  
                   l2437 1DB4                     l2381 1C22                     l2375 2142  
                   l2199 23FE                     l2631 15B6                     l2623 159C  
                   l2607 14EE                     l2615 1536                     l2543 131A  
                   l2551 133A                     l2535 12DC                     l2527 12AA  
                   l2519 128E                     l2711 0FF6                     l2703 0FA4  
                   l2367 1EA4                     l2359 1E48                     l2471 1994  
                   l2463 1954                     l2455 1914                     l2447 18DA  
                   l2295 17C2                     l2287 179A                     l2279 175E  
                   l2383 1C2E                     l2377 2158                     l2801 2098  
                   l2625 15A0                     l2617 1550                     l2609 14FA  
                   l2561 1378                     l2553 134A                     l2545 1322  
                   l2529 12BA                     l2537 12E4                     l2721 109E  
                   l2713 1012                     l2705 0FBE                     l2641 0E0A  
                   l2369 1EB4                     l2481 19E8                     l2473 19A8  
                   l2465 1968                     l2457 1928                     l2449 18E6  
                   l2297 17D2                     l2393 1C58                     l2385 1C40  
                   l2803 209E                     l2627 15AE                     l2619 1566  
                   l2571 13C0                     l2563 1388                     l2555 134A  
                   l2547 1326                     l2539 12F4                     l2731 10DA  
                   l2723 10A8                     l2715 103C                     l2707 0FCE  
                   l2651 0E4A                     l2643 0E18                     l2483 19F4  
                   l2475 19B4                     l2467 1974                     l2459 1934  
                   l2299 17E8                     l2395 1C88                     l2387 1C4C  
                   l2805 20A4                     l2629 15B4                     l2581 140E  
                   l2573 13D4                     l2565 1398                     l2741 114C  
                   l2733 10E8                     l2725 10B6                     l2717 1072  
                   l2709 0FEA                     l2661 0E7A                     l2653 0E50  
                   l2645 0E1A                     l2821 1F50                     l2813 1EFC  
                   l2477 19C8                     l2469 1988                     l2493 2424  
                   l2397 1C98                     l2389 1C54                     l2807 20B4  
                   l2591 1456                     l2583 141E                     l2575 13E2  
                   l2567 13A8                     l2559 135E                     l2751 11B6  
                   l2743 115A                     l2735 1116                     l2727 10C8  
                   l2719 1080                     l2671 0EB2                     l2663 0E7C  
                   l2655 0E60                     l2647 0E2A                     l2639 0DFE  
                   l2823 1F52                     l2815 1F12                     l2479 19D4  
                   l2487 1A08                     l2495 2430                     l2399 1CA0  
                   l2911 0872                     l2903 084E                     l2809 20BC  
                   l2593 1464                     l2585 1430                     l2577 13EE  
                   l2569 13B0                     l2761 120C                     l2753 11D0  
                   l2745 1184                     l2729 10D6                     l2681 0F02  
                   l2673 0ED2                     l2665 0E8C                     l2657 0E66  
                   l2649 0E3A                     l2825 1F62                     l2497 243C  
                   l2921 08A0                     l2913 0874                     l2905 0868  
                   l2771 2006                     l2587 1446                     l2595 1476  
                   l2579 140C                     l2755 11EC                     l2763 1212  
                   l2739 1140                     l2747 1188                     l2691 0F52  
                   l2683 0F0C                     l2675 0EE2                     l2667 0E9C  
                   l2659 0E6C                     l2851 1FE0                     l2835 1F8C  
                   l2827 1F66                     l2819 1F26                     l2499 2440  
                   l2931 08CA                     l2923 08AC                     l2915 0878  
                   l2907 086A                     l2781 2036                     l2773 2014  
                   l2597 1484                     l2589 144C                     l2765 1216  
                   l2757 11FC                     l2749 11A2                     l2693 0F5E  
                   l2685 0F22                     l2669 0EAC                     l2853 1FF0  
                   l2845 1FB4                     l2837 1F96                     l2829 1F74  
                   l2861 1A8E                     l2933 08DE                     l2925 08B0  
                   l2917 087C                     l2909 086C                     l2791 2064  
                   l2783 203A                     l2775 201C                     l2599 1488  
                   l2759 120A                     l2695 0F6C                     l2687 0F2E  
                   l2679 0EF6                     l2847 1FC0                     l2839 1FA0  
                   l2871 1B06                     l2863 1AD4                     l2951 0952  
                   l2935 08F0                     l2943 091C                     l2927 08B6  
                   l2919 088E                     l2793 2072                     l2785 2042  
                   l2777 2020                     l2769 2002                     l2697 0F78  
                   l2689 0F46                     l2849 1FD0                     l2881 1B8E  
                   l2873 1B12                     l2865 1AEA                     l2857 1A70  
                   l2961 0982                     l2953 0952                     l2945 092E  
                   l2937 0902                     l2929 08BE                     l2795 2078  
                   l2787 2054                     l2779 202E                     l2699 0F88  
                   l2891 1BCC                     l2883 1B9A                     l2875 1B44  
                   l2859 1A80                     l2971 09D2                     l2963 098A  
                   l2955 0956                     l2947 0940                     l2939 090C  
                   l2797 208E                     l2789 205C                     l2893 1BF0  
                   l2885 1BA8                     l2877 1B46                     l2869 1AFE  
                   l2981 0A1C                     l2973 09E4                     l2965 099C  
                   l2957 095C                     l2799 2096                     l2895 1C00  
                   l2887 1BC6                     l2879 1B52                     l2991 0AF2  
                   l2983 0A38                     l2975 09F6                     l2967 09AE  
                   l2959 0970                     l2897 1C0E                     l2889 1BC8  
                   l2993 0B22                     l2985 0A4A                     l2977 0A06  
                   l2969 09C0                     l2899 1C10                     l2995 0B34  
                   l2987 0AA2                     l2979 0A0A                     l2997 0B42  
                   l2989 0AD6                     l2999 0B56                     _ADON 007E10  
                   STR_1 080B                     STR_2 083A                     STR_3 080B  
                   STR_4 083A                     STR_5 0830                     STR_6 0818  
                   STR_7 0843                     STR_8 0818                     STR_9 0843  
                   u2000 1D00                     u2001 1CFC                     u2010 1D16  
                   u2011 1D12                     u2100 1984                     u2020 1D92  
                   u2101 1980                     u2021 1D8E                     u2110 19A4  
                   u2030 1DB4                     u2111 19A0                     u2031 1DB0  
                   u2200 12BA                     u2120 19C4                     u2040 18B8  
                   u2201 12B6                     u2121 19C0                     u2041 18B4  
                   u2210 12CA                     u2130 19E4                     u2050 18DA  
                   u2211 12C6                     u2131 19E0                     u2051 18D6  
                   u1500 22F0                     u2300 1484                     u2220 130A  
                   u2140 1A04                     u2060 1902                     u2301 1480  
                   u2221 1306                     u2141 1A00                     u2061 18FE  
                   u1510 2300                     u2310 1496                     u2230 134A  
                   u2070 1924                     u2150 245A                     _LATB 000F8A  
                   u1511 22FC                     u2311 1492                     u2231 1346  
                   u2071 1920                     u2151 2456                     u2320 14C4  
                   u2240 13C0                     u2160 1242                     u2400 0E2A  
                   u1520 21F4                     u1600 24A6                     u2080 1944  
                   _LATD 000F8C                     u2321 14C0                     u2241 13BC  
                   u2161 123E                     u2401 0E26                     u1521 21F0  
                   u1601 24A2                     u2081 1940                     u2330 14DA  
                   u2250 13E2                     u2170 1254                     u2410 0E3A  
                   u1530 222E                     u1610 24B6                     u2090 1964  
                   u1507 22E6                     u2331 14D6                     u2251 13DE  
                   u2171 1250                     u2411 0E36                     u1531 222A  
                   u1611 24B2                     u2091 1960                     u1620 23F6  
                   u2340 14EE                     u2260 140C                     u2180 1264  
                   u2500 10E8                     u2420 0E7A                     u1700 16C4  
                   u1540 217C                     u1621 23F2                     u2341 14EA  
                   u2261 1408                     u2181 1260                     u2501 10E4  
                   u2421 0E76                     u1701 16C0                     u1541 2178  
                   u1470 23C8                     u2350 1508                     u2270 1430  
                   u2190 12A8                     u2510 1116                     u2430 0E8C  
                   u1710 16E8                     u1630 15E2                     u1550 219A  
                   u1471 23C4                     u2351 1504                     u2271 142C  
                   u2191 12A4                     u2511 1112                     u2431 0E88  
                   u1711 16E4                     u1631 15DE                     u1551 2196  
                   u1480 23E2                     u2600 2054                     u2360 1550  
                   u2280 1446                     u2520 112C                     u2440 0E9C  
                   u1800 1810                     u1720 1708                     u1640 15FA  
                   u1560 21B6                     u1481 23DE                     u2601 2050  
                   u2361 154C                     u2281 1442                     u2521 1128  
                   u2441 0E98                     u1801 180C                     u1721 1704  
                   u1641 15F6                     u1561 21B2                     u1490 22C8  
                   u2610 2072                     u2370 1580                     u2290 1464  
                   u2530 1140                     u2450 0ED2                     u1810 1822  
                   u1730 172C                     u1650 1616                     u1570 2252  
                   u2611 206E                     u2371 157C                     u2291 1460  
                   u2531 113C                     u2451 0ECE                     u1811 181E  
                   u1731 1728                     u1651 1612                     u1571 224E  
                   u1900 20F0                     u2620 208E                     u2380 15AE  
                   u2540 115A                     u2460 0EE2                     u2700 1FE0  
                   u1820 1836                     u1740 174C                     u1660 162E  
                   u1580 2270                     u1901 20E8                     u2621 208A  
                   u2381 15AA                     u2541 1156                     u2461 0EDE  
                   u2701 1FDC                     u1821 1832                     u1741 1748  
                   u1661 162A                     u1581 226C                     u2630 20B4  
                   u2550 11A2                     u2470 105C                     u2390 0E18  
                   u2710 1A80                     u1830 1872                     u1750 175E  
                   u1670 1660                     u1590 2286                     u2631 20B0  
                   u2551 119E                     u2391 0E14                     u2711 1A7C  
                   u1831 186E                     u1751 175A                     u1671 165C  
                   u1591 2282                     u2560 11D0                     u2480 10B6  
                   u2640 1F12                     u2800 1C0E                     u2720 1A8E  
                   u1840 1DE4                     u1760 176E                     u1680 1680  
                   u1497 22BE                     u2561 11CC                     u2481 10B2  
                   u2641 1F0E                     u2801 1C0A                     u2721 1A8A  
                   u1841 1DE0                     u1761 176A                     u1681 167C  
                   u1930 2118                     u2570 120A                     u2490 10D6  
                   u2650 1F46                     u2730 1AEA                     u1850 1DF6  
                   u1770 1796                     u1690 16A4                     u2810 08DE  
                   u1931 2110                     u2571 1206                     u2491 10D2  
                   u2475 1052                     u2731 1AE6                     u1851 1DF2  
                   u1771 1792                     u1691 16A0                     u2811 08DA  
                   u1924 2100                     u2580 2014                     u2660 1F74  
                   u2740 1B40                     u1860 1E1C                     u1780 17C2  
                   u2900 09F6                     u2820 08F0                     u1925 20FC  
                   u2581 2010                     u2661 1F70                     u2741 1B3C  
                   u1861 1E18                     u1781 17BE                     u2901 09F2  
                   u2821 08EC                     u1918 20F2                     u2590 202E  
                   u2670 1F88                     u2750 1B8A                     u1870 1E44  
                   u1790 17D2                     u2910 0A1C                     u2830 092E  
                   u2591 202A                     u2671 1F84                     u2655 1F3C  
                   u2751 1B86                     u1871 1E40                     u1791 17CE  
                   u2911 0A18                     u2831 092A                     u1960 2142  
                   u2680 1FB0                     u2760 1BA8                     u1880 1EA4  
                   u2920 0B8A                     u2840 0970                     u1961 213E  
                   u2681 1FAC                     u2761 1BA4                     u1881 1EA0  
                   u2921 0B86                     u2841 096C                     u1954 2128  
                   u2690 1FD0                     u2770 1BB8                     u1890 1EB4  
                   u1970 1C40                     u2850 099C                     u1955 2124  
                   u2691 1FCC                     u2771 1BB4                     u1891 1EB0  
                   u1971 1C3C                     u2851 0998                     u1948 211A  
                   u2780 1BC6                     u1980 1CAE                     u2860 09AE  
                   u2781 1BC2                     u1981 1CAA                     u2861 09AA  
                   u2790 1C00                     u1990 1CE8                     u2870 09C0  
                   u2791 1BFC                     u1991 1CE4                     u2871 09BC  
                   u2880 09D2                     u2881 09CE                     u2890 09E4  
                   u2891 09E0                     _RBPU 007F8F             main@Potencio 0060  
                   _atol 1DC2                     _main 084E       __size_of_LCD_Clear 0008  
                   fsr0h 000FEA                     indf0 000FEF                     fsr2h 000FDA  
                   fsr0l 000FE9                     indf2 000FDF                     fsr1l 000FE1  
                   fsr2l 000FD9         __end_of_ADC_Init 2506         __end_of_ADC_Read 2162  
                   prodh 000FF4                     prodl 000FF3                     start 0000  
        __end_of_MSdelay 23E4            __CFG_IESO$OFF 000000          ___fldiv@new_exp 0049  
          _LCD_String_xy 23E4            __CFG_MCLRE$ON 000000             ___param_bank 000000  
       __end_of_LCD_Char 234E         __end_of_LCD_Init 24F2            __CFG_PLLDIV$1 000000  
         __CFG_CCP2MX$ON 000000            ___fltol@sign1 0009                    ?_atol 000D  
                  ?_main 0001          __end_of___fldiv 15C2          __end_of___awdiv 20C6  
                  STR_10 0824                    STR_11 0849          __end_of___flmul 1228  
        __end_of___fltol 2002          ___awdiv@divisor 000B                    _LATC0 007C58  
                  _LATD0 007C60                    _LATD1 007C61          __end_of___lwdiv 21D6  
        __end_of___lwmod 22A4          ___awdiv@counter 000D                    _PORTB 000F81  
          __CFG_USBDIV$1 000000                    _TRISA 000F92                    _TRISB 000F93  
                  _TRISD 000F95            __CFG_PWRT$OFF 000000            __CFG_WRT0$OFF 000000  
          __CFG_WRT1$OFF 000000            __CFG_WRT2$OFF 000000      ___lmul@multiplicand 0005  
          __CFG_WRT3$OFF 000000           __CFG_EBTR0$OFF 000000           __CFG_FCMEN$OFF 000000  
         __CFG_EBTR1$OFF 000000           __CFG_EBTR2$OFF 000000           __CFG_EBTR3$OFF 000000  
          __CFG_WRTB$OFF 000000            __CFG_WRTC$OFF 000000            __CFG_WRTD$OFF 000000  
         __CFG_EBTRB$OFF 000000          __end_of_dpowers 080B          __end_of_keyfind 189C  
        __end_of_isdigit 24C2                    atol@a 0016                    atol@c 001A  
                  atol@s 000D                    tablat 000FF5                    status 000FD8  
    __size_of_LCD_String 005E          __end_of_sprintf 1DC2           __CFG_ICPRT$OFF 000000  
         ?_LCD_String_xy 000B          __initialization 245C             __end_of_atol 1EFC  
           __end_of_main 0DFE                   ??_atol 0011                   ??_main 0051  
      __end_of_LCD_Clear 251E            __activetblptr 000002                   _ADCON0 000FC2  
                 _ADCON1 000FC1                   _ADCON2 000FC0                   _ADRESH 000FC4  
                 _ADRESL 000FC3         ___awdiv@dividend 0009         LCD_String_xy@msg 000C  
       LCD_String_xy@pos 000B         LCD_String_xy@row 000E                ??_MSdelay 0003  
                 _OSCCON 000FD3                   _TRISC0 007CA0                   _TRISC1 007CA1  
       __end_of___xxtofl 1C22           __CFG_XINST$OFF 000000                   ___lmul 21D6  
              ??___fldiv 0040                ??___awdiv 000D           __CFG_STVREN$ON 000000  
              ??___flmul 0027                ??___fltol 0005                ??___lwdiv 0005  
                 _dimmer 189C                ??___lwmod 000C          ADC_Read@channel 0001  
                 _keypad 0091                   _memset 2424          ADC_Read@digital 0007  
       ___awdiv@quotient 000F                   _rowloc 0054     __size_of_LCD_Command 004C  
                 main@sp 0082                ??_keyfind 0009                ??_isdigit 0001  
              ?_ADC_Init 0001                ?_ADC_Read 0001             __mediumconst 0000  
                 tblptrh 000FF7                   tblptrl 000FF6                   tblptru 000FF8  
              ??_sprintf 0013             ___xxtofl@arg 001B             ___xxtofl@exp 001A  
           ___xxtofl@val 0011                ?_LCD_Char 0001               __accesstop 0060  
__end_of__initialization 2486                ?_LCD_Init 0001          __CFG_PBADEN$OFF 000000  
        ??_LCD_String_xy 000E            ___rparam_used 000001               ___fltol@f1 0001  
         __pcstackCOMRAM 0001             __pidataBANK0 2506             ??_LCD_String 000B  
             ??_ADC_Init 0001               ??_ADC_Read 0003               ??_LCD_Char 0007  
             ??_LCD_Init 0009       __end_of_LCD_String 2302                  ?___lmul 0001  
                ?_dimmer 000B          main@Temperatura 006C                  ?_memset 0001  
         ___lmul@product 0009                ?___xxtofl 0011                  _MSdelay 239A  
        __CFG_VREGEN$OFF 000000            LCD_String@msg 0009                  __Hparam 0000  
                __Lparam 0000                  ___fldiv 1228                  ___awdiv 2002  
        __size_of___lmul 006A                  ___flmul 0DFE                  ___fltol 1EFC  
                ___lwdiv 2162                  ___lwmod 2240             __psmallconst 0800  
        __size_of_dimmer 01D2                  __pcinit 245C          __size_of_memset 0038  
                __ramtop 0800                  __ptext0 084E                  __ptext1 1C22  
                __ptext2 2240                  __ptext3 2162                  __ptext4 2424  
                __ptext5 15C2                  __ptext6 189C                  __ptext7 1DC2  
                __ptext8 2490                  __ptext9 21D6                  _col_loc 0055  
                _dpowers 0801                  _keyfind 15C2                  _isdigit 2490  
             ??___xxtofl 0015                _LCD_Clear 2516                  _sprintf 1C22  
                main@pot 0088     end_of_initialization 2486                  memset@c 0003  
                memset@n 0005                  memset@p 0007           LCD_Command@cmd 0008  
          __Lmediumconst 0000                  postdec1 000FE5                  postdec2 000FDD  
                postinc0 000FEE                  postinc2 000FDE            ___xxtofl@sign 0019  
             ?_LCD_Clear 0001              ___fldiv@grs 004B              ___fldiv@rem 0044  
      __size_of_ADC_Init 0014        __size_of_ADC_Read 009C              ___flmul@grs 002C  
      __size_of_LCD_Char 004C               main@tiempo 006A        __size_of_LCD_Init 0030  
          ??_LCD_Command 0007           __end_of___lmul 2240           __end_of_dimmer 1A6E  
         __end_of_memset 245C      start_initialization 245C    __end_of_LCD_String_xy 2424  
               ??___lmul 0009                 ??_dimmer 000D              __pdataBANK0 0091  
       __CFG_LPT1OSC$OFF 000000                 ??_memset 0007                ___fldiv@a 003C  
              ___fldiv@b 0038      __end_of_LCD_Command 239A                ___flmul@a 0023  
              ___flmul@b 001F              __pbssCOMRAM 0051            __pcstackBANK0 0060  
            ??_LCD_Clear 0009        __size_of___xxtofl 01B4                 ?_MSdelay 0001  
            sprintf@flag 0016              sprintf@prec 0017        main@potenciometro 007A  
       ___lwdiv@dividend 0001                 ?___fldiv 0038                 ?___awdiv 0009  
               ?___flmul 001F                 ?___fltol 0001                 ?___lwdiv 0001  
               ?___lwmod 0008              __smallconst 0800                 ?_keyfind 0001  
               ?_isdigit 0001                 _ADC_Init 24F2                 _ADC_Read 20C6  
       ___lwdiv@quotient 0005    LCD_String_xy@location 000F                 ?_sprintf 000D  
               MSdelay@i 0003                 MSdelay@j 0005                 _LCD_Char 2302  
               _LCD_Init 24C2         __CFG_WDTPS$32768 000000              _LCD_Command 234E  
             _ADCON0bits 000FC2                main@error 0080                main@tecla 0090  
      ___lmul@multiplier 0001                copy_data0 2470         __size_of_MSdelay 004A  
               __Hrparam 0000                 __Lrparam 0000         __size_of___fldiv 039A  
       __size_of___awdiv 00C4         __size_of___flmul 042A         __size_of___fltol 0106  
       __size_of___lwdiv 0074         __size_of___lwmod 0064              _isdigit$717 0002  
             sprintf@val 0018                 ___xxtofl 1A6E         __size_of_keyfind 02DA  
       __size_of_isdigit 0032          ___lwdiv@divisor 0003          ___lwdiv@counter 0007  
               __ptext10 1A6E                 __ptext11 1EFC                 __ptext20 234E  
               __ptext12 0DFE                 __ptext21 239A                 __ptext13 1228  
               __ptext22 20C6                 __ptext14 2002                 __ptext23 24F2  
               __ptext15 23E4                 __ptext16 22A4                 __ptext17 2302  
               __ptext18 24C2                 __ptext19 2516         __size_of_sprintf 01A0  
          __size_of_atol 013A            __size_of_main 05B0               MSdelay@val 0001  
               _temp_col 0053                 atol@sign 0015                 main@insp 007E  
               main@modo 0086               _LCD_String 22A4    __CFG_CPUDIV$OSC1_PLL2 000000  
               isdigit@c 0003                 memset@p1 0001                sprintf@ap 0014  
              sprintf@sp 000D         ___lwmod@dividend 0008             dimmer@brillo 000B  
    __CFG_FOSC$INTOSC_EC 000000                 sprintf@c 001A                 sprintf@f 000F  
        ___lwmod@divisor 000A          ___lwmod@counter 000C   __size_of_LCD_String_xy 0040  
