

Microchip MPLAB XC8 Assembler V2.10 build 88905656 
                                                                                               Mon Nov 18 23:35:38 2019

Microchip MPLAB XC8 C Compiler v2.10 (Free license) build 20190730164152 Og1 
     1                           	processor	18F4550
     2                           	fnconf	rparam,??,?,0
     3                           	opt	pw 120
     4                           	opt	flic
     5                           	psect	idataBANK0,global,class=CODE,delta=1,noexec
     6                           	psect	smallconst,global,reloc=2,class=SMALLCONST,delta=1,noexec
     7                           	psect	cinit,global,reloc=2,class=CODE,delta=1
     8                           	psect	bssCOMRAM,global,class=COMRAM,space=1,delta=1,noexec
     9                           	psect	bssBANK0,global,class=BANK0,space=1,delta=1,lowdata,noexec
    10                           	psect	dataBANK0,global,class=BANK0,space=1,delta=1,lowdata,noexec
    11                           	psect	cstackBANK0,global,class=BANK0,space=1,delta=1,noexec
    12                           	psect	cstackCOMRAM,global,class=COMRAM,space=1,delta=1,noexec
    13                           	psect	text0,global,reloc=2,class=CODE,delta=1
    14                           	psect	text1,global,reloc=2,class=CODE,delta=1,group=2
    15                           	psect	text2,global,reloc=2,class=CODE,delta=1
    16                           	psect	text3,global,reloc=2,class=CODE,delta=1
    17                           	psect	text4,global,reloc=2,class=CODE,delta=1
    18                           	psect	text5,global,reloc=2,class=CODE,delta=1
    19                           	psect	text6,global,reloc=2,class=CODE,delta=1,group=2
    20                           	psect	text7,global,reloc=2,class=CODE,delta=1,group=2
    21                           	psect	text8,global,reloc=2,class=CODE,delta=1,group=2
    22                           	psect	text9,global,reloc=2,class=CODE,delta=1,group=2
    23                           	psect	text10,global,reloc=2,class=CODE,delta=1,group=2
    24                           	psect	text11,global,reloc=2,class=CODE,delta=1,group=1
    25                           	psect	text12,global,reloc=2,class=CODE,delta=1,group=1
    26                           	psect	text13,global,reloc=2,class=CODE,delta=1,group=2
    27                           	psect	text14,global,reloc=2,class=CODE,delta=1,group=1
    28                           	psect	text15,global,reloc=2,class=CODE,delta=1,group=1
    29                           	psect	text16,global,reloc=2,class=CODE,delta=1,group=1
    30                           	psect	text17,global,reloc=2,class=CODE,delta=1,group=1
    31                           	psect	text18,global,reloc=2,class=CODE,delta=1
    32                           	psect	text19,global,reloc=2,class=CODE,delta=1
    33                           	psect	text20,global,reloc=2,class=CODE,delta=1
    34                           	psect	text21,global,reloc=2,class=CODE,delta=1
    35                           	psect	text22,global,reloc=2,class=CODE,delta=1
    36                           	psect	text23,global,reloc=2,class=CODE,delta=1
    37                           	psect	text24,global,reloc=2,class=CODE,delta=1
    38                           	psect	text25,global,reloc=2,class=CODE,delta=1
    39                           	psect	intsave_regs,global,class=BIGRAM,space=1,delta=1,noexec
    40                           	psect	rparam,global,class=COMRAM,space=1,delta=1,noexec
    41  0000                     
    42                           ; Version 2.10
    43                           ; Generated 31/07/2019 GMT
    44                           ; 
    45                           ; Copyright © 2019, Microchip Technology Inc. and its subsidiaries ("Microchip")
    46                           ; All rights reserved.
    47                           ; 
    48                           ; This software is developed by Microchip Technology Inc. and its subsidiaries ("Microch
      +                          ip").
    49                           ; 
    50                           ; Redistribution and use in source and binary forms, with or without modification, are
    51                           ; permitted provided that the following conditions are met:
    52                           ; 
    53                           ;     1. Redistributions of source code must retain the above copyright notice, this lis
      +                          t of
    54                           ;        conditions and the following disclaimer.
    55                           ; 
    56                           ;     2. Redistributions in binary form must reproduce the above copyright notice, this 
      +                          list
    57                           ;        of conditions and the following disclaimer in the documentation and/or other
    58                           ;        materials provided with the distribution.
    59                           ; 
    60                           ;     3. Microchip's name may not be used to endorse or promote products derived from th
      +                          is
    61                           ;        software without specific prior written permission.
    62                           ; 
    63                           ; THIS SOFTWARE IS PROVIDED BY MICROCHIP "AS IS" AND ANY EXPRESS OR IMPLIED WARRANTIES,
    64                           ; INCLUDING, BUT NOT LIMITED TO, THE IMPLIED WARRANTIES OF MERCHANTABILITY AND FITNESS F
      +                          OR
    65                           ; PURPOSE ARE DISCLAIMED.  IN NO EVENT SHALL MICROCHIP BE LIABLE FOR ANY DIRECT, INDIREC
      +                          T,
    66                           ; INCIDENTAL, SPECIAL, EXEMPLARY, OR CONSEQUENTIAL DAMAGES (INCLUDING BUT NOT LIMITED TO
    67                           ; PROCUREMENT OF SUBSTITUTE GOODS OR SERVICES; LOSS OF USE, DATA OR PROFITS; OR BUSINESS
    68                           ; INTERRUPTION) HOWSOEVER CAUSED AND ON ANY THEORY OF LIABILITY, WHETHER IN CONTRACT, ST
      +                          RICT
    69                           ; LIABILITY, OR TORT (INCLUDING NEGLIGENCE OR OTHERWISE) ARISING IN ANY WAY OUT OF THE U
      +                          SE OF
    70                           ; THIS SOFTWARE, EVEN IF ADVISED OF THE POSSIBILITY OF SUCH DAMAGE.
    71                           ; 
    72                           ; 
    73                           ; Code-generator required, PIC18F4550 Definitions
    74                           ; 
    75                           ; SFR Addresses
    76  0000                     
    77                           	psect	idataBANK0
    78  00223E                     __pidataBANK0:
    79                           	opt callstack 0
    80                           
    81                           ;initializer for _keypad
    82  00223E  31                 	db	49
    83  00223F  32                 	db	50
    84  002240  33                 	db	51
    85  002241  2B                 	db	43
    86  002242  34                 	db	52
    87  002243  35                 	db	53
    88  002244  36                 	db	54
    89  002245  2D                 	db	45
    90  002246  37                 	db	55
    91  002247  38                 	db	56
    92  002248  39                 	db	57
    93  002249  2A                 	db	42
    94  00224A  20                 	db	32
    95  00224B  30                 	db	48
    96  00224C  3D                 	db	61
    97  00224D  2F                 	db	47
    98  0000                     _ADCON0bits	set	4034
    99  0000                     _ADCON0	set	4034
   100  0000                     _ADRESL	set	4035
   101  0000                     _ADRESH	set	4036
   102  0000                     _ADCON2	set	4032
   103  0000                     _ADCON1	set	4033
   104  0000                     _TRISA	set	3986
   105  0000                     _OSCCON	set	4051
   106  0000                     _PORTB	set	3969
   107  0000                     _LATB	set	3978
   108  0000                     _TRISB	set	3987
   109  0000                     _LATD	set	3980
   110  0000                     _TRISD	set	3989
   111  0000                     _GO	set	32273
   112  0000                     _ADON	set	32272
   113  0000                     _LATD1	set	31841
   114  0000                     _LATD0	set	31840
   115                           
   116                           	psect	smallconst
   117  000800                     __psmallconst:
   118                           	opt callstack 0
   119  000800  00                 	db	0
   120  000801                     STR_1:
   121  000801  54                 	db	84	;'T'
   122  000802  45                 	db	69	;'E'
   123  000803  4D                 	db	77	;'M'
   124  000804  50                 	db	80	;'P'
   125  000805  45                 	db	69	;'E'
   126  000806  52                 	db	82	;'R'
   127  000807  41                 	db	65	;'A'
   128  000808  54                 	db	84	;'T'
   129  000809  55                 	db	85	;'U'
   130  00080A  52                 	db	82	;'R'
   131  00080B  41                 	db	65	;'A'
   132  00080C  00                 	db	0
   133  00080D                     STR_2:
   134  00080D  25                 	db	37
   135  00080E  64                 	db	100	;'d'
   136  00080F  20                 	db	32
   137  000810  43                 	db	67	;'C'
   138  000811  20                 	db	32
   139  000812  00                 	db	0
   140                           
   141                           ; #config settings
   142  000813  00                 	db	0	; dummy byte at the end
   143  0000                     
   144                           	psect	cinit
   145  00218A                     __pcinit:
   146                           	opt callstack 0
   147  00218A                     start_initialization:
   148                           	opt callstack 0
   149  00218A                     __initialization:
   150                           	opt callstack 0
   151                           
   152                           ; Initialize objects allocated to BANK0 (16 bytes)
   153                           ; load TBLPTR registers with __pidataBANK0
   154  00218A  0E3E               	movlw	low __pidataBANK0
   155  00218C  6EF6               	movwf	tblptrl,c
   156  00218E  0E22               	movlw	high __pidataBANK0
   157  002190  6EF7               	movwf	tblptrh,c
   158  002192  0E00               	movlw	low (__pidataBANK0 shr (0+16))
   159  002194  6EF8               	movwf	tblptru,c
   160  002196  EE00  F0A2         	lfsr	0,__pdataBANK0
   161  00219A  EE10 F010          	lfsr	1,16
   162  00219E                     copy_data0:
   163  00219E  0009               	tblrd		*+
   164  0021A0  CFF5 FFEE          	movff	tablat,postinc0
   165  0021A4  50E5               	movf	postdec1,w,c
   166  0021A6  50E1               	movf	fsr1l,w,c
   167  0021A8  E1FA               	bnz	copy_data0
   168                           
   169                           ; Clear objects allocated to BANK0 (42 bytes)
   170  0021AA  EE00  F060         	lfsr	0,__pbssBANK0
   171  0021AE  0E2A               	movlw	42
   172  0021B0                     clear_0:
   173  0021B0  6AEE               	clrf	postinc0,c
   174  0021B2  06E8               	decf	wreg,f,c
   175  0021B4  E1FD               	bnz	clear_0
   176                           
   177                           ; Clear objects allocated to COMRAM (2 bytes)
   178  0021B6  6A5F               	clrf	(__pbssCOMRAM+1)& (0+255),c
   179  0021B8  6A5E               	clrf	__pbssCOMRAM& (0+255),c
   180  0021BA                     end_of_initialization:
   181                           	opt callstack 0
   182  0021BA                     __end_of__initialization:
   183                           	opt callstack 0
   184  0021BA  0E00               	movlw	low (__Lmediumconst shr (0+16))
   185  0021BC  6EF8               	movwf	tblptru,c
   186  0021BE  0100               	movlb	0
   187  0021C0  EF42  F00D         	goto	_main	;jump to C main() function
   188                           
   189                           	psect	bssCOMRAM
   190  00005E                     __pbssCOMRAM:
   191                           	opt callstack 0
   192  00005E                     _rowloc:
   193                           	opt callstack 0
   194  00005E                     	ds	1
   195  00005F                     _col_loc:
   196                           	opt callstack 0
   197  00005F                     	ds	1
   198                           
   199                           	psect	bssBANK0
   200  000060                     __pbssBANK0:
   201                           	opt callstack 0
   202  000060                     _nout:
   203                           	opt callstack 0
   204  000060                     	ds	2
   205  000062                     _width:
   206                           	opt callstack 0
   207  000062                     	ds	2
   208  000064                     _prec:
   209                           	opt callstack 0
   210  000064                     	ds	2
   211  000066                     _flags:
   212                           	opt callstack 0
   213  000066                     	ds	2
   214  000068                     _lim:
   215                           	opt callstack 0
   216  000068                     	ds	1
   217  000069                     _temp_col:
   218                           	opt callstack 0
   219  000069                     	ds	1
   220  00006A                     _dbuf:
   221                           	opt callstack 0
   222  00006A                     	ds	32
   223                           
   224                           	psect	dataBANK0
   225  0000A2                     __pdataBANK0:
   226                           	opt callstack 0
   227  0000A2                     _keypad:
   228                           	opt callstack 0
   229  0000A2                     	ds	16
   230                           
   231                           	psect	cstackBANK0
   232  00008A                     __pcstackBANK0:
   233                           	opt callstack 0
   234  00008A                     	ds	2
   235  00008C                     sprintf@ap:
   236                           	opt callstack 0
   237                           
   238                           ; 2 bytes @ 0x2
   239  00008C                     	ds	2
   240  00008E                     sprintf@f:
   241                           	opt callstack 0
   242                           
   243                           ; 6 bytes @ 0x4
   244  00008E                     	ds	6
   245  000094                     main@Temperatura:
   246                           	opt callstack 0
   247                           
   248                           ; 10 bytes @ 0xA
   249  000094                     	ds	10
   250  00009E                     main@celsius:
   251                           	opt callstack 0
   252                           
   253                           ; 4 bytes @ 0x14
   254  00009E                     	ds	4
   255                           
   256                           	psect	cstackCOMRAM
   257  000001                     __pcstackCOMRAM:
   258                           	opt callstack 0
   259  000001                     ?_ADC_Read:
   260                           	opt callstack 0
   261  000001                     ?_strlen:
   262                           	opt callstack 0
   263  000001                     ?___fldiv:
   264                           	opt callstack 0
   265  000001                     ?___fltol:
   266                           	opt callstack 0
   267  000001                     ?___aodiv:
   268                           	opt callstack 0
   269  000001                     ?___aomod:
   270                           	opt callstack 0
   271  000001                     MSdelay@val:
   272                           	opt callstack 0
   273  000001                     ADC_Read@channel:
   274                           	opt callstack 0
   275  000001                     memset@dest:
   276                           	opt callstack 0
   277  000001                     fputc@c:
   278                           	opt callstack 0
   279  000001                     strlen@s:
   280                           	opt callstack 0
   281  000001                     ___fltol@f1:
   282                           	opt callstack 0
   283  000001                     ___fldiv@b:
   284                           	opt callstack 0
   285  000001                     ___aodiv@dividend:
   286                           	opt callstack 0
   287  000001                     ___aomod@dividend:
   288                           	opt callstack 0
   289                           
   290                           ; 8 bytes @ 0x0
   291  000001                     	ds	2
   292  000003                     ??_ADC_Read:
   293  000003                     MSdelay@i:
   294                           	opt callstack 0
   295  000003                     memset@c:
   296                           	opt callstack 0
   297  000003                     fputc@fp:
   298                           	opt callstack 0
   299  000003                     strlen@a:
   300                           	opt callstack 0
   301                           
   302                           ; 2 bytes @ 0x2
   303  000003                     	ds	2
   304  000005                     ??_fputc:
   305  000005                     ??___fltol:
   306  000005                     MSdelay@j:
   307                           	opt callstack 0
   308  000005                     memset@n:
   309                           	opt callstack 0
   310  000005                     ___fldiv@a:
   311                           	opt callstack 0
   312                           
   313                           ; 4 bytes @ 0x4
   314  000005                     	ds	2
   315  000007                     ??_LCD_Command:
   316  000007                     ??_memset:
   317  000007                     ??_LCD_Char:
   318  000007                     ADC_Read@digital:
   319                           	opt callstack 0
   320                           
   321                           ; 2 bytes @ 0x6
   322  000007                     	ds	1
   323  000008                     LCD_Command@cmd:
   324                           	opt callstack 0
   325  000008                     LCD_Char@dat:
   326                           	opt callstack 0
   327                           
   328                           ; 1 bytes @ 0x7
   329  000008                     	ds	1
   330  000009                     ??___fldiv:
   331  000009                     ?___xxtofl:
   332                           	opt callstack 0
   333  000009                     ___fltol@sign1:
   334                           	opt callstack 0
   335  000009                     LCD_String@msg:
   336                           	opt callstack 0
   337  000009                     memset@k:
   338                           	opt callstack 0
   339  000009                     ___xxtofl@val:
   340                           	opt callstack 0
   341  000009                     ___aodiv@divisor:
   342                           	opt callstack 0
   343  000009                     ___aomod@divisor:
   344                           	opt callstack 0
   345                           
   346                           ; 8 bytes @ 0x8
   347  000009                     	ds	1
   348  00000A                     ___fltol@exp1:
   349                           	opt callstack 0
   350  00000A                     fputs@s:
   351                           	opt callstack 0
   352                           
   353                           ; 2 bytes @ 0x9
   354  00000A                     	ds	1
   355  00000B                     LCD_String_xy@pos:
   356                           	opt callstack 0
   357  00000B                     memset@s:
   358                           	opt callstack 0
   359                           
   360                           ; 2 bytes @ 0xA
   361  00000B                     	ds	1
   362  00000C                     LCD_String_xy@msg:
   363                           	opt callstack 0
   364  00000C                     fputs@fp:
   365                           	opt callstack 0
   366                           
   367                           ; 2 bytes @ 0xB
   368  00000C                     	ds	1
   369  00000D                     ??___xxtofl:
   370  00000D                     ___fldiv@rem:
   371                           	opt callstack 0
   372                           
   373                           ; 4 bytes @ 0xC
   374  00000D                     	ds	1
   375  00000E                     LCD_String_xy@row:
   376                           	opt callstack 0
   377  00000E                     fputs@c:
   378                           	opt callstack 0
   379                           
   380                           ; 1 bytes @ 0xD
   381  00000E                     	ds	1
   382  00000F                     LCD_String_xy@location:
   383                           	opt callstack 0
   384  00000F                     fputs@i:
   385                           	opt callstack 0
   386                           
   387                           ; 2 bytes @ 0xE
   388  00000F                     	ds	2
   389  000011                     ?_pad:
   390                           	opt callstack 0
   391  000011                     ___aodiv@counter:
   392                           	opt callstack 0
   393  000011                     ___aomod@counter:
   394                           	opt callstack 0
   395  000011                     ___fldiv@sign:
   396                           	opt callstack 0
   397  000011                     ___xxtofl@sign:
   398                           	opt callstack 0
   399  000011                     pad@fp:
   400                           	opt callstack 0
   401                           
   402                           ; 2 bytes @ 0x10
   403  000011                     	ds	1
   404  000012                     ___aodiv@sign:
   405                           	opt callstack 0
   406  000012                     ___aomod@sign:
   407                           	opt callstack 0
   408  000012                     ___xxtofl@exp:
   409                           	opt callstack 0
   410  000012                     ___fldiv@new_exp:
   411                           	opt callstack 0
   412                           
   413                           ; 2 bytes @ 0x11
   414  000012                     	ds	1
   415  000013                     ?_abs:
   416                           	opt callstack 0
   417  000013                     pad@buf:
   418                           	opt callstack 0
   419  000013                     abs@a:
   420                           	opt callstack 0
   421  000013                     ___xxtofl@arg:
   422                           	opt callstack 0
   423  000013                     ___aodiv@quotient:
   424                           	opt callstack 0
   425                           
   426                           ; 8 bytes @ 0x12
   427  000013                     	ds	1
   428  000014                     ___fldiv@grs:
   429                           	opt callstack 0
   430                           
   431                           ; 4 bytes @ 0x13
   432  000014                     	ds	1
   433  000015                     ??_abs:
   434  000015                     pad@p:
   435                           	opt callstack 0
   436                           
   437                           ; 2 bytes @ 0x14
   438  000015                     	ds	2
   439  000017                     ??_pad:
   440  000017                     ?___flmul:
   441                           	opt callstack 0
   442  000017                     ___flmul@b:
   443                           	opt callstack 0
   444                           
   445                           ; 4 bytes @ 0x16
   446  000017                     	ds	1
   447  000018                     ___fldiv@bexp:
   448                           	opt callstack 0
   449  000018                     pad@i:
   450                           	opt callstack 0
   451                           
   452                           ; 2 bytes @ 0x17
   453  000018                     	ds	1
   454  000019                     ___fldiv@aexp:
   455                           	opt callstack 0
   456                           
   457                           ; 1 bytes @ 0x18
   458  000019                     	ds	1
   459  00001A                     pad@w:
   460                           	opt callstack 0
   461                           
   462                           ; 2 bytes @ 0x19
   463  00001A                     	ds	1
   464  00001B                     ___flmul@a:
   465                           	opt callstack 0
   466                           
   467                           ; 4 bytes @ 0x1A
   468  00001B                     	ds	1
   469  00001C                     ?_dtoa:
   470                           	opt callstack 0
   471  00001C                     dtoa@fp:
   472                           	opt callstack 0
   473                           
   474                           ; 2 bytes @ 0x1B
   475  00001C                     	ds	2
   476  00001E                     dtoa@d:
   477                           	opt callstack 0
   478                           
   479                           ; 8 bytes @ 0x1D
   480  00001E                     	ds	1
   481  00001F                     ??___flmul:
   482                           
   483                           ; 1 bytes @ 0x1E
   484  00001F                     	ds	4
   485  000023                     ___flmul@sign:
   486                           	opt callstack 0
   487                           
   488                           ; 1 bytes @ 0x22
   489  000023                     	ds	1
   490  000024                     ___flmul@grs:
   491                           	opt callstack 0
   492                           
   493                           ; 4 bytes @ 0x23
   494  000024                     	ds	2
   495  000026                     ??_dtoa:
   496                           
   497                           ; 1 bytes @ 0x25
   498  000026                     	ds	2
   499  000028                     ___flmul@aexp:
   500                           	opt callstack 0
   501                           
   502                           ; 1 bytes @ 0x27
   503  000028                     	ds	1
   504  000029                     ___flmul@bexp:
   505                           	opt callstack 0
   506                           
   507                           ; 1 bytes @ 0x28
   508  000029                     	ds	1
   509  00002A                     ___flmul@prod:
   510                           	opt callstack 0
   511                           
   512                           ; 4 bytes @ 0x29
   513  00002A                     	ds	4
   514  00002E                     _dtoa$246:
   515                           	opt callstack 0
   516  00002E                     ___flmul@temp:
   517                           	opt callstack 0
   518                           
   519                           ; 2 bytes @ 0x2D
   520  00002E                     	ds	2
   521  000030                     dtoa@p:
   522                           	opt callstack 0
   523                           
   524                           ; 2 bytes @ 0x2F
   525  000030                     	ds	2
   526  000032                     dtoa@w:
   527                           	opt callstack 0
   528                           
   529                           ; 2 bytes @ 0x31
   530  000032                     	ds	2
   531  000034                     dtoa@s:
   532                           	opt callstack 0
   533                           
   534                           ; 2 bytes @ 0x33
   535  000034                     	ds	2
   536  000036                     dtoa@n:
   537                           	opt callstack 0
   538                           
   539                           ; 8 bytes @ 0x35
   540  000036                     	ds	8
   541  00003E                     dtoa@i:
   542                           	opt callstack 0
   543                           
   544                           ; 2 bytes @ 0x3D
   545  00003E                     	ds	2
   546  000040                     ?_vfpfcnvrt:
   547                           	opt callstack 0
   548  000040                     vfpfcnvrt@fp:
   549                           	opt callstack 0
   550                           
   551                           ; 2 bytes @ 0x3F
   552  000040                     	ds	2
   553  000042                     vfpfcnvrt@fmt:
   554                           	opt callstack 0
   555                           
   556                           ; 2 bytes @ 0x41
   557  000042                     	ds	2
   558  000044                     vfpfcnvrt@ap:
   559                           	opt callstack 0
   560                           
   561                           ; 2 bytes @ 0x43
   562  000044                     	ds	2
   563  000046                     ??_vfpfcnvrt:
   564                           
   565                           ; 1 bytes @ 0x45
   566  000046                     	ds	2
   567  000048                     vfpfcnvrt@ll:
   568                           	opt callstack 0
   569                           
   570                           ; 8 bytes @ 0x47
   571  000048                     	ds	8
   572  000050                     ?_vfprintf:
   573                           	opt callstack 0
   574  000050                     vfprintf@fp:
   575                           	opt callstack 0
   576                           
   577                           ; 2 bytes @ 0x4F
   578  000050                     	ds	2
   579  000052                     vfprintf@fmt:
   580                           	opt callstack 0
   581                           
   582                           ; 2 bytes @ 0x51
   583  000052                     	ds	2
   584  000054                     vfprintf@ap:
   585                           	opt callstack 0
   586                           
   587                           ; 2 bytes @ 0x53
   588  000054                     	ds	2
   589  000056                     vfprintf@cfmt:
   590                           	opt callstack 0
   591                           
   592                           ; 2 bytes @ 0x55
   593  000056                     	ds	2
   594  000058                     ?_sprintf:
   595                           	opt callstack 0
   596  000058                     sprintf@s:
   597                           	opt callstack 0
   598                           
   599                           ; 2 bytes @ 0x57
   600  000058                     	ds	2
   601  00005A                     sprintf@fmt:
   602                           	opt callstack 0
   603                           
   604                           ; 2 bytes @ 0x59
   605  00005A                     	ds	4
   606  00005E                     
   607                           ; 1 bytes @ 0x5D
   608 ;;
   609 ;;Main: autosize = 0, tempsize = 0, incstack = 0, save=0
   610 ;;
   611 ;; *************** function _main *****************
   612 ;; Defined at:
   613 ;;		line 10 in file "incub.c"
   614 ;; Parameters:    Size  Location     Type
   615 ;;		None
   616 ;; Auto vars:     Size  Location     Type
   617 ;;  Temperatura    10   10[BANK0 ] unsigned char [10]
   618 ;;  celsius         4   20[BANK0 ] float 
   619 ;; Return value:  Size  Location     Type
   620 ;;                  1    wreg      void 
   621 ;; Registers used:
   622 ;;		wreg, fsr1l, fsr1h, fsr2l, fsr2h, status,2, status,0, tblptrl, tblptrh, tblptru, prodl, prodh, cstack
   623 ;; Tracked objects:
   624 ;;		On entry : 0/0
   625 ;;		On exit  : 0/0
   626 ;;		Unchanged: 0/0
   627 ;; Data sizes:     COMRAM   BANK0   BANK1   BANK2   BANK3   BANK4   BANK5   BANK6   BANK7
   628 ;;      Params:         0       0       0       0       0       0       0       0       0
   629 ;;      Locals:         0      14       0       0       0       0       0       0       0
   630 ;;      Temps:          0       0       0       0       0       0       0       0       0
   631 ;;      Totals:         0      14       0       0       0       0       0       0       0
   632 ;;Total ram usage:       14 bytes
   633 ;; Hardware stack levels required when called:    8
   634 ;; This function calls:
   635 ;;		_ADC_Init
   636 ;;		_ADC_Read
   637 ;;		_LCD_Init
   638 ;;		_LCD_String_xy
   639 ;;		_MSdelay
   640 ;;		___fldiv
   641 ;;		___flmul
   642 ;;		___fltol
   643 ;;		___xxtofl
   644 ;;		_memset
   645 ;;		_sprintf
   646 ;; This function is called by:
   647 ;;		Startup code after reset
   648 ;; This function uses a non-reentrant model
   649 ;;
   650                           
   651                           	psect	text0
   652  001A84                     __ptext0:
   653                           	opt callstack 0
   654  001A84                     _main:
   655                           	opt callstack 23
   656  001A84                     
   657                           ;incub.c: 12:     char Temperatura[10];;incub.c: 13:     float celsius;;incub.c: 14:    
      +                           OSCCON = 0x72;
   658  001A84  0E72               	movlw	114
   659  001A86  6ED3               	movwf	211,c	;volatile
   660  001A88                     
   661                           ;incub.c: 15:     LCD_Init();
   662  001A88  ECFD  F010         	call	_LCD_Init	;wreg free
   663  001A8C                     
   664                           ;incub.c: 16:     ADC_Init();
   665  001A8C  EC15  F011         	call	_ADC_Init	;wreg free
   666  001A90                     l2726:
   667                           
   668                           ;incub.c: 19:         LCD_String_xy(1,0,"TEMPERATURA");
   669  001A90  0E00               	movlw	0
   670  001A92  6E0B               	movwf	LCD_String_xy@pos^0,c
   671  001A94  0E01               	movlw	low STR_1
   672  001A96  6E0C               	movwf	LCD_String_xy@msg^0,c
   673  001A98  0E08               	movlw	high STR_1
   674  001A9A  6E0D               	movwf	(LCD_String_xy@msg+1)^0,c
   675  001A9C  0E01               	movlw	1
   676  001A9E  ECA5  F010         	call	_LCD_String_xy
   677  001AA2                     
   678                           ;incub.c: 20:         celsius = (ADC_Read(1)*4.88);
   679  001AA2  0E00               	movlw	0
   680  001AA4  6E02               	movwf	(ADC_Read@channel+1)^0,c
   681  001AA6  0E01               	movlw	1
   682  001AA8  6E01               	movwf	ADC_Read@channel^0,c
   683  001AAA  EC1B  F00F         	call	_ADC_Read	;wreg free
   684  001AAE  C001  F009         	movff	?_ADC_Read,___xxtofl@val
   685  001AB2  C002  F00A         	movff	?_ADC_Read+1,___xxtofl@val+1
   686  001AB6  0E00               	movlw	0
   687  001AB8  BE0A               	btfsc	(___xxtofl@val+1)^0,7,c
   688  001ABA  0EFF               	movlw	-1
   689  001ABC  6E0B               	movwf	(___xxtofl@val+2)^0,c
   690  001ABE  6E0C               	movwf	(___xxtofl@val+3)^0,c
   691  001AC0  0E01               	movlw	1
   692  001AC2  EC37  F00A         	call	___xxtofl
   693  001AC6  C009  F017         	movff	?___xxtofl,___flmul@b
   694  001ACA  C00A  F018         	movff	?___xxtofl+1,___flmul@b+1
   695  001ACE  C00B  F019         	movff	?___xxtofl+2,___flmul@b+2
   696  001AD2  C00C  F01A         	movff	?___xxtofl+3,___flmul@b+3
   697  001AD6  0EF6               	movlw	246
   698  001AD8  6E1B               	movwf	___flmul@a^0,c
   699  001ADA  0E28               	movlw	40
   700  001ADC  6E1C               	movwf	(___flmul@a+1)^0,c
   701  001ADE  0E9C               	movlw	156
   702  001AE0  6E1D               	movwf	(___flmul@a+2)^0,c
   703  001AE2  0E40               	movlw	64
   704  001AE4  6E1E               	movwf	(___flmul@a+3)^0,c
   705  001AE6  EC0A  F004         	call	___flmul	;wreg free
   706  001AEA  C017  F09E         	movff	?___flmul,main@celsius
   707  001AEE  C018  F09F         	movff	?___flmul+1,main@celsius+1
   708  001AF2  C019  F0A0         	movff	?___flmul+2,main@celsius+2
   709  001AF6  C01A  F0A1         	movff	?___flmul+3,main@celsius+3
   710  001AFA                     
   711                           ;incub.c: 21:         celsius =(celsius/10.00);
   712  001AFA  C09E  F001         	movff	main@celsius,___fldiv@b
   713  001AFE  C09F  F002         	movff	main@celsius+1,___fldiv@b+1
   714  001B02  C0A0  F003         	movff	main@celsius+2,___fldiv@b+2
   715  001B06  C0A1  F004         	movff	main@celsius+3,___fldiv@b+3
   716  001B0A  0E00               	movlw	0
   717  001B0C  6E05               	movwf	___fldiv@a^0,c
   718  001B0E  0E00               	movlw	0
   719  001B10  6E06               	movwf	(___fldiv@a+1)^0,c
   720  001B12  0E20               	movlw	32
   721  001B14  6E07               	movwf	(___fldiv@a+2)^0,c
   722  001B16  0E41               	movlw	65
   723  001B18  6E08               	movwf	(___fldiv@a+3)^0,c
   724  001B1A  EC1F  F006         	call	___fldiv	;wreg free
   725  001B1E  C001  F09E         	movff	?___fldiv,main@celsius
   726  001B22  C002  F09F         	movff	?___fldiv+1,main@celsius+1
   727  001B26  C003  F0A0         	movff	?___fldiv+2,main@celsius+2
   728  001B2A  C004  F0A1         	movff	?___fldiv+3,main@celsius+3
   729  001B2E                     
   730                           ;incub.c: 22:         sprintf(Temperatura,"%d C ",(int)celsius);
   731  001B2E  0E94               	movlw	low main@Temperatura
   732  001B30  6E58               	movwf	sprintf@s^0,c
   733  001B32  0E00               	movlw	high main@Temperatura
   734  001B34  6E59               	movwf	(sprintf@s+1)^0,c
   735  001B36  0E0D               	movlw	low STR_2
   736  001B38  6E5A               	movwf	sprintf@fmt^0,c
   737  001B3A  0E08               	movlw	high STR_2
   738  001B3C  6E5B               	movwf	(sprintf@fmt+1)^0,c
   739  001B3E  C09E  F001         	movff	main@celsius,___fltol@f1
   740  001B42  C09F  F002         	movff	main@celsius+1,___fltol@f1+1
   741  001B46  C0A0  F003         	movff	main@celsius+2,___fltol@f1+2
   742  001B4A  C0A1  F004         	movff	main@celsius+3,___fltol@f1+3
   743  001B4E  ECD0  F00D         	call	___fltol	;wreg free
   744  001B52  C001  F05C         	movff	?___fltol,?_sprintf+4
   745  001B56  C002  F05D         	movff	?___fltol+1,?_sprintf+5
   746  001B5A  ECC9  F00F         	call	_sprintf	;wreg free
   747  001B5E                     
   748                           ;incub.c: 23:         LCD_String_xy(2,0,Temperatura);
   749  001B5E  0E00               	movlw	0
   750  001B60  6E0B               	movwf	LCD_String_xy@pos^0,c
   751  001B62  0E94               	movlw	low main@Temperatura
   752  001B64  6E0C               	movwf	LCD_String_xy@msg^0,c
   753  001B66  0E00               	movlw	high main@Temperatura
   754  001B68  6E0D               	movwf	(LCD_String_xy@msg+1)^0,c
   755  001B6A  0E02               	movlw	2
   756  001B6C  ECA5  F010         	call	_LCD_String_xy
   757  001B70                     
   758                           ;incub.c: 24:         MSdelay(10);
   759  001B70  0E00               	movlw	0
   760  001B72  6E02               	movwf	(MSdelay@val+1)^0,c
   761  001B74  0E0A               	movlw	10
   762  001B76  6E01               	movwf	MSdelay@val^0,c
   763  001B78  EC3E  F010         	call	_MSdelay	;wreg free
   764  001B7C                     
   765                           ;incub.c: 25:         memset(Temperatura,0,10);
   766  001B7C  0E94               	movlw	low main@Temperatura
   767  001B7E  6E01               	movwf	memset@dest^0,c
   768  001B80  0E00               	movlw	high main@Temperatura
   769  001B82  6E02               	movwf	(memset@dest+1)^0,c
   770  001B84  0E00               	movlw	0
   771  001B86  6E04               	movwf	(memset@c+1)^0,c
   772  001B88  0E00               	movlw	0
   773  001B8A  6E03               	movwf	memset@c^0,c
   774  001B8C  0E00               	movlw	0
   775  001B8E  6E06               	movwf	(memset@n+1)^0,c
   776  001B90  0E0A               	movlw	10
   777  001B92  6E05               	movwf	memset@n^0,c
   778  001B94  ECD5  F00B         	call	_memset	;wreg free
   779  001B98  EF48  F00D         	goto	l2726
   780  001B9C  EF00  F000         	goto	start
   781  001BA0                     __end_of_main:
   782                           	opt callstack 0
   783                           
   784 ;; *************** function _sprintf *****************
   785 ;; Defined at:
   786 ;;		line 9 in file "C:\Program Files (x86)\Microchip\xc8\v2.10\pic\sources\c99\common\nf_sprintf.c"
   787 ;; Parameters:    Size  Location     Type
   788 ;;  s               2   87[COMRAM] PTR unsigned char 
   789 ;;		 -> main@Temperatura(10), 
   790 ;;  fmt             2   89[COMRAM] PTR const unsigned char 
   791 ;;		 -> STR_2(6), 
   792 ;; Auto vars:     Size  Location     Type
   793 ;;  f               6    4[BANK0 ] struct _IO_FILE
   794 ;;  ap              2    2[BANK0 ] PTR void [1]
   795 ;;		 -> ?_sprintf(2), 
   796 ;;  ret             2    0        int 
   797 ;; Return value:  Size  Location     Type
   798 ;;                  2   87[COMRAM] int 
   799 ;; Registers used:
   800 ;;		wreg, fsr1l, fsr1h, fsr2l, fsr2h, status,2, status,0, tblptrl, tblptrh, tblptru, cstack
   801 ;; Tracked objects:
   802 ;;		On entry : 0/0
   803 ;;		On exit  : 0/0
   804 ;;		Unchanged: 0/0
   805 ;; Data sizes:     COMRAM   BANK0   BANK1   BANK2   BANK3   BANK4   BANK5   BANK6   BANK7
   806 ;;      Params:         6       0       0       0       0       0       0       0       0
   807 ;;      Locals:         0      10       0       0       0       0       0       0       0
   808 ;;      Temps:          0       0       0       0       0       0       0       0       0
   809 ;;      Totals:         6      10       0       0       0       0       0       0       0
   810 ;;Total ram usage:       16 bytes
   811 ;; Hardware stack levels used:    1
   812 ;; Hardware stack levels required when called:    7
   813 ;; This function calls:
   814 ;;		_vfprintf
   815 ;; This function is called by:
   816 ;;		_main
   817 ;; This function uses a non-reentrant model
   818 ;;
   819                           
   820                           	psect	text1
   821  001F92                     __ptext1:
   822                           	opt callstack 0
   823  001F92                     _sprintf:
   824                           	opt callstack 23
   825  001F92  0E5C               	movlw	low (?_sprintf+4)
   826  001F94  0100               	movlb	0	; () banked
   827  001F96  6F8C               	movwf	sprintf@ap& (0+255),b
   828  001F98  0E00               	movlw	high (?_sprintf+4)
   829  001F9A  6F8D               	movwf	(sprintf@ap+1)& (0+255),b
   830  001F9C  C058  F08E         	movff	sprintf@s,sprintf@f
   831  001FA0  C059  F08F         	movff	sprintf@s+1,sprintf@f+1
   832  001FA4                     
   833                           ; BSR set to: 0
   834  001FA4  0E00               	movlw	0
   835  001FA6  6F91               	movwf	(sprintf@f+3)& (0+255),b
   836  001FA8  0E00               	movlw	0
   837  001FAA  6F90               	movwf	(sprintf@f+2)& (0+255),b
   838  001FAC                     
   839                           ; BSR set to: 0
   840  001FAC  0E00               	movlw	0
   841  001FAE  6F93               	movwf	(sprintf@f+5)& (0+255),b
   842  001FB0  0E00               	movlw	0
   843  001FB2  6F92               	movwf	(sprintf@f+4)& (0+255),b
   844  001FB4                     
   845                           ; BSR set to: 0
   846  001FB4  0E8E               	movlw	low sprintf@f
   847  001FB6  6E50               	movwf	vfprintf@fp^0,c
   848  001FB8  0E00               	movlw	high sprintf@f
   849  001FBA  6E51               	movwf	(vfprintf@fp+1)^0,c
   850  001FBC  C05A  F052         	movff	sprintf@fmt,vfprintf@fmt
   851  001FC0  C05B  F053         	movff	sprintf@fmt+1,vfprintf@fmt+1
   852  001FC4  0E8C               	movlw	low sprintf@ap
   853  001FC6  6E54               	movwf	vfprintf@ap^0,c
   854  001FC8  0E00               	movlw	high sprintf@ap
   855  001FCA  6E55               	movwf	(vfprintf@ap+1)^0,c
   856  001FCC  EC69  F00F         	call	_vfprintf	;wreg free
   857  001FD0  0100               	movlb	0	; () banked
   858  001FD2  5190               	movf	(sprintf@f+2)& (0+255),w,b
   859  001FD4  2458               	addwf	sprintf@s^0,w,c
   860  001FD6  6ED9               	movwf	fsr2l,c
   861  001FD8  5191               	movf	(sprintf@f+3)& (0+255),w,b
   862  001FDA  2059               	addwfc	(sprintf@s+1)^0,w,c
   863  001FDC  6EDA               	movwf	fsr2h,c
   864  001FDE  0E00               	movlw	0
   865  001FE0  6EDF               	movwf	indf2,c
   866  001FE2                     
   867                           ; BSR set to: 0
   868  001FE2  0012               	return		;funcret
   869  001FE4                     __end_of_sprintf:
   870                           	opt callstack 0
   871                           
   872 ;; *************** function _vfprintf *****************
   873 ;; Defined at:
   874 ;;		line 1368 in file "C:\Program Files (x86)\Microchip\xc8\v2.10\pic\sources\c99\common\doprnt.c"
   875 ;; Parameters:    Size  Location     Type
   876 ;;  fp              2   79[COMRAM] PTR struct _IO_FILE
   877 ;;		 -> sprintf@f(6), 
   878 ;;  fmt             2   81[COMRAM] PTR const unsigned char 
   879 ;;		 -> STR_2(6), 
   880 ;;  ap              2   83[COMRAM] PTR PTR void 
   881 ;;		 -> sprintf@ap(2), 
   882 ;; Auto vars:     Size  Location     Type
   883 ;;  cfmt            2   85[COMRAM] PTR unsigned char 
   884 ;;		 -> STR_2(6), 
   885 ;; Return value:  Size  Location     Type
   886 ;;                  2   79[COMRAM] int 
   887 ;; Registers used:
   888 ;;		wreg, fsr1l, fsr1h, fsr2l, fsr2h, status,2, status,0, tblptrl, tblptrh, tblptru, cstack
   889 ;; Tracked objects:
   890 ;;		On entry : 0/0
   891 ;;		On exit  : 0/0
   892 ;;		Unchanged: 0/0
   893 ;; Data sizes:     COMRAM   BANK0   BANK1   BANK2   BANK3   BANK4   BANK5   BANK6   BANK7
   894 ;;      Params:         6       0       0       0       0       0       0       0       0
   895 ;;      Locals:         2       0       0       0       0       0       0       0       0
   896 ;;      Temps:          0       0       0       0       0       0       0       0       0
   897 ;;      Totals:         8       0       0       0       0       0       0       0       0
   898 ;;Total ram usage:        8 bytes
   899 ;; Hardware stack levels used:    1
   900 ;; Hardware stack levels required when called:    6
   901 ;; This function calls:
   902 ;;		_vfpfcnvrt
   903 ;; This function is called by:
   904 ;;		_sprintf
   905 ;; This function uses a non-reentrant model
   906 ;;
   907                           
   908                           	psect	text2
   909  001ED2                     __ptext2:
   910                           	opt callstack 0
   911  001ED2                     _vfprintf:
   912                           	opt callstack 23
   913  001ED2  C052  F056         	movff	vfprintf@fmt,vfprintf@cfmt
   914  001ED6  C053  F057         	movff	vfprintf@fmt+1,vfprintf@cfmt+1
   915  001EDA  0E00               	movlw	0
   916  001EDC  0100               	movlb	0	; () banked
   917  001EDE  6F61               	movwf	(_nout+1)& (0+255),b
   918  001EE0  0E00               	movlw	0
   919  001EE2  6F60               	movwf	_nout& (0+255),b
   920  001EE4  EF87  F00F         	goto	l2166
   921  001EE8                     l2164:
   922                           
   923                           ; BSR set to: 0
   924  001EE8  C050  F040         	movff	vfprintf@fp,vfpfcnvrt@fp
   925  001EEC  C051  F041         	movff	vfprintf@fp+1,vfpfcnvrt@fp+1
   926  001EF0  0E56               	movlw	low vfprintf@cfmt
   927  001EF2  6E42               	movwf	vfpfcnvrt@fmt^0,c
   928  001EF4  0E00               	movlw	high vfprintf@cfmt
   929  001EF6  6E43               	movwf	(vfpfcnvrt@fmt+1)^0,c
   930  001EF8  C054  F044         	movff	vfprintf@ap,vfpfcnvrt@ap
   931  001EFC  C055  F045         	movff	vfprintf@ap+1,vfpfcnvrt@ap+1
   932  001F00  EC5D  F009         	call	_vfpfcnvrt	;wreg free
   933  001F04  5040               	movf	?_vfpfcnvrt^0,w,c
   934  001F06  0100               	movlb	0	; () banked
   935  001F08  2760               	addwf	_nout& (0+255),f,b
   936  001F0A  5041               	movf	(?_vfpfcnvrt+1)^0,w,c
   937  001F0C  2361               	addwfc	(_nout+1)& (0+255),f,b
   938  001F0E                     l2166:
   939                           
   940                           ; BSR set to: 0
   941  001F0E  C056  FFF6         	movff	vfprintf@cfmt,tblptrl
   942  001F12  C057  FFF7         	movff	vfprintf@cfmt+1,tblptrh
   943  001F16                     	if	0	;tblptru may be non-zero
   944  001F16                     	endif
   945  001F16                     	if	0	;tblptru may be non-zero
   946  001F16                     	endif
   947  001F16  0008               	tblrd		*
   948  001F18  50F5               	movf	tablat,w,c
   949  001F1A  0900               	iorlw	0
   950  001F1C  A4D8               	btfss	status,2,c
   951  001F1E  EF93  F00F         	goto	u1871
   952  001F22  EF95  F00F         	goto	u1870
   953  001F26                     u1871:
   954  001F26  EF74  F00F         	goto	l2164
   955  001F2A                     u1870:
   956  001F2A                     
   957                           ; BSR set to: 0
   958  001F2A  C060  F050         	movff	_nout,?_vfprintf
   959  001F2E  C061  F051         	movff	_nout+1,?_vfprintf+1
   960  001F32                     
   961                           ; BSR set to: 0
   962  001F32  0012               	return		;funcret
   963  001F34                     __end_of_vfprintf:
   964                           	opt callstack 0
   965                           
   966 ;; *************** function _vfpfcnvrt *****************
   967 ;; Defined at:
   968 ;;		line 670 in file "C:\Program Files (x86)\Microchip\xc8\v2.10\pic\sources\c99\common\doprnt.c"
   969 ;; Parameters:    Size  Location     Type
   970 ;;  fp              2   63[COMRAM] PTR struct _IO_FILE
   971 ;;		 -> sprintf@f(6), 
   972 ;;  fmt             2   65[COMRAM] PTR PTR unsigned char 
   973 ;;		 -> vfprintf@cfmt(2), 
   974 ;;  ap              2   67[COMRAM] PTR PTR void 
   975 ;;		 -> sprintf@ap(2), 
   976 ;; Auto vars:     Size  Location     Type
   977 ;;  ll              8   71[COMRAM] long long 
   978 ;;  llu             8    0        unsigned long long 
   979 ;;  f               4    0        unsigned long long 
   980 ;;  vp              3    0        PTR void 
   981 ;;  ct              3    0        unsigned char [3]
   982 ;;  cp              3    0        PTR unsigned char 
   983 ;;  i               2    0        int 
   984 ;;  done            2    0        int 
   985 ;;  c               1    0        unsigned char 
   986 ;; Return value:  Size  Location     Type
   987 ;;                  2   63[COMRAM] int 
   988 ;; Registers used:
   989 ;;		wreg, fsr1l, fsr1h, fsr2l, fsr2h, status,2, status,0, tblptrl, tblptrh, tblptru, cstack
   990 ;; Tracked objects:
   991 ;;		On entry : 0/0
   992 ;;		On exit  : 0/0
   993 ;;		Unchanged: 0/0
   994 ;; Data sizes:     COMRAM   BANK0   BANK1   BANK2   BANK3   BANK4   BANK5   BANK6   BANK7
   995 ;;      Params:         6       0       0       0       0       0       0       0       0
   996 ;;      Locals:         8       0       0       0       0       0       0       0       0
   997 ;;      Temps:          2       0       0       0       0       0       0       0       0
   998 ;;      Totals:        16       0       0       0       0       0       0       0       0
   999 ;;Total ram usage:       16 bytes
  1000 ;; Hardware stack levels used:    1
  1001 ;; Hardware stack levels required when called:    5
  1002 ;; This function calls:
  1003 ;;		_dtoa
  1004 ;;		_fputc
  1005 ;; This function is called by:
  1006 ;;		_vfprintf
  1007 ;; This function uses a non-reentrant model
  1008 ;;
  1009                           
  1010                           	psect	text3
  1011  0012BA                     __ptext3:
  1012                           	opt callstack 0
  1013  0012BA                     _vfpfcnvrt:
  1014                           	opt callstack 23
  1015  0012BA  C042  FFD9         	movff	vfpfcnvrt@fmt,fsr2l
  1016  0012BE  C043  FFDA         	movff	vfpfcnvrt@fmt+1,fsr2h
  1017  0012C2  CFDE FFF6          	movff	postinc2,tblptrl
  1018  0012C6  CFDD FFF7          	movff	postdec2,tblptrh
  1019  0012CA                     	if	0	;tblptru may be non-zero
  1020  0012CA                     	endif
  1021  0012CA                     	if	0	;tblptru may be non-zero
  1022  0012CA                     	endif
  1023  0012CA  0008               	tblrd		*
  1024  0012CC  50F5               	movf	tablat,w,c
  1025  0012CE  0A25               	xorlw	37
  1026  0012D0  A4D8               	btfss	status,2,c
  1027  0012D2  EF6D  F009         	goto	u1801
  1028  0012D6  EF6F  F009         	goto	u1800
  1029  0012DA                     u1801:
  1030  0012DA  EF1B  F00A         	goto	l2124
  1031  0012DE                     u1800:
  1032  0012DE  C042  FFD9         	movff	vfpfcnvrt@fmt,fsr2l
  1033  0012E2  C043  FFDA         	movff	vfpfcnvrt@fmt+1,fsr2h
  1034  0012E6  2ADE               	incf	postinc2,f,c
  1035  0012E8  0E00               	movlw	0
  1036  0012EA  22DD               	addwfc	postdec2,f,c
  1037  0012EC  0E00               	movlw	0
  1038  0012EE  0100               	movlb	0	; () banked
  1039  0012F0  6F63               	movwf	(_width+1)& (0+255),b
  1040  0012F2  0E00               	movlw	0
  1041  0012F4  6F62               	movwf	_width& (0+255),b
  1042  0012F6  C062  F066         	movff	_width,_flags
  1043  0012FA  C063  F067         	movff	_width+1,_flags+1
  1044  0012FE                     
  1045                           ; BSR set to: 0
  1046  0012FE  6964               	setf	_prec& (0+255),b
  1047  001300  6965               	setf	(_prec+1)& (0+255),b
  1048  001302                     
  1049                           ; BSR set to: 0
  1050  001302  C042  FFD9         	movff	vfpfcnvrt@fmt,fsr2l
  1051  001306  C043  FFDA         	movff	vfpfcnvrt@fmt+1,fsr2h
  1052  00130A  CFDE FFF6          	movff	postinc2,tblptrl
  1053  00130E  CFDD FFF7          	movff	postdec2,tblptrh
  1054  001312                     	if	0	;tblptru may be non-zero
  1055  001312                     	endif
  1056  001312                     	if	0	;tblptru may be non-zero
  1057  001312                     	endif
  1058  001312  0008               	tblrd		*
  1059  001314  50F5               	movf	tablat,w,c
  1060  001316  0A64               	xorlw	100
  1061  001318  B4D8               	btfsc	status,2,c
  1062  00131A  EF91  F009         	goto	u1811
  1063  00131E  EF93  F009         	goto	u1810
  1064  001322                     u1811:
  1065  001322  EFA5  F009         	goto	l2102
  1066  001326                     u1810:
  1067  001326                     
  1068                           ; BSR set to: 0
  1069  001326  C042  FFD9         	movff	vfpfcnvrt@fmt,fsr2l
  1070  00132A  C043  FFDA         	movff	vfpfcnvrt@fmt+1,fsr2h
  1071  00132E  CFDE FFF6          	movff	postinc2,tblptrl
  1072  001332  CFDD FFF7          	movff	postdec2,tblptrh
  1073  001336                     	if	0	;tblptru may be non-zero
  1074  001336                     	endif
  1075  001336                     	if	0	;tblptru may be non-zero
  1076  001336                     	endif
  1077  001336  0008               	tblrd		*
  1078  001338  50F5               	movf	tablat,w,c
  1079  00133A  0A69               	xorlw	105
  1080  00133C  A4D8               	btfss	status,2,c
  1081  00133E  EFA3  F009         	goto	u1821
  1082  001342  EFA5  F009         	goto	u1820
  1083  001346                     u1821:
  1084  001346  EFE5  F009         	goto	l2108
  1085  00134A                     u1820:
  1086  00134A                     l2102:
  1087                           
  1088                           ; BSR set to: 0
  1089  00134A  C042  FFD9         	movff	vfpfcnvrt@fmt,fsr2l
  1090  00134E  C043  FFDA         	movff	vfpfcnvrt@fmt+1,fsr2h
  1091  001352  2ADE               	incf	postinc2,f,c
  1092  001354  0E00               	movlw	0
  1093  001356  22DD               	addwfc	postdec2,f,c
  1094  001358  C044  FFD9         	movff	vfpfcnvrt@ap,fsr2l
  1095  00135C  C045  FFDA         	movff	vfpfcnvrt@ap+1,fsr2h
  1096  001360  CFDF F046          	movff	indf2,??_vfpfcnvrt
  1097  001364  0E02               	movlw	2
  1098  001366  26DE               	addwf	postinc2,f,c
  1099  001368  CFDF F047          	movff	indf2,??_vfpfcnvrt+1
  1100  00136C  0E00               	movlw	0
  1101  00136E  22DD               	addwfc	postdec2,f,c
  1102  001370  C046  FFD9         	movff	??_vfpfcnvrt,fsr2l
  1103  001374  C047  FFDA         	movff	??_vfpfcnvrt+1,fsr2h
  1104  001378  CFDE F048          	movff	postinc2,vfpfcnvrt@ll
  1105  00137C  CFDD F049          	movff	postdec2,vfpfcnvrt@ll+1
  1106  001380  0E00               	movlw	0
  1107  001382  BE49               	btfsc	(vfpfcnvrt@ll+1)^0,7,c
  1108  001384  0EFF               	movlw	-1
  1109  001386  6E4A               	movwf	(vfpfcnvrt@ll+2)^0,c
  1110  001388  6E4B               	movwf	(vfpfcnvrt@ll+3)^0,c
  1111  00138A  6E4C               	movwf	(vfpfcnvrt@ll+4)^0,c
  1112  00138C  6E4D               	movwf	(vfpfcnvrt@ll+5)^0,c
  1113  00138E  6E4E               	movwf	(vfpfcnvrt@ll+6)^0,c
  1114  001390  6E4F               	movwf	(vfpfcnvrt@ll+7)^0,c
  1115  001392                     
  1116                           ; BSR set to: 0
  1117  001392  C040  F01C         	movff	vfpfcnvrt@fp,dtoa@fp
  1118  001396  C041  F01D         	movff	vfpfcnvrt@fp+1,dtoa@fp+1
  1119  00139A  C048  F01E         	movff	vfpfcnvrt@ll,dtoa@d
  1120  00139E  C049  F01F         	movff	vfpfcnvrt@ll+1,dtoa@d+1
  1121  0013A2  C04A  F020         	movff	vfpfcnvrt@ll+2,dtoa@d+2
  1122  0013A6  C04B  F021         	movff	vfpfcnvrt@ll+3,dtoa@d+3
  1123  0013AA  C04C  F022         	movff	vfpfcnvrt@ll+4,dtoa@d+4
  1124  0013AE  C04D  F023         	movff	vfpfcnvrt@ll+5,dtoa@d+5
  1125  0013B2  C04E  F024         	movff	vfpfcnvrt@ll+6,dtoa@d+6
  1126  0013B6  C04F  F025         	movff	vfpfcnvrt@ll+7,dtoa@d+7
  1127  0013BA  ECEC  F007         	call	_dtoa	;wreg free
  1128  0013BE  C01C  F040         	movff	?_dtoa,?_vfpfcnvrt
  1129  0013C2  C01D  F041         	movff	?_dtoa+1,?_vfpfcnvrt+1
  1130  0013C6  EF36  F00A         	goto	l232
  1131  0013CA                     l2108:
  1132                           
  1133                           ; BSR set to: 0
  1134  0013CA  C042  FFD9         	movff	vfpfcnvrt@fmt,fsr2l
  1135  0013CE  C043  FFDA         	movff	vfpfcnvrt@fmt+1,fsr2h
  1136  0013D2  CFDE FFF6          	movff	postinc2,tblptrl
  1137  0013D6  CFDD FFF7          	movff	postdec2,tblptrh
  1138  0013DA                     	if	0	;tblptru may be non-zero
  1139  0013DA                     	endif
  1140  0013DA                     	if	0	;tblptru may be non-zero
  1141  0013DA                     	endif
  1142  0013DA  0008               	tblrd		*
  1143  0013DC  50F5               	movf	tablat,w,c
  1144  0013DE  0A25               	xorlw	37
  1145  0013E0  A4D8               	btfss	status,2,c
  1146  0013E2  EFF5  F009         	goto	u1831
  1147  0013E6  EFF7  F009         	goto	u1830
  1148  0013EA                     u1831:
  1149  0013EA  EF0E  F00A         	goto	l2118
  1150  0013EE                     u1830:
  1151  0013EE                     
  1152                           ; BSR set to: 0
  1153  0013EE  C042  FFD9         	movff	vfpfcnvrt@fmt,fsr2l
  1154  0013F2  C043  FFDA         	movff	vfpfcnvrt@fmt+1,fsr2h
  1155  0013F6  2ADE               	incf	postinc2,f,c
  1156  0013F8  0E00               	movlw	0
  1157  0013FA  22DD               	addwfc	postdec2,f,c
  1158  0013FC                     
  1159                           ; BSR set to: 0
  1160  0013FC  0E00               	movlw	0
  1161  0013FE  6E02               	movwf	(fputc@c+1)^0,c
  1162  001400  0E25               	movlw	37
  1163  001402  6E01               	movwf	fputc@c^0,c
  1164  001404  C040  F003         	movff	vfpfcnvrt@fp,fputc@fp
  1165  001408  C041  F004         	movff	vfpfcnvrt@fp+1,fputc@fp+1
  1166  00140C  EC53  F00E         	call	_fputc	;wreg free
  1167  001410                     l2114:
  1168  001410  0E00               	movlw	0
  1169  001412  6E41               	movwf	(?_vfpfcnvrt+1)^0,c
  1170  001414  0E01               	movlw	1
  1171  001416  6E40               	movwf	?_vfpfcnvrt^0,c
  1172  001418  EF36  F00A         	goto	l232
  1173  00141C                     l2118:
  1174                           
  1175                           ; BSR set to: 0
  1176  00141C  C042  FFD9         	movff	vfpfcnvrt@fmt,fsr2l
  1177  001420  C043  FFDA         	movff	vfpfcnvrt@fmt+1,fsr2h
  1178  001424  2ADE               	incf	postinc2,f,c
  1179  001426  0E00               	movlw	0
  1180  001428  22DD               	addwfc	postdec2,f,c
  1181  00142A                     
  1182                           ; BSR set to: 0
  1183  00142A  0E00               	movlw	0
  1184  00142C  6E41               	movwf	(?_vfpfcnvrt+1)^0,c
  1185  00142E  0E00               	movlw	0
  1186  001430  6E40               	movwf	?_vfpfcnvrt^0,c
  1187  001432  EF36  F00A         	goto	l232
  1188  001436                     l2124:
  1189  001436  C042  FFD9         	movff	vfpfcnvrt@fmt,fsr2l
  1190  00143A  C043  FFDA         	movff	vfpfcnvrt@fmt+1,fsr2h
  1191  00143E  CFDE FFF6          	movff	postinc2,tblptrl
  1192  001442  CFDD FFF7          	movff	postdec2,tblptrh
  1193  001446                     	if	0	;tblptru may be non-zero
  1194  001446                     	endif
  1195  001446                     	if	0	;tblptru may be non-zero
  1196  001446                     	endif
  1197  001446  0008               	tblrd		*
  1198  001448  50F5               	movf	tablat,w,c
  1199  00144A  6E01               	movwf	fputc@c^0,c
  1200  00144C  6A02               	clrf	(fputc@c+1)^0,c
  1201  00144E  C040  F003         	movff	vfpfcnvrt@fp,fputc@fp
  1202  001452  C041  F004         	movff	vfpfcnvrt@fp+1,fputc@fp+1
  1203  001456  EC53  F00E         	call	_fputc	;wreg free
  1204  00145A  C042  FFD9         	movff	vfpfcnvrt@fmt,fsr2l
  1205  00145E  C043  FFDA         	movff	vfpfcnvrt@fmt+1,fsr2h
  1206  001462  2ADE               	incf	postinc2,f,c
  1207  001464  0E00               	movlw	0
  1208  001466  22DD               	addwfc	postdec2,f,c
  1209  001468  EF08  F00A         	goto	l2114
  1210  00146C                     l232:
  1211  00146C  0012               	return		;funcret
  1212  00146E                     __end_of_vfpfcnvrt:
  1213                           	opt callstack 0
  1214                           
  1215 ;; *************** function _dtoa *****************
  1216 ;; Defined at:
  1217 ;;		line 274 in file "C:\Program Files (x86)\Microchip\xc8\v2.10\pic\sources\c99\common\doprnt.c"
  1218 ;; Parameters:    Size  Location     Type
  1219 ;;  fp              2   27[COMRAM] PTR struct _IO_FILE
  1220 ;;		 -> sprintf@f(6), 
  1221 ;;  d               8   29[COMRAM] long long 
  1222 ;; Auto vars:     Size  Location     Type
  1223 ;;  n               8   53[COMRAM] long long 
  1224 ;;  i               2   61[COMRAM] int 
  1225 ;;  s               2   51[COMRAM] int 
  1226 ;;  w               2   49[COMRAM] int 
  1227 ;;  p               2   47[COMRAM] int 
  1228 ;; Return value:  Size  Location     Type
  1229 ;;                  2   27[COMRAM] int 
  1230 ;; Registers used:
  1231 ;;		wreg, fsr1l, fsr1h, fsr2l, fsr2h, status,2, status,0, cstack
  1232 ;; Tracked objects:
  1233 ;;		On entry : 0/0
  1234 ;;		On exit  : 0/0
  1235 ;;		Unchanged: 0/0
  1236 ;; Data sizes:     COMRAM   BANK0   BANK1   BANK2   BANK3   BANK4   BANK5   BANK6   BANK7
  1237 ;;      Params:        10       0       0       0       0       0       0       0       0
  1238 ;;      Locals:        18       0       0       0       0       0       0       0       0
  1239 ;;      Temps:          8       0       0       0       0       0       0       0       0
  1240 ;;      Totals:        36       0       0       0       0       0       0       0       0
  1241 ;;Total ram usage:       36 bytes
  1242 ;; Hardware stack levels used:    1
  1243 ;; Hardware stack levels required when called:    4
  1244 ;; This function calls:
  1245 ;;		___aodiv
  1246 ;;		___aomod
  1247 ;;		_abs
  1248 ;;		_pad
  1249 ;; This function is called by:
  1250 ;;		_vfpfcnvrt
  1251 ;; This function uses a non-reentrant model
  1252 ;;
  1253                           
  1254                           	psect	text4
  1255  000FD8                     __ptext4:
  1256                           	opt callstack 0
  1257  000FD8                     _dtoa:
  1258                           	opt callstack 23
  1259  000FD8  C01E  F036         	movff	dtoa@d,dtoa@n
  1260  000FDC  C01F  F037         	movff	dtoa@d+1,dtoa@n+1
  1261  000FE0  C020  F038         	movff	dtoa@d+2,dtoa@n+2
  1262  000FE4  C021  F039         	movff	dtoa@d+3,dtoa@n+3
  1263  000FE8  C022  F03A         	movff	dtoa@d+4,dtoa@n+4
  1264  000FEC  C023  F03B         	movff	dtoa@d+5,dtoa@n+5
  1265  000FF0  C024  F03C         	movff	dtoa@d+6,dtoa@n+6
  1266  000FF4  C025  F03D         	movff	dtoa@d+7,dtoa@n+7
  1267  000FF8  BE3D               	btfsc	(dtoa@n+7)^0,7,c
  1268  000FFA  EF01  F008         	goto	u1651
  1269  000FFE  EF04  F008         	goto	u1650
  1270  001002                     u1651:
  1271  001002  0E01               	movlw	1
  1272  001004  EF05  F008         	goto	u1660
  1273  001008                     u1650:
  1274  001008  0E00               	movlw	0
  1275  00100A                     u1660:
  1276  00100A  6E34               	movwf	dtoa@s^0,c
  1277  00100C  6A35               	clrf	(dtoa@s+1)^0,c
  1278  00100E  5034               	movf	dtoa@s^0,w,c
  1279  001010  1035               	iorwf	(dtoa@s+1)^0,w,c
  1280  001012  B4D8               	btfsc	status,2,c
  1281  001014  EF0E  F008         	goto	u1671
  1282  001018  EF10  F008         	goto	u1670
  1283  00101C                     u1671:
  1284  00101C  EF20  F008         	goto	l2014
  1285  001020                     u1670:
  1286  001020  1E3D               	comf	(dtoa@n+7)^0,f,c
  1287  001022  1E3C               	comf	(dtoa@n+6)^0,f,c
  1288  001024  1E3B               	comf	(dtoa@n+5)^0,f,c
  1289  001026  1E3A               	comf	(dtoa@n+4)^0,f,c
  1290  001028  1E39               	comf	(dtoa@n+3)^0,f,c
  1291  00102A  1E38               	comf	(dtoa@n+2)^0,f,c
  1292  00102C  1E37               	comf	(dtoa@n+1)^0,f,c
  1293  00102E  6C36               	negf	dtoa@n^0,c
  1294  001030  0E00               	movlw	0
  1295  001032  2237               	addwfc	(dtoa@n+1)^0,f,c
  1296  001034  2238               	addwfc	(dtoa@n+2)^0,f,c
  1297  001036  2239               	addwfc	(dtoa@n+3)^0,f,c
  1298  001038  223A               	addwfc	(dtoa@n+4)^0,f,c
  1299  00103A  223B               	addwfc	(dtoa@n+5)^0,f,c
  1300  00103C  223C               	addwfc	(dtoa@n+6)^0,f,c
  1301  00103E  223D               	addwfc	(dtoa@n+7)^0,f,c
  1302  001040                     l2014:
  1303  001040  0100               	movlb	0	; () banked
  1304  001042  BF65               	btfsc	(_prec+1)& (0+255),7,b
  1305  001044  EF26  F008         	goto	u1681
  1306  001048  EF28  F008         	goto	u1680
  1307  00104C                     u1681:
  1308  00104C  EF29  F008         	goto	l2018
  1309  001050                     u1680:
  1310  001050                     
  1311                           ; BSR set to: 0
  1312  001050  9366               	bcf	_flags& (0+255),1,b
  1313  001052                     l2018:
  1314                           
  1315                           ; BSR set to: 0
  1316  001052  BF65               	btfsc	(_prec+1)& (0+255),7,b
  1317  001054  EF36  F008         	goto	u1690
  1318  001058  5165               	movf	(_prec+1)& (0+255),w,b
  1319  00105A  E106               	bnz	u1691
  1320  00105C  0564               	decf	_prec& (0+255),w,b
  1321  00105E  B0D8               	btfsc	status,0,c
  1322  001060  EF34  F008         	goto	u1691
  1323  001064  EF36  F008         	goto	u1690
  1324  001068                     u1691:
  1325  001068  EF3C  F008         	goto	l205
  1326  00106C                     u1690:
  1327  00106C                     
  1328                           ; BSR set to: 0
  1329  00106C  0E00               	movlw	0
  1330  00106E  6E31               	movwf	(dtoa@p+1)^0,c
  1331  001070  0E01               	movlw	1
  1332  001072  6E30               	movwf	dtoa@p^0,c
  1333  001074  EF40  F008         	goto	l207
  1334  001078                     l205:
  1335                           
  1336                           ; BSR set to: 0
  1337  001078  C064  F030         	movff	_prec,dtoa@p
  1338  00107C  C065  F031         	movff	_prec+1,dtoa@p+1
  1339  001080                     l207:
  1340                           
  1341                           ; BSR set to: 0
  1342  001080  C062  F032         	movff	_width,dtoa@w
  1343  001084  C063  F033         	movff	_width+1,dtoa@w+1
  1344  001088                     
  1345                           ; BSR set to: 0
  1346  001088  5034               	movf	dtoa@s^0,w,c
  1347  00108A  1035               	iorwf	(dtoa@s+1)^0,w,c
  1348  00108C  A4D8               	btfss	status,2,c
  1349  00108E  EF4B  F008         	goto	u1701
  1350  001092  EF4D  F008         	goto	u1700
  1351  001096                     u1701:
  1352  001096  EF54  F008         	goto	l2026
  1353  00109A                     u1700:
  1354  00109A                     
  1355                           ; BSR set to: 0
  1356  00109A  A566               	btfss	_flags& (0+255),2,b
  1357  00109C  EF52  F008         	goto	u1711
  1358  0010A0  EF54  F008         	goto	u1710
  1359  0010A4                     u1711:
  1360  0010A4  EF57  F008         	goto	l2028
  1361  0010A8                     u1710:
  1362  0010A8                     l2026:
  1363                           
  1364                           ; BSR set to: 0
  1365  0010A8  0632               	decf	dtoa@w^0,f,c
  1366  0010AA  A0D8               	btfss	status,0,c
  1367  0010AC  0633               	decf	(dtoa@w+1)^0,f,c
  1368  0010AE                     l2028:
  1369                           
  1370                           ; BSR set to: 0
  1371  0010AE  0E00               	movlw	0
  1372  0010B0  6E3F               	movwf	(dtoa@i+1)^0,c
  1373  0010B2  0E1F               	movlw	31
  1374  0010B4  6E3E               	movwf	dtoa@i^0,c
  1375  0010B6                     
  1376                           ; BSR set to: 0
  1377  0010B6  0E00               	movlw	0
  1378  0010B8  6F89               	movwf	(_dbuf+31)& (0+255),b
  1379  0010BA  EFDB  F008         	goto	l2042
  1380  0010BE                     l2032:
  1381  0010BE  063E               	decf	dtoa@i^0,f,c
  1382  0010C0  A0D8               	btfss	status,0,c
  1383  0010C2  063F               	decf	(dtoa@i+1)^0,f,c
  1384  0010C4  0E6A               	movlw	low _dbuf
  1385  0010C6  243E               	addwf	dtoa@i^0,w,c
  1386  0010C8  6ED9               	movwf	fsr2l,c
  1387  0010CA  0E00               	movlw	high _dbuf
  1388  0010CC  203F               	addwfc	(dtoa@i+1)^0,w,c
  1389  0010CE  6EDA               	movwf	fsr2h,c
  1390  0010D0  C036  F001         	movff	dtoa@n,___aomod@dividend
  1391  0010D4  C037  F002         	movff	dtoa@n+1,___aomod@dividend+1
  1392  0010D8  C038  F003         	movff	dtoa@n+2,___aomod@dividend+2
  1393  0010DC  C039  F004         	movff	dtoa@n+3,___aomod@dividend+3
  1394  0010E0  C03A  F005         	movff	dtoa@n+4,___aomod@dividend+4
  1395  0010E4  C03B  F006         	movff	dtoa@n+5,___aomod@dividend+5
  1396  0010E8  C03C  F007         	movff	dtoa@n+6,___aomod@dividend+6
  1397  0010EC  C03D  F008         	movff	dtoa@n+7,___aomod@dividend+7
  1398  0010F0  0E0A               	movlw	10
  1399  0010F2  6E09               	movwf	___aomod@divisor^0,c
  1400  0010F4  0E00               	movlw	0
  1401  0010F6  6E0A               	movwf	(___aomod@divisor+1)^0,c
  1402  0010F8  0E00               	movlw	0
  1403  0010FA  6E0B               	movwf	(___aomod@divisor+2)^0,c
  1404  0010FC  0E00               	movlw	0
  1405  0010FE  6E0C               	movwf	(___aomod@divisor+3)^0,c
  1406  001100  0E00               	movlw	0
  1407  001102  6E0D               	movwf	(___aomod@divisor+4)^0,c
  1408  001104  0E00               	movlw	0
  1409  001106  6E0E               	movwf	(___aomod@divisor+5)^0,c
  1410  001108  0E00               	movlw	0
  1411  00110A  6E0F               	movwf	(___aomod@divisor+6)^0,c
  1412  00110C  0E00               	movlw	0
  1413  00110E  6E10               	movwf	(___aomod@divisor+7)^0,c
  1414  001110  EC90  F00C         	call	___aomod	;wreg free
  1415  001114  C001  F026         	movff	?___aomod,??_dtoa
  1416  001118  C002  F027         	movff	?___aomod+1,??_dtoa+1
  1417  00111C  C003  F028         	movff	?___aomod+2,??_dtoa+2
  1418  001120  C004  F029         	movff	?___aomod+3,??_dtoa+3
  1419  001124  C005  F02A         	movff	?___aomod+4,??_dtoa+4
  1420  001128  C006  F02B         	movff	?___aomod+5,??_dtoa+5
  1421  00112C  C007  F02C         	movff	?___aomod+6,??_dtoa+6
  1422  001130  C008  F02D         	movff	?___aomod+7,??_dtoa+7
  1423  001134  C026  F013         	movff	??_dtoa,abs@a
  1424  001138  C028  F014         	movff	??_dtoa+2,abs@a+1
  1425  00113C  EC85  F010         	call	_abs	;wreg free
  1426  001140  5013               	movf	?_abs^0,w,c
  1427  001142  0F30               	addlw	48
  1428  001144  6EDF               	movwf	indf2,c
  1429  001146  0630               	decf	dtoa@p^0,f,c
  1430  001148  A0D8               	btfss	status,0,c
  1431  00114A  0631               	decf	(dtoa@p+1)^0,f,c
  1432  00114C  0632               	decf	dtoa@w^0,f,c
  1433  00114E  A0D8               	btfss	status,0,c
  1434  001150  0633               	decf	(dtoa@w+1)^0,f,c
  1435  001152  C036  F001         	movff	dtoa@n,___aodiv@dividend
  1436  001156  C037  F002         	movff	dtoa@n+1,___aodiv@dividend+1
  1437  00115A  C038  F003         	movff	dtoa@n+2,___aodiv@dividend+2
  1438  00115E  C039  F004         	movff	dtoa@n+3,___aodiv@dividend+3
  1439  001162  C03A  F005         	movff	dtoa@n+4,___aodiv@dividend+4
  1440  001166  C03B  F006         	movff	dtoa@n+5,___aodiv@dividend+5
  1441  00116A  C03C  F007         	movff	dtoa@n+6,___aodiv@dividend+6
  1442  00116E  C03D  F008         	movff	dtoa@n+7,___aodiv@dividend+7
  1443  001172  0E0A               	movlw	10
  1444  001174  6E09               	movwf	___aodiv@divisor^0,c
  1445  001176  0E00               	movlw	0
  1446  001178  6E0A               	movwf	(___aodiv@divisor+1)^0,c
  1447  00117A  0E00               	movlw	0
  1448  00117C  6E0B               	movwf	(___aodiv@divisor+2)^0,c
  1449  00117E  0E00               	movlw	0
  1450  001180  6E0C               	movwf	(___aodiv@divisor+3)^0,c
  1451  001182  0E00               	movlw	0
  1452  001184  6E0D               	movwf	(___aodiv@divisor+4)^0,c
  1453  001186  0E00               	movlw	0
  1454  001188  6E0E               	movwf	(___aodiv@divisor+5)^0,c
  1455  00118A  0E00               	movlw	0
  1456  00118C  6E0F               	movwf	(___aodiv@divisor+6)^0,c
  1457  00118E  0E00               	movlw	0
  1458  001190  6E10               	movwf	(___aodiv@divisor+7)^0,c
  1459  001192  EC11  F00B         	call	___aodiv	;wreg free
  1460  001196  C001  F036         	movff	?___aodiv,dtoa@n
  1461  00119A  C002  F037         	movff	?___aodiv+1,dtoa@n+1
  1462  00119E  C003  F038         	movff	?___aodiv+2,dtoa@n+2
  1463  0011A2  C004  F039         	movff	?___aodiv+3,dtoa@n+3
  1464  0011A6  C005  F03A         	movff	?___aodiv+4,dtoa@n+4
  1465  0011AA  C006  F03B         	movff	?___aodiv+5,dtoa@n+5
  1466  0011AE  C007  F03C         	movff	?___aodiv+6,dtoa@n+6
  1467  0011B2  C008  F03D         	movff	?___aodiv+7,dtoa@n+7
  1468  0011B6                     l2042:
  1469  0011B6  BE3F               	btfsc	(dtoa@i+1)^0,7,c
  1470  0011B8  EFE6  F008         	goto	u1721
  1471  0011BC  503F               	movf	(dtoa@i+1)^0,w,c
  1472  0011BE  E108               	bnz	u1720
  1473  0011C0  043E               	decf	dtoa@i^0,w,c
  1474  0011C2  A0D8               	btfss	status,0,c
  1475  0011C4  EFE6  F008         	goto	u1721
  1476  0011C8  EFE8  F008         	goto	u1720
  1477  0011CC                     u1721:
  1478  0011CC  EF19  F009         	goto	l2052
  1479  0011D0                     u1720:
  1480  0011D0  5036               	movf	dtoa@n^0,w,c
  1481  0011D2  1037               	iorwf	(dtoa@n+1)^0,w,c
  1482  0011D4  1038               	iorwf	(dtoa@n+2)^0,w,c
  1483  0011D6  1039               	iorwf	(dtoa@n+3)^0,w,c
  1484  0011D8  103A               	iorwf	(dtoa@n+4)^0,w,c
  1485  0011DA  103B               	iorwf	(dtoa@n+5)^0,w,c
  1486  0011DC  103C               	iorwf	(dtoa@n+6)^0,w,c
  1487  0011DE  103D               	iorwf	(dtoa@n+7)^0,w,c
  1488  0011E0  A4D8               	btfss	status,2,c
  1489  0011E2  EFF5  F008         	goto	u1731
  1490  0011E6  EFF7  F008         	goto	u1730
  1491  0011EA                     u1731:
  1492  0011EA  EF5F  F008         	goto	l2032
  1493  0011EE                     u1730:
  1494  0011EE  BE31               	btfsc	(dtoa@p+1)^0,7,c
  1495  0011F0  EF04  F009         	goto	u1740
  1496  0011F4  5031               	movf	(dtoa@p+1)^0,w,c
  1497  0011F6  E106               	bnz	u1741
  1498  0011F8  0430               	decf	dtoa@p^0,w,c
  1499  0011FA  B0D8               	btfsc	status,0,c
  1500  0011FC  EF02  F009         	goto	u1741
  1501  001200  EF04  F009         	goto	u1740
  1502  001204                     u1741:
  1503  001204  EF5F  F008         	goto	l2032
  1504  001208                     u1740:
  1505  001208  BE33               	btfsc	(dtoa@w+1)^0,7,c
  1506  00120A  EF0F  F009         	goto	u1751
  1507  00120E  5033               	movf	(dtoa@w+1)^0,w,c
  1508  001210  E108               	bnz	u1750
  1509  001212  0432               	decf	dtoa@w^0,w,c
  1510  001214  A0D8               	btfss	status,0,c
  1511  001216  EF0F  F009         	goto	u1751
  1512  00121A  EF11  F009         	goto	u1750
  1513  00121E                     u1751:
  1514  00121E  EF19  F009         	goto	l2052
  1515  001222                     u1750:
  1516  001222  0100               	movlb	0	; () banked
  1517  001224  B366               	btfsc	_flags& (0+255),1,b
  1518  001226  EF17  F009         	goto	u1761
  1519  00122A  EF19  F009         	goto	u1760
  1520  00122E                     u1761:
  1521  00122E  EF5F  F008         	goto	l2032
  1522  001232                     u1760:
  1523  001232                     l2052:
  1524  001232  5034               	movf	dtoa@s^0,w,c
  1525  001234  1035               	iorwf	(dtoa@s+1)^0,w,c
  1526  001236  A4D8               	btfss	status,2,c
  1527  001238  EF20  F009         	goto	u1771
  1528  00123C  EF22  F009         	goto	u1770
  1529  001240                     u1771:
  1530  001240  EF2A  F009         	goto	l2056
  1531  001244                     u1770:
  1532  001244  0100               	movlb	0	; () banked
  1533  001246  A566               	btfss	_flags& (0+255),2,b
  1534  001248  EF28  F009         	goto	u1781
  1535  00124C  EF2A  F009         	goto	u1780
  1536  001250                     u1781:
  1537  001250  EF48  F009         	goto	l2066
  1538  001254                     u1780:
  1539  001254                     l2056:
  1540  001254  063E               	decf	dtoa@i^0,f,c
  1541  001256  A0D8               	btfss	status,0,c
  1542  001258  063F               	decf	(dtoa@i+1)^0,f,c
  1543  00125A  5034               	movf	dtoa@s^0,w,c
  1544  00125C  1035               	iorwf	(dtoa@s+1)^0,w,c
  1545  00125E  A4D8               	btfss	status,2,c
  1546  001260  EF34  F009         	goto	u1791
  1547  001264  EF36  F009         	goto	u1790
  1548  001268                     u1791:
  1549  001268  EF3C  F009         	goto	l2062
  1550  00126C                     u1790:
  1551  00126C  0E00               	movlw	0
  1552  00126E  6E2F               	movwf	(_dtoa$246+1)^0,c
  1553  001270  0E2B               	movlw	43
  1554  001272  6E2E               	movwf	_dtoa$246^0,c
  1555  001274  EF40  F009         	goto	l2064
  1556  001278                     l2062:
  1557  001278  0E00               	movlw	0
  1558  00127A  6E2F               	movwf	(_dtoa$246+1)^0,c
  1559  00127C  0E2D               	movlw	45
  1560  00127E  6E2E               	movwf	_dtoa$246^0,c
  1561  001280                     l2064:
  1562  001280  0E6A               	movlw	low _dbuf
  1563  001282  243E               	addwf	dtoa@i^0,w,c
  1564  001284  6ED9               	movwf	fsr2l,c
  1565  001286  0E00               	movlw	high _dbuf
  1566  001288  203F               	addwfc	(dtoa@i+1)^0,w,c
  1567  00128A  6EDA               	movwf	fsr2h,c
  1568  00128C  C02E  FFDF         	movff	_dtoa$246,indf2
  1569  001290                     l2066:
  1570  001290  C01C  F011         	movff	dtoa@fp,pad@fp
  1571  001294  C01D  F012         	movff	dtoa@fp+1,pad@fp+1
  1572  001298  0E6A               	movlw	low _dbuf
  1573  00129A  243E               	addwf	dtoa@i^0,w,c
  1574  00129C  6E13               	movwf	pad@buf^0,c
  1575  00129E  0E00               	movlw	high _dbuf
  1576  0012A0  203F               	addwfc	(dtoa@i+1)^0,w,c
  1577  0012A2  6E14               	movwf	(pad@buf+1)^0,c
  1578  0012A4  C032  F015         	movff	dtoa@w,pad@p
  1579  0012A8  C033  F016         	movff	dtoa@w+1,pad@p+1
  1580  0012AC  ECB8  F00E         	call	_pad	;wreg free
  1581  0012B0  C011  F01C         	movff	?_pad,?_dtoa
  1582  0012B4  C012  F01D         	movff	?_pad+1,?_dtoa+1
  1583  0012B8  0012               	return		;funcret
  1584  0012BA                     __end_of_dtoa:
  1585                           	opt callstack 0
  1586                           
  1587 ;; *************** function _pad *****************
  1588 ;; Defined at:
  1589 ;;		line 72 in file "C:\Program Files (x86)\Microchip\xc8\v2.10\pic\sources\c99\common\doprnt.c"
  1590 ;; Parameters:    Size  Location     Type
  1591 ;;  fp              2   16[COMRAM] PTR struct _IO_FILE
  1592 ;;		 -> sprintf@f(6), 
  1593 ;;  buf             2   18[COMRAM] PTR unsigned char 
  1594 ;;		 -> dbuf(32), 
  1595 ;;  p               2   20[COMRAM] int 
  1596 ;; Auto vars:     Size  Location     Type
  1597 ;;  w               2   25[COMRAM] int 
  1598 ;;  i               2   23[COMRAM] int 
  1599 ;; Return value:  Size  Location     Type
  1600 ;;                  2   16[COMRAM] int 
  1601 ;; Registers used:
  1602 ;;		wreg, fsr1l, fsr1h, fsr2l, fsr2h, status,2, status,0, cstack
  1603 ;; Tracked objects:
  1604 ;;		On entry : 0/0
  1605 ;;		On exit  : 0/0
  1606 ;;		Unchanged: 0/0
  1607 ;; Data sizes:     COMRAM   BANK0   BANK1   BANK2   BANK3   BANK4   BANK5   BANK6   BANK7
  1608 ;;      Params:         6       0       0       0       0       0       0       0       0
  1609 ;;      Locals:         4       0       0       0       0       0       0       0       0
  1610 ;;      Temps:          1       0       0       0       0       0       0       0       0
  1611 ;;      Totals:        11       0       0       0       0       0       0       0       0
  1612 ;;Total ram usage:       11 bytes
  1613 ;; Hardware stack levels used:    1
  1614 ;; Hardware stack levels required when called:    3
  1615 ;; This function calls:
  1616 ;;		_fputc
  1617 ;;		_fputs
  1618 ;;		_strlen
  1619 ;; This function is called by:
  1620 ;;		_dtoa
  1621 ;; This function uses a non-reentrant model
  1622 ;;
  1623                           
  1624                           	psect	text5
  1625  001D70                     __ptext5:
  1626                           	opt callstack 0
  1627  001D70                     _pad:
  1628                           	opt callstack 23
  1629  001D70  0100               	movlb	0	; () banked
  1630  001D72  A166               	btfss	_flags& (0+255),0,b
  1631  001D74  EFBE  F00E         	goto	u1451
  1632  001D78  EFC0  F00E         	goto	u1450
  1633  001D7C                     u1451:
  1634  001D7C  EFCA  F00E         	goto	l1890
  1635  001D80                     u1450:
  1636  001D80                     
  1637                           ; BSR set to: 0
  1638  001D80  C013  F00A         	movff	pad@buf,fputs@s
  1639  001D84  C014  F00B         	movff	pad@buf+1,fputs@s+1
  1640  001D88  C011  F00C         	movff	pad@fp,fputs@fp
  1641  001D8C  C012  F00D         	movff	pad@fp+1,fputs@fp+1
  1642  001D90  EC63  F010         	call	_fputs	;wreg free
  1643  001D94                     l1890:
  1644  001D94  BE16               	btfsc	(pad@p+1)^0,7,c
  1645  001D96  EFCF  F00E         	goto	u1461
  1646  001D9A  EFD1  F00E         	goto	u1460
  1647  001D9E                     u1461:
  1648  001D9E  EFD7  F00E         	goto	l1894
  1649  001DA2                     u1460:
  1650  001DA2  C015  F01A         	movff	pad@p,pad@w
  1651  001DA6  C016  F01B         	movff	pad@p+1,pad@w+1
  1652  001DAA  EFDB  F00E         	goto	l194
  1653  001DAE                     l1894:
  1654  001DAE  0E00               	movlw	0
  1655  001DB0  6E1B               	movwf	(pad@w+1)^0,c
  1656  001DB2  0E00               	movlw	0
  1657  001DB4  6E1A               	movwf	pad@w^0,c
  1658  001DB6                     l194:
  1659  001DB6  0E00               	movlw	0
  1660  001DB8  6E19               	movwf	(pad@i+1)^0,c
  1661  001DBA  0E00               	movlw	0
  1662  001DBC  6E18               	movwf	pad@i^0,c
  1663  001DBE  EFED  F00E         	goto	l1900
  1664  001DC2                     l1896:
  1665  001DC2  0E00               	movlw	0
  1666  001DC4  6E02               	movwf	(fputc@c+1)^0,c
  1667  001DC6  0E20               	movlw	32
  1668  001DC8  6E01               	movwf	fputc@c^0,c
  1669  001DCA  C011  F003         	movff	pad@fp,fputc@fp
  1670  001DCE  C012  F004         	movff	pad@fp+1,fputc@fp+1
  1671  001DD2  EC53  F00E         	call	_fputc	;wreg free
  1672  001DD6  4A18               	infsnz	pad@i^0,f,c
  1673  001DD8  2A19               	incf	(pad@i+1)^0,f,c
  1674  001DDA                     l1900:
  1675  001DDA  501A               	movf	pad@w^0,w,c
  1676  001DDC  5C18               	subwf	pad@i^0,w,c
  1677  001DDE  5019               	movf	(pad@i+1)^0,w,c
  1678  001DE0  0A80               	xorlw	128
  1679  001DE2  6E17               	movwf	??_pad^0,c
  1680  001DE4  501B               	movf	(pad@w+1)^0,w,c
  1681  001DE6  0A80               	xorlw	128
  1682  001DE8  5817               	subwfb	??_pad^0,w,c
  1683  001DEA  A0D8               	btfss	status,0,c
  1684  001DEC  EFFA  F00E         	goto	u1471
  1685  001DF0  EFFC  F00E         	goto	u1470
  1686  001DF4                     u1471:
  1687  001DF4  EFE1  F00E         	goto	l1896
  1688  001DF8                     u1470:
  1689  001DF8  0100               	movlb	0	; () banked
  1690  001DFA  B166               	btfsc	_flags& (0+255),0,b
  1691  001DFC  EF02  F00F         	goto	u1481
  1692  001E00  EF04  F00F         	goto	u1480
  1693  001E04                     u1481:
  1694  001E04  EF0E  F00F         	goto	l1904
  1695  001E08                     u1480:
  1696  001E08                     
  1697                           ; BSR set to: 0
  1698  001E08  C013  F00A         	movff	pad@buf,fputs@s
  1699  001E0C  C014  F00B         	movff	pad@buf+1,fputs@s+1
  1700  001E10  C011  F00C         	movff	pad@fp,fputs@fp
  1701  001E14  C012  F00D         	movff	pad@fp+1,fputs@fp+1
  1702  001E18  EC63  F010         	call	_fputs	;wreg free
  1703  001E1C                     l1904:
  1704  001E1C  C013  F001         	movff	pad@buf,strlen@s
  1705  001E20  C014  F002         	movff	pad@buf+1,strlen@s+1
  1706  001E24  ECE2  F010         	call	_strlen	;wreg free
  1707  001E28  501A               	movf	pad@w^0,w,c
  1708  001E2A  2401               	addwf	?_strlen^0,w,c
  1709  001E2C  6E11               	movwf	?_pad^0,c
  1710  001E2E  501B               	movf	(pad@w+1)^0,w,c
  1711  001E30  2002               	addwfc	(?_strlen+1)^0,w,c
  1712  001E32  6E12               	movwf	(?_pad+1)^0,c
  1713  001E34  0012               	return		;funcret
  1714  001E36                     __end_of_pad:
  1715                           	opt callstack 0
  1716                           
  1717 ;; *************** function _strlen *****************
  1718 ;; Defined at:
  1719 ;;		line 5 in file "C:\Program Files (x86)\Microchip\xc8\v2.10\pic\sources\c99\common\strlen.c"
  1720 ;; Parameters:    Size  Location     Type
  1721 ;;  s               2    0[COMRAM] PTR const unsigned char 
  1722 ;;		 -> dbuf(32), 
  1723 ;; Auto vars:     Size  Location     Type
  1724 ;;  a               2    2[COMRAM] PTR const unsigned char 
  1725 ;;		 -> dbuf(32), 
  1726 ;; Return value:  Size  Location     Type
  1727 ;;                  2    0[COMRAM] unsigned int 
  1728 ;; Registers used:
  1729 ;;		wreg, fsr2l, fsr2h, status,2, status,0
  1730 ;; Tracked objects:
  1731 ;;		On entry : 0/0
  1732 ;;		On exit  : 0/0
  1733 ;;		Unchanged: 0/0
  1734 ;; Data sizes:     COMRAM   BANK0   BANK1   BANK2   BANK3   BANK4   BANK5   BANK6   BANK7
  1735 ;;      Params:         2       0       0       0       0       0       0       0       0
  1736 ;;      Locals:         2       0       0       0       0       0       0       0       0
  1737 ;;      Temps:          0       0       0       0       0       0       0       0       0
  1738 ;;      Totals:         4       0       0       0       0       0       0       0       0
  1739 ;;Total ram usage:        4 bytes
  1740 ;; Hardware stack levels used:    1
  1741 ;; This function calls:
  1742 ;;		Nothing
  1743 ;; This function is called by:
  1744 ;;		_pad
  1745 ;; This function uses a non-reentrant model
  1746 ;;
  1747                           
  1748                           	psect	text6
  1749  0021C4                     __ptext6:
  1750                           	opt callstack 0
  1751  0021C4                     _strlen:
  1752                           	opt callstack 25
  1753  0021C4  C001  F003         	movff	strlen@s,strlen@a
  1754  0021C8  C002  F004         	movff	strlen@s+1,strlen@a+1
  1755  0021CC  EFEA  F010         	goto	l1880
  1756  0021D0                     l1878:
  1757  0021D0  4A01               	infsnz	strlen@s^0,f,c
  1758  0021D2  2A02               	incf	(strlen@s+1)^0,f,c
  1759  0021D4                     l1880:
  1760  0021D4  C001  FFD9         	movff	strlen@s,fsr2l
  1761  0021D8  C002  FFDA         	movff	strlen@s+1,fsr2h
  1762  0021DC  50DF               	movf	indf2,w,c
  1763  0021DE  A4D8               	btfss	status,2,c
  1764  0021E0  EFF4  F010         	goto	u1441
  1765  0021E4  EFF6  F010         	goto	u1440
  1766  0021E8                     u1441:
  1767  0021E8  EFE8  F010         	goto	l1878
  1768  0021EC                     u1440:
  1769  0021EC  5003               	movf	strlen@a^0,w,c
  1770  0021EE  5C01               	subwf	strlen@s^0,w,c
  1771  0021F0  6E01               	movwf	?_strlen^0,c
  1772  0021F2  5004               	movf	(strlen@a+1)^0,w,c
  1773  0021F4  5802               	subwfb	(strlen@s+1)^0,w,c
  1774  0021F6  6E02               	movwf	(?_strlen+1)^0,c
  1775  0021F8  0012               	return		;funcret
  1776  0021FA                     __end_of_strlen:
  1777                           	opt callstack 0
  1778                           
  1779 ;; *************** function _fputs *****************
  1780 ;; Defined at:
  1781 ;;		line 8 in file "C:\Program Files (x86)\Microchip\xc8\v2.10\pic\sources\c99\common\nf_fputs.c"
  1782 ;; Parameters:    Size  Location     Type
  1783 ;;  s               2    9[COMRAM] PTR const unsigned char 
  1784 ;;		 -> dbuf(32), 
  1785 ;;  fp              2   11[COMRAM] PTR struct _IO_FILE
  1786 ;;		 -> sprintf@f(6), 
  1787 ;; Auto vars:     Size  Location     Type
  1788 ;;  i               2   14[COMRAM] int 
  1789 ;;  c               1   13[COMRAM] unsigned char 
  1790 ;; Return value:  Size  Location     Type
  1791 ;;                  2    9[COMRAM] int 
  1792 ;; Registers used:
  1793 ;;		wreg, fsr1l, fsr1h, fsr2l, fsr2h, status,2, status,0, cstack
  1794 ;; Tracked objects:
  1795 ;;		On entry : 0/0
  1796 ;;		On exit  : 0/0
  1797 ;;		Unchanged: 0/0
  1798 ;; Data sizes:     COMRAM   BANK0   BANK1   BANK2   BANK3   BANK4   BANK5   BANK6   BANK7
  1799 ;;      Params:         4       0       0       0       0       0       0       0       0
  1800 ;;      Locals:         3       0       0       0       0       0       0       0       0
  1801 ;;      Temps:          0       0       0       0       0       0       0       0       0
  1802 ;;      Totals:         7       0       0       0       0       0       0       0       0
  1803 ;;Total ram usage:        7 bytes
  1804 ;; Hardware stack levels used:    1
  1805 ;; Hardware stack levels required when called:    2
  1806 ;; This function calls:
  1807 ;;		_fputc
  1808 ;; This function is called by:
  1809 ;;		_pad
  1810 ;; This function uses a non-reentrant model
  1811 ;;
  1812                           
  1813                           	psect	text7
  1814  0020C6                     __ptext7:
  1815                           	opt callstack 0
  1816  0020C6                     _fputs:
  1817                           	opt callstack 23
  1818  0020C6  0E00               	movlw	0
  1819  0020C8  6E10               	movwf	(fputs@i+1)^0,c
  1820  0020CA  0E00               	movlw	0
  1821  0020CC  6E0F               	movwf	fputs@i^0,c
  1822  0020CE  EF74  F010         	goto	l1874
  1823  0020D2                     l1870:
  1824  0020D2  C00E  F001         	movff	fputs@c,fputc@c
  1825  0020D6  6A02               	clrf	(fputc@c+1)^0,c
  1826  0020D8  C00C  F003         	movff	fputs@fp,fputc@fp
  1827  0020DC  C00D  F004         	movff	fputs@fp+1,fputc@fp+1
  1828  0020E0  EC53  F00E         	call	_fputc	;wreg free
  1829  0020E4  4A0F               	infsnz	fputs@i^0,f,c
  1830  0020E6  2A10               	incf	(fputs@i+1)^0,f,c
  1831  0020E8                     l1874:
  1832  0020E8  500F               	movf	fputs@i^0,w,c
  1833  0020EA  240A               	addwf	fputs@s^0,w,c
  1834  0020EC  6ED9               	movwf	fsr2l,c
  1835  0020EE  5010               	movf	(fputs@i+1)^0,w,c
  1836  0020F0  200B               	addwfc	(fputs@s+1)^0,w,c
  1837  0020F2  6EDA               	movwf	fsr2h,c
  1838  0020F4  50DF               	movf	indf2,w,c
  1839  0020F6  6E0E               	movwf	fputs@c^0,c
  1840  0020F8  500E               	movf	fputs@c^0,w,c
  1841  0020FA  A4D8               	btfss	status,2,c
  1842  0020FC  EF82  F010         	goto	u1431
  1843  002100  EF84  F010         	goto	u1430
  1844  002104                     u1431:
  1845  002104  EF69  F010         	goto	l1870
  1846  002108                     u1430:
  1847  002108  0012               	return		;funcret
  1848  00210A                     __end_of_fputs:
  1849                           	opt callstack 0
  1850                           
  1851 ;; *************** function _fputc *****************
  1852 ;; Defined at:
  1853 ;;		line 8 in file "C:\Program Files (x86)\Microchip\xc8\v2.10\pic\sources\c99\common\nf_fputc.c"
  1854 ;; Parameters:    Size  Location     Type
  1855 ;;  c               2    0[COMRAM] int 
  1856 ;;  fp              2    2[COMRAM] PTR struct _IO_FILE
  1857 ;;		 -> sprintf@f(6), 
  1858 ;; Auto vars:     Size  Location     Type
  1859 ;;		None
  1860 ;; Return value:  Size  Location     Type
  1861 ;;                  2    0[COMRAM] int 
  1862 ;; Registers used:
  1863 ;;		wreg, fsr1l, fsr1h, fsr2l, fsr2h, status,2, status,0, cstack
  1864 ;; Tracked objects:
  1865 ;;		On entry : 0/0
  1866 ;;		On exit  : 0/0
  1867 ;;		Unchanged: 0/0
  1868 ;; Data sizes:     COMRAM   BANK0   BANK1   BANK2   BANK3   BANK4   BANK5   BANK6   BANK7
  1869 ;;      Params:         4       0       0       0       0       0       0       0       0
  1870 ;;      Locals:         0       0       0       0       0       0       0       0       0
  1871 ;;      Temps:          5       0       0       0       0       0       0       0       0
  1872 ;;      Totals:         9       0       0       0       0       0       0       0       0
  1873 ;;Total ram usage:        9 bytes
  1874 ;; Hardware stack levels used:    1
  1875 ;; Hardware stack levels required when called:    1
  1876 ;; This function calls:
  1877 ;;		_putch
  1878 ;; This function is called by:
  1879 ;;		_pad
  1880 ;;		_vfpfcnvrt
  1881 ;;		_fputs
  1882 ;; This function uses a non-reentrant model
  1883 ;;
  1884                           
  1885                           	psect	text8
  1886  001CA6                     __ptext8:
  1887                           	opt callstack 0
  1888  001CA6                     _fputc:
  1889                           	opt callstack 26
  1890  001CA6  5003               	movf	fputc@fp^0,w,c
  1891  001CA8  1004               	iorwf	(fputc@fp+1)^0,w,c
  1892  001CAA  B4D8               	btfsc	status,2,c
  1893  001CAC  EF5A  F00E         	goto	u1391
  1894  001CB0  EF5C  F00E         	goto	u1390
  1895  001CB4                     u1391:
  1896  001CB4  EF65  F00E         	goto	l1858
  1897  001CB8                     u1390:
  1898  001CB8  5003               	movf	fputc@fp^0,w,c
  1899  001CBA  1004               	iorwf	(fputc@fp+1)^0,w,c
  1900  001CBC  A4D8               	btfss	status,2,c
  1901  001CBE  EF63  F00E         	goto	u1401
  1902  001CC2  EF65  F00E         	goto	u1400
  1903  001CC6                     u1401:
  1904  001CC6  EF6A  F00E         	goto	l1860
  1905  001CCA                     u1400:
  1906  001CCA                     l1858:
  1907  001CCA  5001               	movf	fputc@c^0,w,c
  1908  001CCC  EC27  F011         	call	_putch
  1909  001CD0  EFB7  F00E         	goto	l942
  1910  001CD4                     l1860:
  1911  001CD4  EE20 F004          	lfsr	2,4
  1912  001CD8  5003               	movf	fputc@fp^0,w,c
  1913  001CDA  26D9               	addwf	fsr2l,f,c
  1914  001CDC  5004               	movf	(fputc@fp+1)^0,w,c
  1915  001CDE  22DA               	addwfc	fsr2h,f,c
  1916  001CE0  50DE               	movf	postinc2,w,c
  1917  001CE2  10DE               	iorwf	postinc2,w,c
  1918  001CE4  B4D8               	btfsc	status,2,c
  1919  001CE6  EF77  F00E         	goto	u1411
  1920  001CEA  EF79  F00E         	goto	u1410
  1921  001CEE                     u1411:
  1922  001CEE  EF94  F00E         	goto	l1864
  1923  001CF2                     u1410:
  1924  001CF2  EE20 F004          	lfsr	2,4
  1925  001CF6  5003               	movf	fputc@fp^0,w,c
  1926  001CF8  26D9               	addwf	fsr2l,f,c
  1927  001CFA  5004               	movf	(fputc@fp+1)^0,w,c
  1928  001CFC  22DA               	addwfc	fsr2h,f,c
  1929  001CFE  EE10 F002          	lfsr	1,2
  1930  001D02  5003               	movf	fputc@fp^0,w,c
  1931  001D04  26E1               	addwf	fsr1l,f,c
  1932  001D06  5004               	movf	(fputc@fp+1)^0,w,c
  1933  001D08  22E2               	addwfc	fsr1h,f,c
  1934  001D0A  50DE               	movf	postinc2,w,c
  1935  001D0C  5CE6               	subwf	postinc1,w,c
  1936  001D0E  50E6               	movf	postinc1,w,c
  1937  001D10  0A80               	xorlw	128
  1938  001D12  6E09               	movwf	(??_fputc+4)^0,c
  1939  001D14  50DE               	movf	postinc2,w,c
  1940  001D16  0A80               	xorlw	128
  1941  001D18  5809               	subwfb	(??_fputc+4)^0,w,c
  1942  001D1A  B0D8               	btfsc	status,0,c
  1943  001D1C  EF92  F00E         	goto	u1421
  1944  001D20  EF94  F00E         	goto	u1420
  1945  001D24                     u1421:
  1946  001D24  EFB7  F00E         	goto	l942
  1947  001D28                     u1420:
  1948  001D28                     l1864:
  1949  001D28  EE20 F002          	lfsr	2,2
  1950  001D2C  5003               	movf	fputc@fp^0,w,c
  1951  001D2E  26D9               	addwf	fsr2l,f,c
  1952  001D30  5004               	movf	(fputc@fp+1)^0,w,c
  1953  001D32  22DA               	addwfc	fsr2h,f,c
  1954  001D34  CFDE F005          	movff	postinc2,??_fputc
  1955  001D38  CFDD F006          	movff	postdec2,??_fputc+1
  1956  001D3C  C003  FFD9         	movff	fputc@fp,fsr2l
  1957  001D40  C004  FFDA         	movff	fputc@fp+1,fsr2h
  1958  001D44  CFDE F007          	movff	postinc2,??_fputc+2
  1959  001D48  CFDD F008          	movff	postdec2,??_fputc+3
  1960  001D4C  5005               	movf	??_fputc^0,w,c
  1961  001D4E  2407               	addwf	(??_fputc+2)^0,w,c
  1962  001D50  6ED9               	movwf	fsr2l,c
  1963  001D52  5006               	movf	(??_fputc+1)^0,w,c
  1964  001D54  2008               	addwfc	(??_fputc+3)^0,w,c
  1965  001D56  6EDA               	movwf	fsr2h,c
  1966  001D58  C001  FFDF         	movff	fputc@c,indf2
  1967  001D5C  EE20 F002          	lfsr	2,2
  1968  001D60  5003               	movf	fputc@fp^0,w,c
  1969  001D62  26D9               	addwf	fsr2l,f,c
  1970  001D64  5004               	movf	(fputc@fp+1)^0,w,c
  1971  001D66  22DA               	addwfc	fsr2h,f,c
  1972  001D68  2ADE               	incf	postinc2,f,c
  1973  001D6A  0E00               	movlw	0
  1974  001D6C  22DD               	addwfc	postdec2,f,c
  1975  001D6E                     l942:
  1976  001D6E  0012               	return		;funcret
  1977  001D70                     __end_of_fputc:
  1978                           	opt callstack 0
  1979                           
  1980 ;; *************** function _putch *****************
  1981 ;; Defined at:
  1982 ;;		line 7 in file "C:\Program Files (x86)\Microchip\xc8\v2.10\pic\sources\c99\common\putch.c"
  1983 ;; Parameters:    Size  Location     Type
  1984 ;;  c               1    wreg     unsigned char 
  1985 ;; Auto vars:     Size  Location     Type
  1986 ;;  c               1    0[COMRAM] unsigned char 
  1987 ;; Return value:  Size  Location     Type
  1988 ;;                  1    wreg      void 
  1989 ;; Registers used:
  1990 ;;		wreg
  1991 ;; Tracked objects:
  1992 ;;		On entry : 0/0
  1993 ;;		On exit  : 0/0
  1994 ;;		Unchanged: 0/0
  1995 ;; Data sizes:     COMRAM   BANK0   BANK1   BANK2   BANK3   BANK4   BANK5   BANK6   BANK7
  1996 ;;      Params:         0       0       0       0       0       0       0       0       0
  1997 ;;      Locals:         0       0       0       0       0       0       0       0       0
  1998 ;;      Temps:          0       0       0       0       0       0       0       0       0
  1999 ;;      Totals:         0       0       0       0       0       0       0       0       0
  2000 ;;Total ram usage:        0 bytes
  2001 ;; Hardware stack levels used:    1
  2002 ;; This function calls:
  2003 ;;		Nothing
  2004 ;; This function is called by:
  2005 ;;		_fputc
  2006 ;; This function uses a non-reentrant model
  2007 ;;
  2008                           
  2009                           	psect	text9
  2010  00224E                     __ptext9:
  2011                           	opt callstack 0
  2012  00224E                     _putch:
  2013                           	opt callstack 26
  2014  00224E  0012               	return		;funcret
  2015  002250                     __end_of_putch:
  2016                           	opt callstack 0
  2017                           
  2018 ;; *************** function _abs *****************
  2019 ;; Defined at:
  2020 ;;		line 1 in file "C:\Program Files (x86)\Microchip\xc8\v2.10\pic\sources\c99\common\abs.c"
  2021 ;; Parameters:    Size  Location     Type
  2022 ;;  a               2   18[COMRAM] int 
  2023 ;; Auto vars:     Size  Location     Type
  2024 ;;		None
  2025 ;; Return value:  Size  Location     Type
  2026 ;;                  2   18[COMRAM] int 
  2027 ;; Registers used:
  2028 ;;		wreg, status,2, status,0
  2029 ;; Tracked objects:
  2030 ;;		On entry : 0/0
  2031 ;;		On exit  : 0/0
  2032 ;;		Unchanged: 0/0
  2033 ;; Data sizes:     COMRAM   BANK0   BANK1   BANK2   BANK3   BANK4   BANK5   BANK6   BANK7
  2034 ;;      Params:         2       0       0       0       0       0       0       0       0
  2035 ;;      Locals:         0       0       0       0       0       0       0       0       0
  2036 ;;      Temps:          2       0       0       0       0       0       0       0       0
  2037 ;;      Totals:         4       0       0       0       0       0       0       0       0
  2038 ;;Total ram usage:        4 bytes
  2039 ;; Hardware stack levels used:    1
  2040 ;; This function calls:
  2041 ;;		Nothing
  2042 ;; This function is called by:
  2043 ;;		_dtoa
  2044 ;; This function uses a non-reentrant model
  2045 ;;
  2046                           
  2047                           	psect	text10
  2048  00210A                     __ptext10:
  2049                           	opt callstack 0
  2050  00210A                     _abs:
  2051                           	opt callstack 26
  2052  00210A  BE14               	btfsc	(abs@a+1)^0,7,c
  2053  00210C  EF92  F010         	goto	u1490
  2054  002110  5014               	movf	(abs@a+1)^0,w,c
  2055  002112  E106               	bnz	u1491
  2056  002114  0413               	decf	abs@a^0,w,c
  2057  002116  B0D8               	btfsc	status,0,c
  2058  002118  EF90  F010         	goto	u1491
  2059  00211C  EF92  F010         	goto	u1490
  2060  002120                     u1491:
  2061  002120  EFA0  F010         	goto	l917
  2062  002124                     u1490:
  2063  002124  C013  F015         	movff	abs@a,??_abs
  2064  002128  C014  F016         	movff	abs@a+1,??_abs+1
  2065  00212C  1E15               	comf	??_abs^0,f,c
  2066  00212E  1E16               	comf	(??_abs+1)^0,f,c
  2067  002130  4A15               	infsnz	??_abs^0,f,c
  2068  002132  2A16               	incf	(??_abs+1)^0,f,c
  2069  002134  C015  F013         	movff	??_abs,?_abs
  2070  002138  C016  F014         	movff	??_abs+1,?_abs+1
  2071  00213C  EFA4  F010         	goto	l920
  2072  002140                     l917:
  2073  002140  C013  F013         	movff	abs@a,?_abs
  2074  002144  C014  F014         	movff	abs@a+1,?_abs+1
  2075  002148                     l920:
  2076  002148  0012               	return		;funcret
  2077  00214A                     __end_of_abs:
  2078                           	opt callstack 0
  2079                           
  2080 ;; *************** function ___aomod *****************
  2081 ;; Defined at:
  2082 ;;		line 9 in file "C:\Program Files (x86)\Microchip\xc8\v2.10\pic\sources\c99\common\aomod.c"
  2083 ;; Parameters:    Size  Location     Type
  2084 ;;  dividend        8    0[COMRAM] long long 
  2085 ;;  divisor         8    8[COMRAM] long long 
  2086 ;; Auto vars:     Size  Location     Type
  2087 ;;  sign            1   17[COMRAM] unsigned char 
  2088 ;;  counter         1   16[COMRAM] unsigned char 
  2089 ;; Return value:  Size  Location     Type
  2090 ;;                  8    0[COMRAM] long long 
  2091 ;; Registers used:
  2092 ;;		wreg, status,2, status,0
  2093 ;; Tracked objects:
  2094 ;;		On entry : 0/0
  2095 ;;		On exit  : 0/0
  2096 ;;		Unchanged: 0/0
  2097 ;; Data sizes:     COMRAM   BANK0   BANK1   BANK2   BANK3   BANK4   BANK5   BANK6   BANK7
  2098 ;;      Params:        16       0       0       0       0       0       0       0       0
  2099 ;;      Locals:         2       0       0       0       0       0       0       0       0
  2100 ;;      Temps:          0       0       0       0       0       0       0       0       0
  2101 ;;      Totals:        18       0       0       0       0       0       0       0       0
  2102 ;;Total ram usage:       18 bytes
  2103 ;; Hardware stack levels used:    1
  2104 ;; This function calls:
  2105 ;;		Nothing
  2106 ;; This function is called by:
  2107 ;;		_dtoa
  2108 ;; This function uses a non-reentrant model
  2109 ;;
  2110                           
  2111                           	psect	text11
  2112  001920                     __ptext11:
  2113                           	opt callstack 0
  2114  001920                     ___aomod:
  2115                           	opt callstack 26
  2116  001920  0E00               	movlw	0
  2117  001922  6E12               	movwf	___aomod@sign^0,c
  2118  001924  BE08               	btfsc	(___aomod@dividend+7)^0,7,c
  2119  001926  EF99  F00C         	goto	u1570
  2120  00192A  EF97  F00C         	goto	u1571
  2121  00192E                     u1571:
  2122  00192E  EFAB  F00C         	goto	l1964
  2123  001932                     u1570:
  2124  001932  1E08               	comf	(___aomod@dividend+7)^0,f,c
  2125  001934  1E07               	comf	(___aomod@dividend+6)^0,f,c
  2126  001936  1E06               	comf	(___aomod@dividend+5)^0,f,c
  2127  001938  1E05               	comf	(___aomod@dividend+4)^0,f,c
  2128  00193A  1E04               	comf	(___aomod@dividend+3)^0,f,c
  2129  00193C  1E03               	comf	(___aomod@dividend+2)^0,f,c
  2130  00193E  1E02               	comf	(___aomod@dividend+1)^0,f,c
  2131  001940  6C01               	negf	___aomod@dividend^0,c
  2132  001942  0E00               	movlw	0
  2133  001944  2202               	addwfc	(___aomod@dividend+1)^0,f,c
  2134  001946  2203               	addwfc	(___aomod@dividend+2)^0,f,c
  2135  001948  2204               	addwfc	(___aomod@dividend+3)^0,f,c
  2136  00194A  2205               	addwfc	(___aomod@dividend+4)^0,f,c
  2137  00194C  2206               	addwfc	(___aomod@dividend+5)^0,f,c
  2138  00194E  2207               	addwfc	(___aomod@dividend+6)^0,f,c
  2139  001950  2208               	addwfc	(___aomod@dividend+7)^0,f,c
  2140  001952  0E01               	movlw	1
  2141  001954  6E12               	movwf	___aomod@sign^0,c
  2142  001956                     l1964:
  2143  001956  BE10               	btfsc	(___aomod@divisor+7)^0,7,c
  2144  001958  EFB2  F00C         	goto	u1580
  2145  00195C  EFB0  F00C         	goto	u1581
  2146  001960                     u1581:
  2147  001960  EFC2  F00C         	goto	l1968
  2148  001964                     u1580:
  2149  001964  1E10               	comf	(___aomod@divisor+7)^0,f,c
  2150  001966  1E0F               	comf	(___aomod@divisor+6)^0,f,c
  2151  001968  1E0E               	comf	(___aomod@divisor+5)^0,f,c
  2152  00196A  1E0D               	comf	(___aomod@divisor+4)^0,f,c
  2153  00196C  1E0C               	comf	(___aomod@divisor+3)^0,f,c
  2154  00196E  1E0B               	comf	(___aomod@divisor+2)^0,f,c
  2155  001970  1E0A               	comf	(___aomod@divisor+1)^0,f,c
  2156  001972  6C09               	negf	___aomod@divisor^0,c
  2157  001974  0E00               	movlw	0
  2158  001976  220A               	addwfc	(___aomod@divisor+1)^0,f,c
  2159  001978  220B               	addwfc	(___aomod@divisor+2)^0,f,c
  2160  00197A  220C               	addwfc	(___aomod@divisor+3)^0,f,c
  2161  00197C  220D               	addwfc	(___aomod@divisor+4)^0,f,c
  2162  00197E  220E               	addwfc	(___aomod@divisor+5)^0,f,c
  2163  001980  220F               	addwfc	(___aomod@divisor+6)^0,f,c
  2164  001982  2210               	addwfc	(___aomod@divisor+7)^0,f,c
  2165  001984                     l1968:
  2166  001984  5009               	movf	___aomod@divisor^0,w,c
  2167  001986  100A               	iorwf	(___aomod@divisor+1)^0,w,c
  2168  001988  100B               	iorwf	(___aomod@divisor+2)^0,w,c
  2169  00198A  100C               	iorwf	(___aomod@divisor+3)^0,w,c
  2170  00198C  100D               	iorwf	(___aomod@divisor+4)^0,w,c
  2171  00198E  100E               	iorwf	(___aomod@divisor+5)^0,w,c
  2172  001990  100F               	iorwf	(___aomod@divisor+6)^0,w,c
  2173  001992  1010               	iorwf	(___aomod@divisor+7)^0,w,c
  2174  001994  B4D8               	btfsc	status,2,c
  2175  001996  EFCF  F00C         	goto	u1591
  2176  00199A  EFD1  F00C         	goto	u1590
  2177  00199E                     u1591:
  2178  00199E  EF19  F00D         	goto	l1984
  2179  0019A2                     u1590:
  2180  0019A2  0E01               	movlw	1
  2181  0019A4  6E11               	movwf	___aomod@counter^0,c
  2182  0019A6  EFDF  F00C         	goto	l1974
  2183  0019AA                     l1972:
  2184  0019AA  90D8               	bcf	status,0,c
  2185  0019AC  3609               	rlcf	___aomod@divisor^0,f,c
  2186  0019AE  360A               	rlcf	(___aomod@divisor+1)^0,f,c
  2187  0019B0  360B               	rlcf	(___aomod@divisor+2)^0,f,c
  2188  0019B2  360C               	rlcf	(___aomod@divisor+3)^0,f,c
  2189  0019B4  360D               	rlcf	(___aomod@divisor+4)^0,f,c
  2190  0019B6  360E               	rlcf	(___aomod@divisor+5)^0,f,c
  2191  0019B8  360F               	rlcf	(___aomod@divisor+6)^0,f,c
  2192  0019BA  3610               	rlcf	(___aomod@divisor+7)^0,f,c
  2193  0019BC  2A11               	incf	___aomod@counter^0,f,c
  2194  0019BE                     l1974:
  2195  0019BE  AE10               	btfss	(___aomod@divisor+7)^0,7,c
  2196  0019C0  EFE4  F00C         	goto	u1601
  2197  0019C4  EFE6  F00C         	goto	u1600
  2198  0019C8                     u1601:
  2199  0019C8  EFD5  F00C         	goto	l1972
  2200  0019CC                     u1600:
  2201  0019CC                     l1976:
  2202  0019CC  5009               	movf	___aomod@divisor^0,w,c
  2203  0019CE  5C01               	subwf	___aomod@dividend^0,w,c
  2204  0019D0  500A               	movf	(___aomod@divisor+1)^0,w,c
  2205  0019D2  5802               	subwfb	(___aomod@dividend+1)^0,w,c
  2206  0019D4  500B               	movf	(___aomod@divisor+2)^0,w,c
  2207  0019D6  5803               	subwfb	(___aomod@dividend+2)^0,w,c
  2208  0019D8  500C               	movf	(___aomod@divisor+3)^0,w,c
  2209  0019DA  5804               	subwfb	(___aomod@dividend+3)^0,w,c
  2210  0019DC  500D               	movf	(___aomod@divisor+4)^0,w,c
  2211  0019DE  5805               	subwfb	(___aomod@dividend+4)^0,w,c
  2212  0019E0  500E               	movf	(___aomod@divisor+5)^0,w,c
  2213  0019E2  5806               	subwfb	(___aomod@dividend+5)^0,w,c
  2214  0019E4  500F               	movf	(___aomod@divisor+6)^0,w,c
  2215  0019E6  5807               	subwfb	(___aomod@dividend+6)^0,w,c
  2216  0019E8  5010               	movf	(___aomod@divisor+7)^0,w,c
  2217  0019EA  5808               	subwfb	(___aomod@dividend+7)^0,w,c
  2218  0019EC  A0D8               	btfss	status,0,c
  2219  0019EE  EFFB  F00C         	goto	u1611
  2220  0019F2  EFFD  F00C         	goto	u1610
  2221  0019F6                     u1611:
  2222  0019F6  EF0D  F00D         	goto	l1980
  2223  0019FA                     u1610:
  2224  0019FA  5009               	movf	___aomod@divisor^0,w,c
  2225  0019FC  5E01               	subwf	___aomod@dividend^0,f,c
  2226  0019FE  500A               	movf	(___aomod@divisor+1)^0,w,c
  2227  001A00  5A02               	subwfb	(___aomod@dividend+1)^0,f,c
  2228  001A02  500B               	movf	(___aomod@divisor+2)^0,w,c
  2229  001A04  5A03               	subwfb	(___aomod@dividend+2)^0,f,c
  2230  001A06  500C               	movf	(___aomod@divisor+3)^0,w,c
  2231  001A08  5A04               	subwfb	(___aomod@dividend+3)^0,f,c
  2232  001A0A  500D               	movf	(___aomod@divisor+4)^0,w,c
  2233  001A0C  5A05               	subwfb	(___aomod@dividend+4)^0,f,c
  2234  001A0E  500E               	movf	(___aomod@divisor+5)^0,w,c
  2235  001A10  5A06               	subwfb	(___aomod@dividend+5)^0,f,c
  2236  001A12  500F               	movf	(___aomod@divisor+6)^0,w,c
  2237  001A14  5A07               	subwfb	(___aomod@dividend+6)^0,f,c
  2238  001A16  5010               	movf	(___aomod@divisor+7)^0,w,c
  2239  001A18  5A08               	subwfb	(___aomod@dividend+7)^0,f,c
  2240  001A1A                     l1980:
  2241  001A1A  90D8               	bcf	status,0,c
  2242  001A1C  3210               	rrcf	(___aomod@divisor+7)^0,f,c
  2243  001A1E  320F               	rrcf	(___aomod@divisor+6)^0,f,c
  2244  001A20  320E               	rrcf	(___aomod@divisor+5)^0,f,c
  2245  001A22  320D               	rrcf	(___aomod@divisor+4)^0,f,c
  2246  001A24  320C               	rrcf	(___aomod@divisor+3)^0,f,c
  2247  001A26  320B               	rrcf	(___aomod@divisor+2)^0,f,c
  2248  001A28  320A               	rrcf	(___aomod@divisor+1)^0,f,c
  2249  001A2A  3209               	rrcf	___aomod@divisor^0,f,c
  2250  001A2C  2E11               	decfsz	___aomod@counter^0,f,c
  2251  001A2E  EFE6  F00C         	goto	l1976
  2252  001A32                     l1984:
  2253  001A32  5012               	movf	___aomod@sign^0,w,c
  2254  001A34  B4D8               	btfsc	status,2,c
  2255  001A36  EF1F  F00D         	goto	u1621
  2256  001A3A  EF21  F00D         	goto	u1620
  2257  001A3E                     u1621:
  2258  001A3E  EF31  F00D         	goto	l1988
  2259  001A42                     u1620:
  2260  001A42  1E08               	comf	(___aomod@dividend+7)^0,f,c
  2261  001A44  1E07               	comf	(___aomod@dividend+6)^0,f,c
  2262  001A46  1E06               	comf	(___aomod@dividend+5)^0,f,c
  2263  001A48  1E05               	comf	(___aomod@dividend+4)^0,f,c
  2264  001A4A  1E04               	comf	(___aomod@dividend+3)^0,f,c
  2265  001A4C  1E03               	comf	(___aomod@dividend+2)^0,f,c
  2266  001A4E  1E02               	comf	(___aomod@dividend+1)^0,f,c
  2267  001A50  6C01               	negf	___aomod@dividend^0,c
  2268  001A52  0E00               	movlw	0
  2269  001A54  2202               	addwfc	(___aomod@dividend+1)^0,f,c
  2270  001A56  2203               	addwfc	(___aomod@dividend+2)^0,f,c
  2271  001A58  2204               	addwfc	(___aomod@dividend+3)^0,f,c
  2272  001A5A  2205               	addwfc	(___aomod@dividend+4)^0,f,c
  2273  001A5C  2206               	addwfc	(___aomod@dividend+5)^0,f,c
  2274  001A5E  2207               	addwfc	(___aomod@dividend+6)^0,f,c
  2275  001A60  2208               	addwfc	(___aomod@dividend+7)^0,f,c
  2276  001A62                     l1988:
  2277  001A62  C001  F001         	movff	___aomod@dividend,?___aomod
  2278  001A66  C002  F002         	movff	___aomod@dividend+1,?___aomod+1
  2279  001A6A  C003  F003         	movff	___aomod@dividend+2,?___aomod+2
  2280  001A6E  C004  F004         	movff	___aomod@dividend+3,?___aomod+3
  2281  001A72  C005  F005         	movff	___aomod@dividend+4,?___aomod+4
  2282  001A76  C006  F006         	movff	___aomod@dividend+5,?___aomod+5
  2283  001A7A  C007  F007         	movff	___aomod@dividend+6,?___aomod+6
  2284  001A7E  C008  F008         	movff	___aomod@dividend+7,?___aomod+7
  2285  001A82  0012               	return		;funcret
  2286  001A84                     __end_of___aomod:
  2287                           	opt callstack 0
  2288                           
  2289 ;; *************** function ___aodiv *****************
  2290 ;; Defined at:
  2291 ;;		line 9 in file "C:\Program Files (x86)\Microchip\xc8\v2.10\pic\sources\c99\common\aodiv.c"
  2292 ;; Parameters:    Size  Location     Type
  2293 ;;  dividend        8    0[COMRAM] long long 
  2294 ;;  divisor         8    8[COMRAM] long long 
  2295 ;; Auto vars:     Size  Location     Type
  2296 ;;  quotient        8   18[COMRAM] long long 
  2297 ;;  sign            1   17[COMRAM] unsigned char 
  2298 ;;  counter         1   16[COMRAM] unsigned char 
  2299 ;; Return value:  Size  Location     Type
  2300 ;;                  8    0[COMRAM] long long 
  2301 ;; Registers used:
  2302 ;;		wreg, fsr2l, fsr2h, status,2, status,0
  2303 ;; Tracked objects:
  2304 ;;		On entry : 0/0
  2305 ;;		On exit  : 0/0
  2306 ;;		Unchanged: 0/0
  2307 ;; Data sizes:     COMRAM   BANK0   BANK1   BANK2   BANK3   BANK4   BANK5   BANK6   BANK7
  2308 ;;      Params:        16       0       0       0       0       0       0       0       0
  2309 ;;      Locals:        10       0       0       0       0       0       0       0       0
  2310 ;;      Temps:          0       0       0       0       0       0       0       0       0
  2311 ;;      Totals:        26       0       0       0       0       0       0       0       0
  2312 ;;Total ram usage:       26 bytes
  2313 ;; Hardware stack levels used:    1
  2314 ;; This function calls:
  2315 ;;		Nothing
  2316 ;; This function is called by:
  2317 ;;		_dtoa
  2318 ;; This function uses a non-reentrant model
  2319 ;;
  2320                           
  2321                           	psect	text12
  2322  001622                     __ptext12:
  2323                           	opt callstack 0
  2324  001622                     ___aodiv:
  2325                           	opt callstack 26
  2326  001622  0E00               	movlw	0
  2327  001624  6E12               	movwf	___aodiv@sign^0,c
  2328  001626  BE10               	btfsc	(___aodiv@divisor+7)^0,7,c
  2329  001628  EF1A  F00B         	goto	u1500
  2330  00162C  EF18  F00B         	goto	u1501
  2331  001630                     u1501:
  2332  001630  EF2C  F00B         	goto	l1920
  2333  001634                     u1500:
  2334  001634  1E10               	comf	(___aodiv@divisor+7)^0,f,c
  2335  001636  1E0F               	comf	(___aodiv@divisor+6)^0,f,c
  2336  001638  1E0E               	comf	(___aodiv@divisor+5)^0,f,c
  2337  00163A  1E0D               	comf	(___aodiv@divisor+4)^0,f,c
  2338  00163C  1E0C               	comf	(___aodiv@divisor+3)^0,f,c
  2339  00163E  1E0B               	comf	(___aodiv@divisor+2)^0,f,c
  2340  001640  1E0A               	comf	(___aodiv@divisor+1)^0,f,c
  2341  001642  6C09               	negf	___aodiv@divisor^0,c
  2342  001644  0E00               	movlw	0
  2343  001646  220A               	addwfc	(___aodiv@divisor+1)^0,f,c
  2344  001648  220B               	addwfc	(___aodiv@divisor+2)^0,f,c
  2345  00164A  220C               	addwfc	(___aodiv@divisor+3)^0,f,c
  2346  00164C  220D               	addwfc	(___aodiv@divisor+4)^0,f,c
  2347  00164E  220E               	addwfc	(___aodiv@divisor+5)^0,f,c
  2348  001650  220F               	addwfc	(___aodiv@divisor+6)^0,f,c
  2349  001652  2210               	addwfc	(___aodiv@divisor+7)^0,f,c
  2350  001654  0E01               	movlw	1
  2351  001656  6E12               	movwf	___aodiv@sign^0,c
  2352  001658                     l1920:
  2353  001658  BE08               	btfsc	(___aodiv@dividend+7)^0,7,c
  2354  00165A  EF33  F00B         	goto	u1510
  2355  00165E  EF31  F00B         	goto	u1511
  2356  001662                     u1511:
  2357  001662  EF45  F00B         	goto	l1926
  2358  001666                     u1510:
  2359  001666  1E08               	comf	(___aodiv@dividend+7)^0,f,c
  2360  001668  1E07               	comf	(___aodiv@dividend+6)^0,f,c
  2361  00166A  1E06               	comf	(___aodiv@dividend+5)^0,f,c
  2362  00166C  1E05               	comf	(___aodiv@dividend+4)^0,f,c
  2363  00166E  1E04               	comf	(___aodiv@dividend+3)^0,f,c
  2364  001670  1E03               	comf	(___aodiv@dividend+2)^0,f,c
  2365  001672  1E02               	comf	(___aodiv@dividend+1)^0,f,c
  2366  001674  6C01               	negf	___aodiv@dividend^0,c
  2367  001676  0E00               	movlw	0
  2368  001678  2202               	addwfc	(___aodiv@dividend+1)^0,f,c
  2369  00167A  2203               	addwfc	(___aodiv@dividend+2)^0,f,c
  2370  00167C  2204               	addwfc	(___aodiv@dividend+3)^0,f,c
  2371  00167E  2205               	addwfc	(___aodiv@dividend+4)^0,f,c
  2372  001680  2206               	addwfc	(___aodiv@dividend+5)^0,f,c
  2373  001682  2207               	addwfc	(___aodiv@dividend+6)^0,f,c
  2374  001684  2208               	addwfc	(___aodiv@dividend+7)^0,f,c
  2375  001686  0E01               	movlw	1
  2376  001688  1A12               	xorwf	___aodiv@sign^0,f,c
  2377  00168A                     l1926:
  2378  00168A  EE20  F013         	lfsr	2,___aodiv@quotient
  2379  00168E  0E07               	movlw	7
  2380  001690                     u1521:
  2381  001690  6ADE               	clrf	postinc2,c
  2382  001692  06E8               	decf	wreg,f,c
  2383  001694  E2FD               	bc	u1521
  2384  001696  5009               	movf	___aodiv@divisor^0,w,c
  2385  001698  100A               	iorwf	(___aodiv@divisor+1)^0,w,c
  2386  00169A  100B               	iorwf	(___aodiv@divisor+2)^0,w,c
  2387  00169C  100C               	iorwf	(___aodiv@divisor+3)^0,w,c
  2388  00169E  100D               	iorwf	(___aodiv@divisor+4)^0,w,c
  2389  0016A0  100E               	iorwf	(___aodiv@divisor+5)^0,w,c
  2390  0016A2  100F               	iorwf	(___aodiv@divisor+6)^0,w,c
  2391  0016A4  1010               	iorwf	(___aodiv@divisor+7)^0,w,c
  2392  0016A6  B4D8               	btfsc	status,2,c
  2393  0016A8  EF58  F00B         	goto	u1531
  2394  0016AC  EF5A  F00B         	goto	u1530
  2395  0016B0                     u1531:
  2396  0016B0  EFAC  F00B         	goto	l1948
  2397  0016B4                     u1530:
  2398  0016B4  0E01               	movlw	1
  2399  0016B6  6E11               	movwf	___aodiv@counter^0,c
  2400  0016B8  EF68  F00B         	goto	l1934
  2401  0016BC                     l1932:
  2402  0016BC  90D8               	bcf	status,0,c
  2403  0016BE  3609               	rlcf	___aodiv@divisor^0,f,c
  2404  0016C0  360A               	rlcf	(___aodiv@divisor+1)^0,f,c
  2405  0016C2  360B               	rlcf	(___aodiv@divisor+2)^0,f,c
  2406  0016C4  360C               	rlcf	(___aodiv@divisor+3)^0,f,c
  2407  0016C6  360D               	rlcf	(___aodiv@divisor+4)^0,f,c
  2408  0016C8  360E               	rlcf	(___aodiv@divisor+5)^0,f,c
  2409  0016CA  360F               	rlcf	(___aodiv@divisor+6)^0,f,c
  2410  0016CC  3610               	rlcf	(___aodiv@divisor+7)^0,f,c
  2411  0016CE  2A11               	incf	___aodiv@counter^0,f,c
  2412  0016D0                     l1934:
  2413  0016D0  AE10               	btfss	(___aodiv@divisor+7)^0,7,c
  2414  0016D2  EF6D  F00B         	goto	u1541
  2415  0016D6  EF6F  F00B         	goto	u1540
  2416  0016DA                     u1541:
  2417  0016DA  EF5E  F00B         	goto	l1932
  2418  0016DE                     u1540:
  2419  0016DE                     l1936:
  2420  0016DE  90D8               	bcf	status,0,c
  2421  0016E0  3613               	rlcf	___aodiv@quotient^0,f,c
  2422  0016E2  3614               	rlcf	(___aodiv@quotient+1)^0,f,c
  2423  0016E4  3615               	rlcf	(___aodiv@quotient+2)^0,f,c
  2424  0016E6  3616               	rlcf	(___aodiv@quotient+3)^0,f,c
  2425  0016E8  3617               	rlcf	(___aodiv@quotient+4)^0,f,c
  2426  0016EA  3618               	rlcf	(___aodiv@quotient+5)^0,f,c
  2427  0016EC  3619               	rlcf	(___aodiv@quotient+6)^0,f,c
  2428  0016EE  361A               	rlcf	(___aodiv@quotient+7)^0,f,c
  2429  0016F0  5009               	movf	___aodiv@divisor^0,w,c
  2430  0016F2  5C01               	subwf	___aodiv@dividend^0,w,c
  2431  0016F4  500A               	movf	(___aodiv@divisor+1)^0,w,c
  2432  0016F6  5802               	subwfb	(___aodiv@dividend+1)^0,w,c
  2433  0016F8  500B               	movf	(___aodiv@divisor+2)^0,w,c
  2434  0016FA  5803               	subwfb	(___aodiv@dividend+2)^0,w,c
  2435  0016FC  500C               	movf	(___aodiv@divisor+3)^0,w,c
  2436  0016FE  5804               	subwfb	(___aodiv@dividend+3)^0,w,c
  2437  001700  500D               	movf	(___aodiv@divisor+4)^0,w,c
  2438  001702  5805               	subwfb	(___aodiv@dividend+4)^0,w,c
  2439  001704  500E               	movf	(___aodiv@divisor+5)^0,w,c
  2440  001706  5806               	subwfb	(___aodiv@dividend+5)^0,w,c
  2441  001708  500F               	movf	(___aodiv@divisor+6)^0,w,c
  2442  00170A  5807               	subwfb	(___aodiv@dividend+6)^0,w,c
  2443  00170C  5010               	movf	(___aodiv@divisor+7)^0,w,c
  2444  00170E  5808               	subwfb	(___aodiv@dividend+7)^0,w,c
  2445  001710  A0D8               	btfss	status,0,c
  2446  001712  EF8D  F00B         	goto	u1551
  2447  001716  EF8F  F00B         	goto	u1550
  2448  00171A                     u1551:
  2449  00171A  EFA0  F00B         	goto	l1944
  2450  00171E                     u1550:
  2451  00171E  5009               	movf	___aodiv@divisor^0,w,c
  2452  001720  5E01               	subwf	___aodiv@dividend^0,f,c
  2453  001722  500A               	movf	(___aodiv@divisor+1)^0,w,c
  2454  001724  5A02               	subwfb	(___aodiv@dividend+1)^0,f,c
  2455  001726  500B               	movf	(___aodiv@divisor+2)^0,w,c
  2456  001728  5A03               	subwfb	(___aodiv@dividend+2)^0,f,c
  2457  00172A  500C               	movf	(___aodiv@divisor+3)^0,w,c
  2458  00172C  5A04               	subwfb	(___aodiv@dividend+3)^0,f,c
  2459  00172E  500D               	movf	(___aodiv@divisor+4)^0,w,c
  2460  001730  5A05               	subwfb	(___aodiv@dividend+4)^0,f,c
  2461  001732  500E               	movf	(___aodiv@divisor+5)^0,w,c
  2462  001734  5A06               	subwfb	(___aodiv@dividend+5)^0,f,c
  2463  001736  500F               	movf	(___aodiv@divisor+6)^0,w,c
  2464  001738  5A07               	subwfb	(___aodiv@dividend+6)^0,f,c
  2465  00173A  5010               	movf	(___aodiv@divisor+7)^0,w,c
  2466  00173C  5A08               	subwfb	(___aodiv@dividend+7)^0,f,c
  2467  00173E  8013               	bsf	___aodiv@quotient^0,0,c
  2468  001740                     l1944:
  2469  001740  90D8               	bcf	status,0,c
  2470  001742  3210               	rrcf	(___aodiv@divisor+7)^0,f,c
  2471  001744  320F               	rrcf	(___aodiv@divisor+6)^0,f,c
  2472  001746  320E               	rrcf	(___aodiv@divisor+5)^0,f,c
  2473  001748  320D               	rrcf	(___aodiv@divisor+4)^0,f,c
  2474  00174A  320C               	rrcf	(___aodiv@divisor+3)^0,f,c
  2475  00174C  320B               	rrcf	(___aodiv@divisor+2)^0,f,c
  2476  00174E  320A               	rrcf	(___aodiv@divisor+1)^0,f,c
  2477  001750  3209               	rrcf	___aodiv@divisor^0,f,c
  2478  001752  2E11               	decfsz	___aodiv@counter^0,f,c
  2479  001754  EF6F  F00B         	goto	l1936
  2480  001758                     l1948:
  2481  001758  5012               	movf	___aodiv@sign^0,w,c
  2482  00175A  B4D8               	btfsc	status,2,c
  2483  00175C  EFB2  F00B         	goto	u1561
  2484  001760  EFB4  F00B         	goto	u1560
  2485  001764                     u1561:
  2486  001764  EFC4  F00B         	goto	l1952
  2487  001768                     u1560:
  2488  001768  1E1A               	comf	(___aodiv@quotient+7)^0,f,c
  2489  00176A  1E19               	comf	(___aodiv@quotient+6)^0,f,c
  2490  00176C  1E18               	comf	(___aodiv@quotient+5)^0,f,c
  2491  00176E  1E17               	comf	(___aodiv@quotient+4)^0,f,c
  2492  001770  1E16               	comf	(___aodiv@quotient+3)^0,f,c
  2493  001772  1E15               	comf	(___aodiv@quotient+2)^0,f,c
  2494  001774  1E14               	comf	(___aodiv@quotient+1)^0,f,c
  2495  001776  6C13               	negf	___aodiv@quotient^0,c
  2496  001778  0E00               	movlw	0
  2497  00177A  2214               	addwfc	(___aodiv@quotient+1)^0,f,c
  2498  00177C  2215               	addwfc	(___aodiv@quotient+2)^0,f,c
  2499  00177E  2216               	addwfc	(___aodiv@quotient+3)^0,f,c
  2500  001780  2217               	addwfc	(___aodiv@quotient+4)^0,f,c
  2501  001782  2218               	addwfc	(___aodiv@quotient+5)^0,f,c
  2502  001784  2219               	addwfc	(___aodiv@quotient+6)^0,f,c
  2503  001786  221A               	addwfc	(___aodiv@quotient+7)^0,f,c
  2504  001788                     l1952:
  2505  001788  C013  F001         	movff	___aodiv@quotient,?___aodiv
  2506  00178C  C014  F002         	movff	___aodiv@quotient+1,?___aodiv+1
  2507  001790  C015  F003         	movff	___aodiv@quotient+2,?___aodiv+2
  2508  001794  C016  F004         	movff	___aodiv@quotient+3,?___aodiv+3
  2509  001798  C017  F005         	movff	___aodiv@quotient+4,?___aodiv+4
  2510  00179C  C018  F006         	movff	___aodiv@quotient+5,?___aodiv+5
  2511  0017A0  C019  F007         	movff	___aodiv@quotient+6,?___aodiv+6
  2512  0017A4  C01A  F008         	movff	___aodiv@quotient+7,?___aodiv+7
  2513  0017A8  0012               	return		;funcret
  2514  0017AA                     __end_of___aodiv:
  2515                           	opt callstack 0
  2516                           
  2517 ;; *************** function _memset *****************
  2518 ;; Defined at:
  2519 ;;		line 4 in file "C:\Program Files (x86)\Microchip\xc8\v2.10\pic\sources\c99\common\memset.c"
  2520 ;; Parameters:    Size  Location     Type
  2521 ;;  dest            2    0[COMRAM] PTR void 
  2522 ;;		 -> main@Temperatura(10), 
  2523 ;;  c               2    2[COMRAM] int 
  2524 ;;  n               2    4[COMRAM] unsigned int 
  2525 ;; Auto vars:     Size  Location     Type
  2526 ;;  s               2   10[COMRAM] PTR unsigned char 
  2527 ;;		 -> main@Temperatura(10), 
  2528 ;;  k               2    8[COMRAM] unsigned int 
  2529 ;; Return value:  Size  Location     Type
  2530 ;;                  2    0[COMRAM] PTR void 
  2531 ;; Registers used:
  2532 ;;		wreg, fsr2l, fsr2h, status,2, status,0
  2533 ;; Tracked objects:
  2534 ;;		On entry : 0/0
  2535 ;;		On exit  : 0/0
  2536 ;;		Unchanged: 0/0
  2537 ;; Data sizes:     COMRAM   BANK0   BANK1   BANK2   BANK3   BANK4   BANK5   BANK6   BANK7
  2538 ;;      Params:         6       0       0       0       0       0       0       0       0
  2539 ;;      Locals:         4       0       0       0       0       0       0       0       0
  2540 ;;      Temps:          2       0       0       0       0       0       0       0       0
  2541 ;;      Totals:        12       0       0       0       0       0       0       0       0
  2542 ;;Total ram usage:       12 bytes
  2543 ;; Hardware stack levels used:    1
  2544 ;; This function calls:
  2545 ;;		Nothing
  2546 ;; This function is called by:
  2547 ;;		_main
  2548 ;; This function uses a non-reentrant model
  2549 ;;
  2550                           
  2551                           	psect	text13
  2552  0017AA                     __ptext13:
  2553                           	opt callstack 0
  2554  0017AA                     _memset:
  2555                           	opt callstack 30
  2556  0017AA  C001  F00B         	movff	memset@dest,memset@s
  2557  0017AE  C002  F00C         	movff	memset@dest+1,memset@s+1
  2558  0017B2  5005               	movf	memset@n^0,w,c
  2559  0017B4  1006               	iorwf	(memset@n+1)^0,w,c
  2560  0017B6  A4D8               	btfss	status,2,c
  2561  0017B8  EFE0  F00B         	goto	u1961
  2562  0017BC  EFE2  F00B         	goto	u1960
  2563  0017C0                     u1961:
  2564  0017C0  EFE4  F00B         	goto	l2224
  2565  0017C4                     u1960:
  2566  0017C4  EF8F  F00C         	goto	l924
  2567  0017C8                     l2224:
  2568  0017C8  C00B  FFD9         	movff	memset@s,fsr2l
  2569  0017CC  C00C  FFDA         	movff	memset@s+1,fsr2h
  2570  0017D0  C003  FFDF         	movff	memset@c,indf2
  2571  0017D4  5005               	movf	memset@n^0,w,c
  2572  0017D6  240B               	addwf	memset@s^0,w,c
  2573  0017D8  6E07               	movwf	??_memset^0,c
  2574  0017DA  5006               	movf	(memset@n+1)^0,w,c
  2575  0017DC  200C               	addwfc	(memset@s+1)^0,w,c
  2576  0017DE  6E08               	movwf	(??_memset+1)^0,c
  2577  0017E0  0EFF               	movlw	255
  2578  0017E2  2407               	addwf	??_memset^0,w,c
  2579  0017E4  6ED9               	movwf	fsr2l,c
  2580  0017E6  0EFF               	movlw	255
  2581  0017E8  2008               	addwfc	(??_memset+1)^0,w,c
  2582  0017EA  6EDA               	movwf	fsr2h,c
  2583  0017EC  C003  FFDF         	movff	memset@c,indf2
  2584  0017F0  5006               	movf	(memset@n+1)^0,w,c
  2585  0017F2  E107               	bnz	u1971
  2586  0017F4  0E03               	movlw	3
  2587  0017F6  5C05               	subwf	memset@n^0,w,c
  2588  0017F8  B0D8               	btfsc	status,0,c
  2589  0017FA  EF01  F00C         	goto	u1971
  2590  0017FE  EF03  F00C         	goto	u1970
  2591  001802                     u1971:
  2592  001802  EF05  F00C         	goto	l2230
  2593  001806                     u1970:
  2594  001806  EF8F  F00C         	goto	l924
  2595  00180A                     l2230:
  2596  00180A  EE20 F001          	lfsr	2,1
  2597  00180E  500B               	movf	memset@s^0,w,c
  2598  001810  26D9               	addwf	fsr2l,f,c
  2599  001812  500C               	movf	(memset@s+1)^0,w,c
  2600  001814  22DA               	addwfc	fsr2h,f,c
  2601  001816  C003  FFDF         	movff	memset@c,indf2
  2602  00181A  EE20 F002          	lfsr	2,2
  2603  00181E  500B               	movf	memset@s^0,w,c
  2604  001820  26D9               	addwf	fsr2l,f,c
  2605  001822  500C               	movf	(memset@s+1)^0,w,c
  2606  001824  22DA               	addwfc	fsr2h,f,c
  2607  001826  C003  FFDF         	movff	memset@c,indf2
  2608  00182A  5005               	movf	memset@n^0,w,c
  2609  00182C  240B               	addwf	memset@s^0,w,c
  2610  00182E  6E07               	movwf	??_memset^0,c
  2611  001830  5006               	movf	(memset@n+1)^0,w,c
  2612  001832  200C               	addwfc	(memset@s+1)^0,w,c
  2613  001834  6E08               	movwf	(??_memset+1)^0,c
  2614  001836  0EFE               	movlw	254
  2615  001838  2407               	addwf	??_memset^0,w,c
  2616  00183A  6ED9               	movwf	fsr2l,c
  2617  00183C  0EFF               	movlw	255
  2618  00183E  2008               	addwfc	(??_memset+1)^0,w,c
  2619  001840  6EDA               	movwf	fsr2h,c
  2620  001842  C003  FFDF         	movff	memset@c,indf2
  2621  001846  5005               	movf	memset@n^0,w,c
  2622  001848  240B               	addwf	memset@s^0,w,c
  2623  00184A  6E07               	movwf	??_memset^0,c
  2624  00184C  5006               	movf	(memset@n+1)^0,w,c
  2625  00184E  200C               	addwfc	(memset@s+1)^0,w,c
  2626  001850  6E08               	movwf	(??_memset+1)^0,c
  2627  001852  0EFD               	movlw	253
  2628  001854  2407               	addwf	??_memset^0,w,c
  2629  001856  6ED9               	movwf	fsr2l,c
  2630  001858  0EFF               	movlw	255
  2631  00185A  2008               	addwfc	(??_memset+1)^0,w,c
  2632  00185C  6EDA               	movwf	fsr2h,c
  2633  00185E  C003  FFDF         	movff	memset@c,indf2
  2634  001862  5006               	movf	(memset@n+1)^0,w,c
  2635  001864  E107               	bnz	u1981
  2636  001866  0E07               	movlw	7
  2637  001868  5C05               	subwf	memset@n^0,w,c
  2638  00186A  B0D8               	btfsc	status,0,c
  2639  00186C  EF3A  F00C         	goto	u1981
  2640  001870  EF3C  F00C         	goto	u1980
  2641  001874                     u1981:
  2642  001874  EF3E  F00C         	goto	l2236
  2643  001878                     u1980:
  2644  001878  EF8F  F00C         	goto	l924
  2645  00187C                     l2236:
  2646  00187C  EE20 F003          	lfsr	2,3
  2647  001880  500B               	movf	memset@s^0,w,c
  2648  001882  26D9               	addwf	fsr2l,f,c
  2649  001884  500C               	movf	(memset@s+1)^0,w,c
  2650  001886  22DA               	addwfc	fsr2h,f,c
  2651  001888  C003  FFDF         	movff	memset@c,indf2
  2652  00188C  5005               	movf	memset@n^0,w,c
  2653  00188E  240B               	addwf	memset@s^0,w,c
  2654  001890  6E07               	movwf	??_memset^0,c
  2655  001892  5006               	movf	(memset@n+1)^0,w,c
  2656  001894  200C               	addwfc	(memset@s+1)^0,w,c
  2657  001896  6E08               	movwf	(??_memset+1)^0,c
  2658  001898  0EFC               	movlw	252
  2659  00189A  2407               	addwf	??_memset^0,w,c
  2660  00189C  6ED9               	movwf	fsr2l,c
  2661  00189E  0EFF               	movlw	255
  2662  0018A0  2008               	addwfc	(??_memset+1)^0,w,c
  2663  0018A2  6EDA               	movwf	fsr2h,c
  2664  0018A4  C003  FFDF         	movff	memset@c,indf2
  2665  0018A8  5006               	movf	(memset@n+1)^0,w,c
  2666  0018AA  E107               	bnz	u1991
  2667  0018AC  0E09               	movlw	9
  2668  0018AE  5C05               	subwf	memset@n^0,w,c
  2669  0018B0  B0D8               	btfsc	status,0,c
  2670  0018B2  EF5D  F00C         	goto	u1991
  2671  0018B6  EF5F  F00C         	goto	u1990
  2672  0018BA                     u1991:
  2673  0018BA  EF61  F00C         	goto	l2242
  2674  0018BE                     u1990:
  2675  0018BE  EF8F  F00C         	goto	l924
  2676  0018C2                     l2242:
  2677  0018C2  C00B  F007         	movff	memset@s,??_memset
  2678  0018C6  C00C  F008         	movff	memset@s+1,??_memset+1
  2679  0018CA  1E07               	comf	??_memset^0,f,c
  2680  0018CC  1E08               	comf	(??_memset+1)^0,f,c
  2681  0018CE  4A07               	infsnz	??_memset^0,f,c
  2682  0018D0  2A08               	incf	(??_memset+1)^0,f,c
  2683  0018D2  0E03               	movlw	3
  2684  0018D4  1407               	andwf	??_memset^0,w,c
  2685  0018D6  6E09               	movwf	memset@k^0,c
  2686  0018D8  6A0A               	clrf	(memset@k+1)^0,c
  2687  0018DA  5009               	movf	memset@k^0,w,c
  2688  0018DC  260B               	addwf	memset@s^0,f,c
  2689  0018DE  500A               	movf	(memset@k+1)^0,w,c
  2690  0018E0  220C               	addwfc	(memset@s+1)^0,f,c
  2691  0018E2  5009               	movf	memset@k^0,w,c
  2692  0018E4  5E05               	subwf	memset@n^0,f,c
  2693  0018E6  500A               	movf	(memset@k+1)^0,w,c
  2694  0018E8  5A06               	subwfb	(memset@n+1)^0,f,c
  2695  0018EA  0EFC               	movlw	252
  2696  0018EC  1605               	andwf	memset@n^0,f,c
  2697  0018EE  0EFF               	movlw	255
  2698  0018F0  1606               	andwf	(memset@n+1)^0,f,c
  2699  0018F2  EF86  F00C         	goto	l2250
  2700  0018F6                     l2244:
  2701  0018F6  C00B  FFD9         	movff	memset@s,fsr2l
  2702  0018FA  C00C  FFDA         	movff	memset@s+1,fsr2h
  2703  0018FE  C003  FFDF         	movff	memset@c,indf2
  2704  001902  0605               	decf	memset@n^0,f,c
  2705  001904  A0D8               	btfss	status,0,c
  2706  001906  0606               	decf	(memset@n+1)^0,f,c
  2707  001908  4A0B               	infsnz	memset@s^0,f,c
  2708  00190A  2A0C               	incf	(memset@s+1)^0,f,c
  2709  00190C                     l2250:
  2710  00190C  5005               	movf	memset@n^0,w,c
  2711  00190E  1006               	iorwf	(memset@n+1)^0,w,c
  2712  001910  A4D8               	btfss	status,2,c
  2713  001912  EF8D  F00C         	goto	u2001
  2714  001916  EF8F  F00C         	goto	u2000
  2715  00191A                     u2001:
  2716  00191A  EF7B  F00C         	goto	l2244
  2717  00191E                     u2000:
  2718  00191E                     l924:
  2719  00191E  0012               	return		;funcret
  2720  001920                     __end_of_memset:
  2721                           	opt callstack 0
  2722                           
  2723 ;; *************** function ___xxtofl *****************
  2724 ;; Defined at:
  2725 ;;		line 10 in file "C:\Program Files (x86)\Microchip\xc8\v2.10\pic\sources\c99\common\xxtofl.c"
  2726 ;; Parameters:    Size  Location     Type
  2727 ;;  sign            1    wreg     unsigned char 
  2728 ;;  val             4    8[COMRAM] long 
  2729 ;; Auto vars:     Size  Location     Type
  2730 ;;  sign            1   16[COMRAM] unsigned char 
  2731 ;;  arg             4   18[COMRAM] unsigned long 
  2732 ;;  exp             1   17[COMRAM] unsigned char 
  2733 ;; Return value:  Size  Location     Type
  2734 ;;                  4    8[COMRAM] unsigned char 
  2735 ;; Registers used:
  2736 ;;		wreg, status,2, status,0
  2737 ;; Tracked objects:
  2738 ;;		On entry : 0/0
  2739 ;;		On exit  : 0/0
  2740 ;;		Unchanged: 0/0
  2741 ;; Data sizes:     COMRAM   BANK0   BANK1   BANK2   BANK3   BANK4   BANK5   BANK6   BANK7
  2742 ;;      Params:         4       0       0       0       0       0       0       0       0
  2743 ;;      Locals:         6       0       0       0       0       0       0       0       0
  2744 ;;      Temps:          4       0       0       0       0       0       0       0       0
  2745 ;;      Totals:        14       0       0       0       0       0       0       0       0
  2746 ;;Total ram usage:       14 bytes
  2747 ;; Hardware stack levels used:    1
  2748 ;; This function calls:
  2749 ;;		Nothing
  2750 ;; This function is called by:
  2751 ;;		_main
  2752 ;; This function uses a non-reentrant model
  2753 ;;
  2754                           
  2755                           	psect	text14
  2756  00146E                     __ptext14:
  2757                           	opt callstack 0
  2758  00146E                     ___xxtofl:
  2759                           	opt callstack 30
  2760                           
  2761                           ;incstack = 0
  2762                           ;___xxtofl@sign stored from wreg
  2763  00146E  6E11               	movwf	___xxtofl@sign^0,c
  2764  001470  5011               	movf	___xxtofl@sign^0,w,c
  2765  001472  B4D8               	btfsc	status,2,c
  2766  001474  EF3E  F00A         	goto	u2501
  2767  001478  EF40  F00A         	goto	u2500
  2768  00147C                     u2501:
  2769  00147C  EF62  F00A         	goto	l897
  2770  001480                     u2500:
  2771  001480  BE0C               	btfsc	(___xxtofl@val+3)^0,7,c
  2772  001482  EF47  F00A         	goto	u2510
  2773  001486  EF45  F00A         	goto	u2511
  2774  00148A                     u2511:
  2775  00148A  EF62  F00A         	goto	l897
  2776  00148E                     u2510:
  2777  00148E  C009  F00D         	movff	___xxtofl@val,??___xxtofl
  2778  001492  C00A  F00E         	movff	___xxtofl@val+1,??___xxtofl+1
  2779  001496  C00B  F00F         	movff	___xxtofl@val+2,??___xxtofl+2
  2780  00149A  C00C  F010         	movff	___xxtofl@val+3,??___xxtofl+3
  2781  00149E  1E0D               	comf	??___xxtofl^0,f,c
  2782  0014A0  1E0E               	comf	(??___xxtofl+1)^0,f,c
  2783  0014A2  1E0F               	comf	(??___xxtofl+2)^0,f,c
  2784  0014A4  1E10               	comf	(??___xxtofl+3)^0,f,c
  2785  0014A6  2A0D               	incf	??___xxtofl^0,f,c
  2786  0014A8  0E00               	movlw	0
  2787  0014AA  220E               	addwfc	(??___xxtofl+1)^0,f,c
  2788  0014AC  220F               	addwfc	(??___xxtofl+2)^0,f,c
  2789  0014AE  2210               	addwfc	(??___xxtofl+3)^0,f,c
  2790  0014B0  C00D  F013         	movff	??___xxtofl,___xxtofl@arg
  2791  0014B4  C00E  F014         	movff	??___xxtofl+1,___xxtofl@arg+1
  2792  0014B8  C00F  F015         	movff	??___xxtofl+2,___xxtofl@arg+2
  2793  0014BC  C010  F016         	movff	??___xxtofl+3,___xxtofl@arg+3
  2794  0014C0  EF6A  F00A         	goto	l2570
  2795  0014C4                     l897:
  2796  0014C4  C009  F013         	movff	___xxtofl@val,___xxtofl@arg
  2797  0014C8  C00A  F014         	movff	___xxtofl@val+1,___xxtofl@arg+1
  2798  0014CC  C00B  F015         	movff	___xxtofl@val+2,___xxtofl@arg+2
  2799  0014D0  C00C  F016         	movff	___xxtofl@val+3,___xxtofl@arg+3
  2800  0014D4                     l2570:
  2801  0014D4  5009               	movf	___xxtofl@val^0,w,c
  2802  0014D6  100A               	iorwf	(___xxtofl@val+1)^0,w,c
  2803  0014D8  100B               	iorwf	(___xxtofl@val+2)^0,w,c
  2804  0014DA  100C               	iorwf	(___xxtofl@val+3)^0,w,c
  2805  0014DC  A4D8               	btfss	status,2,c
  2806  0014DE  EF73  F00A         	goto	u2521
  2807  0014E2  EF75  F00A         	goto	u2520
  2808  0014E6                     u2521:
  2809  0014E6  EF7F  F00A         	goto	l2576
  2810  0014EA                     u2520:
  2811  0014EA  0E00               	movlw	0
  2812  0014EC  6E09               	movwf	?___xxtofl^0,c
  2813  0014EE  0E00               	movlw	0
  2814  0014F0  6E0A               	movwf	(?___xxtofl+1)^0,c
  2815  0014F2  0E00               	movlw	0
  2816  0014F4  6E0B               	movwf	(?___xxtofl+2)^0,c
  2817  0014F6  0E00               	movlw	0
  2818  0014F8  6E0C               	movwf	(?___xxtofl+3)^0,c
  2819  0014FA  EF10  F00B         	goto	l900
  2820  0014FE                     l2576:
  2821  0014FE  0E96               	movlw	150
  2822  001500  6E12               	movwf	___xxtofl@exp^0,c
  2823  001502  EF89  F00A         	goto	l2580
  2824  001506                     l2578:
  2825  001506  2A12               	incf	___xxtofl@exp^0,f,c
  2826  001508  90D8               	bcf	status,0,c
  2827  00150A  3216               	rrcf	(___xxtofl@arg+3)^0,f,c
  2828  00150C  3215               	rrcf	(___xxtofl@arg+2)^0,f,c
  2829  00150E  3214               	rrcf	(___xxtofl@arg+1)^0,f,c
  2830  001510  3213               	rrcf	___xxtofl@arg^0,f,c
  2831  001512                     l2580:
  2832  001512  0E00               	movlw	0
  2833  001514  1413               	andwf	___xxtofl@arg^0,w,c
  2834  001516  6E0D               	movwf	??___xxtofl^0,c
  2835  001518  0E00               	movlw	0
  2836  00151A  1414               	andwf	(___xxtofl@arg+1)^0,w,c
  2837  00151C  6E0E               	movwf	(??___xxtofl+1)^0,c
  2838  00151E  0E00               	movlw	0
  2839  001520  1415               	andwf	(___xxtofl@arg+2)^0,w,c
  2840  001522  6E0F               	movwf	(??___xxtofl+2)^0,c
  2841  001524  0EFE               	movlw	254
  2842  001526  1416               	andwf	(___xxtofl@arg+3)^0,w,c
  2843  001528  6E10               	movwf	(??___xxtofl+3)^0,c
  2844  00152A  500D               	movf	??___xxtofl^0,w,c
  2845  00152C  100E               	iorwf	(??___xxtofl+1)^0,w,c
  2846  00152E  100F               	iorwf	(??___xxtofl+2)^0,w,c
  2847  001530  1010               	iorwf	(??___xxtofl+3)^0,w,c
  2848  001532  A4D8               	btfss	status,2,c
  2849  001534  EF9E  F00A         	goto	u2531
  2850  001538  EFA0  F00A         	goto	u2530
  2851  00153C                     u2531:
  2852  00153C  EF83  F00A         	goto	l2578
  2853  001540                     u2530:
  2854  001540  EFAE  F00A         	goto	l904
  2855  001544                     l2582:
  2856  001544  2A12               	incf	___xxtofl@exp^0,f,c
  2857  001546  0E01               	movlw	1
  2858  001548  2613               	addwf	___xxtofl@arg^0,f,c
  2859  00154A  0E00               	movlw	0
  2860  00154C  2214               	addwfc	(___xxtofl@arg+1)^0,f,c
  2861  00154E  2215               	addwfc	(___xxtofl@arg+2)^0,f,c
  2862  001550  2216               	addwfc	(___xxtofl@arg+3)^0,f,c
  2863  001552  90D8               	bcf	status,0,c
  2864  001554  3216               	rrcf	(___xxtofl@arg+3)^0,f,c
  2865  001556  3215               	rrcf	(___xxtofl@arg+2)^0,f,c
  2866  001558  3214               	rrcf	(___xxtofl@arg+1)^0,f,c
  2867  00155A  3213               	rrcf	___xxtofl@arg^0,f,c
  2868  00155C                     l904:
  2869  00155C  0E00               	movlw	0
  2870  00155E  1413               	andwf	___xxtofl@arg^0,w,c
  2871  001560  6E0D               	movwf	??___xxtofl^0,c
  2872  001562  0E00               	movlw	0
  2873  001564  1414               	andwf	(___xxtofl@arg+1)^0,w,c
  2874  001566  6E0E               	movwf	(??___xxtofl+1)^0,c
  2875  001568  0E00               	movlw	0
  2876  00156A  1415               	andwf	(___xxtofl@arg+2)^0,w,c
  2877  00156C  6E0F               	movwf	(??___xxtofl+2)^0,c
  2878  00156E  0EFF               	movlw	255
  2879  001570  1416               	andwf	(___xxtofl@arg+3)^0,w,c
  2880  001572  6E10               	movwf	(??___xxtofl+3)^0,c
  2881  001574  500D               	movf	??___xxtofl^0,w,c
  2882  001576  100E               	iorwf	(??___xxtofl+1)^0,w,c
  2883  001578  100F               	iorwf	(??___xxtofl+2)^0,w,c
  2884  00157A  1010               	iorwf	(??___xxtofl+3)^0,w,c
  2885  00157C  A4D8               	btfss	status,2,c
  2886  00157E  EFC3  F00A         	goto	u2541
  2887  001582  EFC5  F00A         	goto	u2540
  2888  001586                     u2541:
  2889  001586  EFA2  F00A         	goto	l2582
  2890  00158A                     u2540:
  2891  00158A  EFCD  F00A         	goto	l2590
  2892  00158E                     l2588:
  2893  00158E  0612               	decf	___xxtofl@exp^0,f,c
  2894  001590  90D8               	bcf	status,0,c
  2895  001592  3613               	rlcf	___xxtofl@arg^0,f,c
  2896  001594  3614               	rlcf	(___xxtofl@arg+1)^0,f,c
  2897  001596  3615               	rlcf	(___xxtofl@arg+2)^0,f,c
  2898  001598  3616               	rlcf	(___xxtofl@arg+3)^0,f,c
  2899  00159A                     l2590:
  2900  00159A  BE15               	btfsc	(___xxtofl@arg+2)^0,7,c
  2901  00159C  EFD2  F00A         	goto	u2551
  2902  0015A0  EFD4  F00A         	goto	u2550
  2903  0015A4                     u2551:
  2904  0015A4  EFDC  F00A         	goto	l911
  2905  0015A8                     u2550:
  2906  0015A8  0E02               	movlw	2
  2907  0015AA  6012               	cpfslt	___xxtofl@exp^0,c
  2908  0015AC  EFDA  F00A         	goto	u2561
  2909  0015B0  EFDC  F00A         	goto	u2560
  2910  0015B4                     u2561:
  2911  0015B4  EFC7  F00A         	goto	l2588
  2912  0015B8                     u2560:
  2913  0015B8                     l911:
  2914  0015B8  B012               	btfsc	___xxtofl@exp^0,0,c
  2915  0015BA  EFE1  F00A         	goto	u2571
  2916  0015BE  EFE3  F00A         	goto	u2570
  2917  0015C2                     u2571:
  2918  0015C2  EFE4  F00A         	goto	l2596
  2919  0015C6                     u2570:
  2920  0015C6  9E15               	bcf	(___xxtofl@arg+2)^0,7,c
  2921  0015C8                     l2596:
  2922  0015C8  90D8               	bcf	status,0,c
  2923  0015CA  3212               	rrcf	___xxtofl@exp^0,f,c
  2924  0015CC  C012  F00D         	movff	___xxtofl@exp,??___xxtofl
  2925  0015D0  6A0E               	clrf	(??___xxtofl+1)^0,c
  2926  0015D2  6A0F               	clrf	(??___xxtofl+2)^0,c
  2927  0015D4  6A10               	clrf	(??___xxtofl+3)^0,c
  2928  0015D6  C00D  F010         	movff	??___xxtofl,??___xxtofl+3
  2929  0015DA  6A0F               	clrf	(??___xxtofl+2)^0,c
  2930  0015DC  6A0E               	clrf	(??___xxtofl+1)^0,c
  2931  0015DE  6A0D               	clrf	??___xxtofl^0,c
  2932  0015E0  500D               	movf	??___xxtofl^0,w,c
  2933  0015E2  1213               	iorwf	___xxtofl@arg^0,f,c
  2934  0015E4  500E               	movf	(??___xxtofl+1)^0,w,c
  2935  0015E6  1214               	iorwf	(___xxtofl@arg+1)^0,f,c
  2936  0015E8  500F               	movf	(??___xxtofl+2)^0,w,c
  2937  0015EA  1215               	iorwf	(___xxtofl@arg+2)^0,f,c
  2938  0015EC  5010               	movf	(??___xxtofl+3)^0,w,c
  2939  0015EE  1216               	iorwf	(___xxtofl@arg+3)^0,f,c
  2940  0015F0  5011               	movf	___xxtofl@sign^0,w,c
  2941  0015F2  B4D8               	btfsc	status,2,c
  2942  0015F4  EFFE  F00A         	goto	u2581
  2943  0015F8  EF00  F00B         	goto	u2580
  2944  0015FC                     u2581:
  2945  0015FC  EF08  F00B         	goto	l2606
  2946  001600                     u2580:
  2947  001600  BE0C               	btfsc	(___xxtofl@val+3)^0,7,c
  2948  001602  EF07  F00B         	goto	u2590
  2949  001606  EF05  F00B         	goto	u2591
  2950  00160A                     u2591:
  2951  00160A  EF08  F00B         	goto	l2606
  2952  00160E                     u2590:
  2953  00160E  8E16               	bsf	(___xxtofl@arg+3)^0,7,c
  2954  001610                     l2606:
  2955  001610  C013  F009         	movff	___xxtofl@arg,?___xxtofl
  2956  001614  C014  F00A         	movff	___xxtofl@arg+1,?___xxtofl+1
  2957  001618  C015  F00B         	movff	___xxtofl@arg+2,?___xxtofl+2
  2958  00161C  C016  F00C         	movff	___xxtofl@arg+3,?___xxtofl+3
  2959  001620                     l900:
  2960  001620  0012               	return		;funcret
  2961  001622                     __end_of___xxtofl:
  2962                           	opt callstack 0
  2963                           
  2964 ;; *************** function ___fltol *****************
  2965 ;; Defined at:
  2966 ;;		line 43 in file "C:\Program Files (x86)\Microchip\xc8\v2.10\pic\sources\c99\common\fltol.c"
  2967 ;; Parameters:    Size  Location     Type
  2968 ;;  f1              4    0[COMRAM] unsigned char 
  2969 ;; Auto vars:     Size  Location     Type
  2970 ;;  exp1            1    9[COMRAM] unsigned char 
  2971 ;;  sign1           1    8[COMRAM] unsigned char 
  2972 ;; Return value:  Size  Location     Type
  2973 ;;                  4    0[COMRAM] long 
  2974 ;; Registers used:
  2975 ;;		wreg, status,2, status,0
  2976 ;; Tracked objects:
  2977 ;;		On entry : 0/0
  2978 ;;		On exit  : 0/0
  2979 ;;		Unchanged: 0/0
  2980 ;; Data sizes:     COMRAM   BANK0   BANK1   BANK2   BANK3   BANK4   BANK5   BANK6   BANK7
  2981 ;;      Params:         4       0       0       0       0       0       0       0       0
  2982 ;;      Locals:         2       0       0       0       0       0       0       0       0
  2983 ;;      Temps:          4       0       0       0       0       0       0       0       0
  2984 ;;      Totals:        10       0       0       0       0       0       0       0       0
  2985 ;;Total ram usage:       10 bytes
  2986 ;; Hardware stack levels used:    1
  2987 ;; This function calls:
  2988 ;;		Nothing
  2989 ;; This function is called by:
  2990 ;;		_main
  2991 ;; This function uses a non-reentrant model
  2992 ;;
  2993                           
  2994                           	psect	text15
  2995  001BA0                     __ptext15:
  2996                           	opt callstack 0
  2997  001BA0                     ___fltol:
  2998                           	opt callstack 30
  2999  001BA0  3403               	rlcf	(___fltol@f1+2)^0,w,c
  3000  001BA2  3404               	rlcf	(___fltol@f1+3)^0,w,c
  3001  001BA4  6E0A               	movwf	___fltol@exp1^0,c
  3002  001BA6  500A               	movf	___fltol@exp1^0,w,c
  3003  001BA8  A4D8               	btfss	status,2,c
  3004  001BAA  EFD9  F00D         	goto	u2431
  3005  001BAE  EFDB  F00D         	goto	u2430
  3006  001BB2                     u2431:
  3007  001BB2  EFE5  F00D         	goto	l2526
  3008  001BB6                     u2430:
  3009  001BB6                     l2522:
  3010  001BB6  0E00               	movlw	0
  3011  001BB8  6E01               	movwf	?___fltol^0,c
  3012  001BBA  0E00               	movlw	0
  3013  001BBC  6E02               	movwf	(?___fltol+1)^0,c
  3014  001BBE  0E00               	movlw	0
  3015  001BC0  6E03               	movwf	(?___fltol+2)^0,c
  3016  001BC2  0E00               	movlw	0
  3017  001BC4  6E04               	movwf	(?___fltol+3)^0,c
  3018  001BC6  EF52  F00E         	goto	l539
  3019  001BCA                     l2526:
  3020  001BCA  C001  F005         	movff	___fltol@f1,??___fltol
  3021  001BCE  C002  F006         	movff	___fltol@f1+1,??___fltol+1
  3022  001BD2  C003  F007         	movff	___fltol@f1+2,??___fltol+2
  3023  001BD6  C004  F008         	movff	___fltol@f1+3,??___fltol+3
  3024  001BDA  0E20               	movlw	32
  3025  001BDC  EFF5  F00D         	goto	u2440
  3026  001BE0                     u2445:
  3027  001BE0  90D8               	bcf	status,0,c
  3028  001BE2  3208               	rrcf	(??___fltol+3)^0,f,c
  3029  001BE4  3207               	rrcf	(??___fltol+2)^0,f,c
  3030  001BE6  3206               	rrcf	(??___fltol+1)^0,f,c
  3031  001BE8  3205               	rrcf	??___fltol^0,f,c
  3032  001BEA                     u2440:
  3033  001BEA  2EE8               	decfsz	wreg,f,c
  3034  001BEC  EFF0  F00D         	goto	u2445
  3035  001BF0  5005               	movf	??___fltol^0,w,c
  3036  001BF2  6E09               	movwf	___fltol@sign1^0,c
  3037  001BF4  8E03               	bsf	(___fltol@f1+2)^0,7,c
  3038  001BF6  0EFF               	movlw	255
  3039  001BF8  1601               	andwf	___fltol@f1^0,f,c
  3040  001BFA  0EFF               	movlw	255
  3041  001BFC  1602               	andwf	(___fltol@f1+1)^0,f,c
  3042  001BFE  0EFF               	movlw	255
  3043  001C00  1603               	andwf	(___fltol@f1+2)^0,f,c
  3044  001C02  0E00               	movlw	0
  3045  001C04  1604               	andwf	(___fltol@f1+3)^0,f,c
  3046  001C06  0E96               	movlw	150
  3047  001C08  5E0A               	subwf	___fltol@exp1^0,f,c
  3048  001C0A  BE0A               	btfsc	___fltol@exp1^0,7,c
  3049  001C0C  EF0C  F00E         	goto	u2450
  3050  001C10  EF0A  F00E         	goto	u2451
  3051  001C14                     u2451:
  3052  001C14  EF22  F00E         	goto	l2546
  3053  001C18                     u2450:
  3054  001C18  500A               	movf	___fltol@exp1^0,w,c
  3055  001C1A  0A80               	xorlw	128
  3056  001C1C  0F97               	addlw	151
  3057  001C1E  B0D8               	btfsc	status,0,c
  3058  001C20  EF14  F00E         	goto	u2461
  3059  001C24  EF16  F00E         	goto	u2460
  3060  001C28                     u2461:
  3061  001C28  EF18  F00E         	goto	l2542
  3062  001C2C                     u2460:
  3063  001C2C  EFDB  F00D         	goto	l2522
  3064  001C30                     l2542:
  3065  001C30  90D8               	bcf	status,0,c
  3066  001C32  3204               	rrcf	(___fltol@f1+3)^0,f,c
  3067  001C34  3203               	rrcf	(___fltol@f1+2)^0,f,c
  3068  001C36  3202               	rrcf	(___fltol@f1+1)^0,f,c
  3069  001C38  3201               	rrcf	___fltol@f1^0,f,c
  3070  001C3A  3E0A               	incfsz	___fltol@exp1^0,f,c
  3071  001C3C  EF18  F00E         	goto	l2542
  3072  001C40  EF3A  F00E         	goto	l2556
  3073  001C44                     l2546:
  3074  001C44  0E1F               	movlw	31
  3075  001C46  640A               	cpfsgt	___fltol@exp1^0,c
  3076  001C48  EF28  F00E         	goto	u2471
  3077  001C4C  EF2A  F00E         	goto	u2470
  3078  001C50                     u2471:
  3079  001C50  EF32  F00E         	goto	l2554
  3080  001C54                     u2470:
  3081  001C54  EFDB  F00D         	goto	l2522
  3082  001C58                     l2552:
  3083  001C58  90D8               	bcf	status,0,c
  3084  001C5A  3601               	rlcf	___fltol@f1^0,f,c
  3085  001C5C  3602               	rlcf	(___fltol@f1+1)^0,f,c
  3086  001C5E  3603               	rlcf	(___fltol@f1+2)^0,f,c
  3087  001C60  3604               	rlcf	(___fltol@f1+3)^0,f,c
  3088  001C62  060A               	decf	___fltol@exp1^0,f,c
  3089  001C64                     l2554:
  3090  001C64  500A               	movf	___fltol@exp1^0,w,c
  3091  001C66  A4D8               	btfss	status,2,c
  3092  001C68  EF38  F00E         	goto	u2481
  3093  001C6C  EF3A  F00E         	goto	u2480
  3094  001C70                     u2481:
  3095  001C70  EF2C  F00E         	goto	l2552
  3096  001C74                     u2480:
  3097  001C74                     l2556:
  3098  001C74  5009               	movf	___fltol@sign1^0,w,c
  3099  001C76  B4D8               	btfsc	status,2,c
  3100  001C78  EF40  F00E         	goto	u2491
  3101  001C7C  EF42  F00E         	goto	u2490
  3102  001C80                     u2491:
  3103  001C80  EF4A  F00E         	goto	l2560
  3104  001C84                     u2490:
  3105  001C84  1E04               	comf	(___fltol@f1+3)^0,f,c
  3106  001C86  1E03               	comf	(___fltol@f1+2)^0,f,c
  3107  001C88  1E02               	comf	(___fltol@f1+1)^0,f,c
  3108  001C8A  6C01               	negf	___fltol@f1^0,c
  3109  001C8C  0E00               	movlw	0
  3110  001C8E  2202               	addwfc	(___fltol@f1+1)^0,f,c
  3111  001C90  2203               	addwfc	(___fltol@f1+2)^0,f,c
  3112  001C92  2204               	addwfc	(___fltol@f1+3)^0,f,c
  3113  001C94                     l2560:
  3114  001C94  C001  F001         	movff	___fltol@f1,?___fltol
  3115  001C98  C002  F002         	movff	___fltol@f1+1,?___fltol+1
  3116  001C9C  C003  F003         	movff	___fltol@f1+2,?___fltol+2
  3117  001CA0  C004  F004         	movff	___fltol@f1+3,?___fltol+3
  3118  001CA4                     l539:
  3119  001CA4  0012               	return		;funcret
  3120  001CA6                     __end_of___fltol:
  3121                           	opt callstack 0
  3122                           
  3123 ;; *************** function ___flmul *****************
  3124 ;; Defined at:
  3125 ;;		line 8 in file "C:\Program Files (x86)\Microchip\xc8\v2.10\pic\sources\c99\common\sprcmul.c"
  3126 ;; Parameters:    Size  Location     Type
  3127 ;;  b               4   22[COMRAM] long 
  3128 ;;  a               4   26[COMRAM] long 
  3129 ;; Auto vars:     Size  Location     Type
  3130 ;;  prod            4   41[COMRAM] struct .
  3131 ;;  grs             4   35[COMRAM] unsigned long 
  3132 ;;  temp            2   45[COMRAM] struct .
  3133 ;;  bexp            1   40[COMRAM] unsigned char 
  3134 ;;  aexp            1   39[COMRAM] unsigned char 
  3135 ;;  sign            1   34[COMRAM] unsigned char 
  3136 ;; Return value:  Size  Location     Type
  3137 ;;                  4   22[COMRAM] unsigned char 
  3138 ;; Registers used:
  3139 ;;		wreg, status,2, status,0, prodl, prodh
  3140 ;; Tracked objects:
  3141 ;;		On entry : 0/0
  3142 ;;		On exit  : 0/0
  3143 ;;		Unchanged: 0/0
  3144 ;; Data sizes:     COMRAM   BANK0   BANK1   BANK2   BANK3   BANK4   BANK5   BANK6   BANK7
  3145 ;;      Params:         8       0       0       0       0       0       0       0       0
  3146 ;;      Locals:        13       0       0       0       0       0       0       0       0
  3147 ;;      Temps:          4       0       0       0       0       0       0       0       0
  3148 ;;      Totals:        25       0       0       0       0       0       0       0       0
  3149 ;;Total ram usage:       25 bytes
  3150 ;; Hardware stack levels used:    1
  3151 ;; This function calls:
  3152 ;;		Nothing
  3153 ;; This function is called by:
  3154 ;;		_main
  3155 ;; This function uses a non-reentrant model
  3156 ;;
  3157                           
  3158                           	psect	text16
  3159  000814                     __ptext16:
  3160                           	opt callstack 0
  3161  000814                     ___flmul:
  3162                           	opt callstack 30
  3163  000814  501A               	movf	(___flmul@b+3)^0,w,c
  3164  000816  0B80               	andlw	128
  3165  000818  6E23               	movwf	___flmul@sign^0,c
  3166  00081A  501A               	movf	(___flmul@b+3)^0,w,c
  3167  00081C  241A               	addwf	(___flmul@b+3)^0,w,c
  3168  00081E  6E29               	movwf	___flmul@bexp^0,c
  3169  000820  AE19               	btfss	(___flmul@b+2)^0,7,c
  3170  000822  EF15  F004         	goto	u2241
  3171  000826  EF17  F004         	goto	u2240
  3172  00082A                     u2241:
  3173  00082A  EF18  F004         	goto	l2396
  3174  00082E                     u2240:
  3175  00082E  8029               	bsf	___flmul@bexp^0,0,c
  3176  000830                     l2396:
  3177  000830  5029               	movf	___flmul@bexp^0,w,c
  3178  000832  B4D8               	btfsc	status,2,c
  3179  000834  EF1E  F004         	goto	u2251
  3180  000838  EF20  F004         	goto	u2250
  3181  00083C                     u2251:
  3182  00083C  EF33  F004         	goto	l2404
  3183  000840                     u2250:
  3184  000840  2829               	incf	___flmul@bexp^0,w,c
  3185  000842  A4D8               	btfss	status,2,c
  3186  000844  EF26  F004         	goto	u2261
  3187  000848  EF28  F004         	goto	u2260
  3188  00084C                     u2261:
  3189  00084C  EF30  F004         	goto	l2402
  3190  000850                     u2260:
  3191  000850  0E00               	movlw	0
  3192  000852  6E17               	movwf	___flmul@b^0,c
  3193  000854  0E00               	movlw	0
  3194  000856  6E18               	movwf	(___flmul@b+1)^0,c
  3195  000858  0E00               	movlw	0
  3196  00085A  6E19               	movwf	(___flmul@b+2)^0,c
  3197  00085C  0E00               	movlw	0
  3198  00085E  6E1A               	movwf	(___flmul@b+3)^0,c
  3199  000860                     l2402:
  3200  000860  8E19               	bsf	(___flmul@b+2)^0,7,c
  3201  000862  EF3B  F004         	goto	l2406
  3202  000866                     l2404:
  3203  000866  0E00               	movlw	0
  3204  000868  6E17               	movwf	___flmul@b^0,c
  3205  00086A  0E00               	movlw	0
  3206  00086C  6E18               	movwf	(___flmul@b+1)^0,c
  3207  00086E  0E00               	movlw	0
  3208  000870  6E19               	movwf	(___flmul@b+2)^0,c
  3209  000872  0E00               	movlw	0
  3210  000874  6E1A               	movwf	(___flmul@b+3)^0,c
  3211  000876                     l2406:
  3212  000876  501E               	movf	(___flmul@a+3)^0,w,c
  3213  000878  0B80               	andlw	128
  3214  00087A  1A23               	xorwf	___flmul@sign^0,f,c
  3215  00087C  501E               	movf	(___flmul@a+3)^0,w,c
  3216  00087E  241E               	addwf	(___flmul@a+3)^0,w,c
  3217  000880  6E28               	movwf	___flmul@aexp^0,c
  3218  000882  AE1D               	btfss	(___flmul@a+2)^0,7,c
  3219  000884  EF46  F004         	goto	u2271
  3220  000888  EF48  F004         	goto	u2270
  3221  00088C                     u2271:
  3222  00088C  EF49  F004         	goto	l2414
  3223  000890                     u2270:
  3224  000890  8028               	bsf	___flmul@aexp^0,0,c
  3225  000892                     l2414:
  3226  000892  5028               	movf	___flmul@aexp^0,w,c
  3227  000894  B4D8               	btfsc	status,2,c
  3228  000896  EF4F  F004         	goto	u2281
  3229  00089A  EF51  F004         	goto	u2280
  3230  00089E                     u2281:
  3231  00089E  EF64  F004         	goto	l2422
  3232  0008A2                     u2280:
  3233  0008A2  2828               	incf	___flmul@aexp^0,w,c
  3234  0008A4  A4D8               	btfss	status,2,c
  3235  0008A6  EF57  F004         	goto	u2291
  3236  0008AA  EF59  F004         	goto	u2290
  3237  0008AE                     u2291:
  3238  0008AE  EF61  F004         	goto	l2420
  3239  0008B2                     u2290:
  3240  0008B2  0E00               	movlw	0
  3241  0008B4  6E1B               	movwf	___flmul@a^0,c
  3242  0008B6  0E00               	movlw	0
  3243  0008B8  6E1C               	movwf	(___flmul@a+1)^0,c
  3244  0008BA  0E00               	movlw	0
  3245  0008BC  6E1D               	movwf	(___flmul@a+2)^0,c
  3246  0008BE  0E00               	movlw	0
  3247  0008C0  6E1E               	movwf	(___flmul@a+3)^0,c
  3248  0008C2                     l2420:
  3249  0008C2  8E1D               	bsf	(___flmul@a+2)^0,7,c
  3250  0008C4  EF6C  F004         	goto	l856
  3251  0008C8                     l2422:
  3252  0008C8  0E00               	movlw	0
  3253  0008CA  6E1B               	movwf	___flmul@a^0,c
  3254  0008CC  0E00               	movlw	0
  3255  0008CE  6E1C               	movwf	(___flmul@a+1)^0,c
  3256  0008D0  0E00               	movlw	0
  3257  0008D2  6E1D               	movwf	(___flmul@a+2)^0,c
  3258  0008D4  0E00               	movlw	0
  3259  0008D6  6E1E               	movwf	(___flmul@a+3)^0,c
  3260  0008D8                     l856:
  3261  0008D8  5028               	movf	___flmul@aexp^0,w,c
  3262  0008DA  B4D8               	btfsc	status,2,c
  3263  0008DC  EF72  F004         	goto	u2301
  3264  0008E0  EF74  F004         	goto	u2300
  3265  0008E4                     u2301:
  3266  0008E4  EF7C  F004         	goto	l2426
  3267  0008E8                     u2300:
  3268  0008E8  5029               	movf	___flmul@bexp^0,w,c
  3269  0008EA  A4D8               	btfss	status,2,c
  3270  0008EC  EF7A  F004         	goto	u2311
  3271  0008F0  EF7C  F004         	goto	u2310
  3272  0008F4                     u2311:
  3273  0008F4  EF86  F004         	goto	l2430
  3274  0008F8                     u2310:
  3275  0008F8                     l2426:
  3276  0008F8  0E00               	movlw	0
  3277  0008FA  6E17               	movwf	?___flmul^0,c
  3278  0008FC  0E00               	movlw	0
  3279  0008FE  6E18               	movwf	(?___flmul+1)^0,c
  3280  000900  0E00               	movlw	0
  3281  000902  6E19               	movwf	(?___flmul+2)^0,c
  3282  000904  0E00               	movlw	0
  3283  000906  6E1A               	movwf	(?___flmul+3)^0,c
  3284  000908  EF1E  F006         	goto	l860
  3285  00090C                     l2430:
  3286  00090C  501D               	movf	(___flmul@a+2)^0,w,c
  3287  00090E  0217               	mulwf	___flmul@b^0,c
  3288  000910  CFF3 F02E          	movff	prodl,___flmul@temp
  3289  000914  CFF4 F02F          	movff	prodh,___flmul@temp+1
  3290  000918  502E               	movf	___flmul@temp^0,w,c
  3291  00091A  6E24               	movwf	___flmul@grs^0,c
  3292  00091C  6A25               	clrf	(___flmul@grs+1)^0,c
  3293  00091E  6A26               	clrf	(___flmul@grs+2)^0,c
  3294  000920  6A27               	clrf	(___flmul@grs+3)^0,c
  3295  000922  502F               	movf	(___flmul@temp+1)^0,w,c
  3296  000924  6E2A               	movwf	___flmul@prod^0,c
  3297  000926  6A2B               	clrf	(___flmul@prod+1)^0,c
  3298  000928  6A2C               	clrf	(___flmul@prod+2)^0,c
  3299  00092A  6A2D               	clrf	(___flmul@prod+3)^0,c
  3300  00092C  501C               	movf	(___flmul@a+1)^0,w,c
  3301  00092E  0218               	mulwf	(___flmul@b+1)^0,c
  3302  000930  CFF3 F02E          	movff	prodl,___flmul@temp
  3303  000934  CFF4 F02F          	movff	prodh,___flmul@temp+1
  3304  000938  502E               	movf	___flmul@temp^0,w,c
  3305  00093A  2624               	addwf	___flmul@grs^0,f,c
  3306  00093C  0E00               	movlw	0
  3307  00093E  2225               	addwfc	(___flmul@grs+1)^0,f,c
  3308  000940  2226               	addwfc	(___flmul@grs+2)^0,f,c
  3309  000942  2227               	addwfc	(___flmul@grs+3)^0,f,c
  3310  000944  502F               	movf	(___flmul@temp+1)^0,w,c
  3311  000946  262A               	addwf	___flmul@prod^0,f,c
  3312  000948  0E00               	movlw	0
  3313  00094A  222B               	addwfc	(___flmul@prod+1)^0,f,c
  3314  00094C  222C               	addwfc	(___flmul@prod+2)^0,f,c
  3315  00094E  222D               	addwfc	(___flmul@prod+3)^0,f,c
  3316  000950  501B               	movf	___flmul@a^0,w,c
  3317  000952  0219               	mulwf	(___flmul@b+2)^0,c
  3318  000954  CFF3 F02E          	movff	prodl,___flmul@temp
  3319  000958  CFF4 F02F          	movff	prodh,___flmul@temp+1
  3320  00095C  502E               	movf	___flmul@temp^0,w,c
  3321  00095E  2624               	addwf	___flmul@grs^0,f,c
  3322  000960  0E00               	movlw	0
  3323  000962  2225               	addwfc	(___flmul@grs+1)^0,f,c
  3324  000964  2226               	addwfc	(___flmul@grs+2)^0,f,c
  3325  000966  2227               	addwfc	(___flmul@grs+3)^0,f,c
  3326  000968  502F               	movf	(___flmul@temp+1)^0,w,c
  3327  00096A  262A               	addwf	___flmul@prod^0,f,c
  3328  00096C  0E00               	movlw	0
  3329  00096E  222B               	addwfc	(___flmul@prod+1)^0,f,c
  3330  000970  222C               	addwfc	(___flmul@prod+2)^0,f,c
  3331  000972  222D               	addwfc	(___flmul@prod+3)^0,f,c
  3332  000974  C026  F027         	movff	___flmul@grs+2,___flmul@grs+3
  3333  000978  C025  F026         	movff	___flmul@grs+1,___flmul@grs+2
  3334  00097C  C024  F025         	movff	___flmul@grs,___flmul@grs+1
  3335  000980  6A24               	clrf	___flmul@grs^0,c
  3336  000982  501B               	movf	___flmul@a^0,w,c
  3337  000984  0218               	mulwf	(___flmul@b+1)^0,c
  3338  000986  CFF3 F02E          	movff	prodl,___flmul@temp
  3339  00098A  CFF4 F02F          	movff	prodh,___flmul@temp+1
  3340  00098E  502E               	movf	___flmul@temp^0,w,c
  3341  000990  2624               	addwf	___flmul@grs^0,f,c
  3342  000992  502F               	movf	(___flmul@temp+1)^0,w,c
  3343  000994  2225               	addwfc	(___flmul@grs+1)^0,f,c
  3344  000996  0E00               	movlw	0
  3345  000998  2226               	addwfc	(___flmul@grs+2)^0,f,c
  3346  00099A  0E00               	movlw	0
  3347  00099C  2227               	addwfc	(___flmul@grs+3)^0,f,c
  3348  00099E  501C               	movf	(___flmul@a+1)^0,w,c
  3349  0009A0  0217               	mulwf	___flmul@b^0,c
  3350  0009A2  CFF3 F02E          	movff	prodl,___flmul@temp
  3351  0009A6  CFF4 F02F          	movff	prodh,___flmul@temp+1
  3352  0009AA  502E               	movf	___flmul@temp^0,w,c
  3353  0009AC  2624               	addwf	___flmul@grs^0,f,c
  3354  0009AE  502F               	movf	(___flmul@temp+1)^0,w,c
  3355  0009B0  2225               	addwfc	(___flmul@grs+1)^0,f,c
  3356  0009B2  0E00               	movlw	0
  3357  0009B4  2226               	addwfc	(___flmul@grs+2)^0,f,c
  3358  0009B6  0E00               	movlw	0
  3359  0009B8  2227               	addwfc	(___flmul@grs+3)^0,f,c
  3360  0009BA  C026  F027         	movff	___flmul@grs+2,___flmul@grs+3
  3361  0009BE  C025  F026         	movff	___flmul@grs+1,___flmul@grs+2
  3362  0009C2  C024  F025         	movff	___flmul@grs,___flmul@grs+1
  3363  0009C6  6A24               	clrf	___flmul@grs^0,c
  3364  0009C8  501B               	movf	___flmul@a^0,w,c
  3365  0009CA  0217               	mulwf	___flmul@b^0,c
  3366  0009CC  CFF3 F02E          	movff	prodl,___flmul@temp
  3367  0009D0  CFF4 F02F          	movff	prodh,___flmul@temp+1
  3368  0009D4  502E               	movf	___flmul@temp^0,w,c
  3369  0009D6  2624               	addwf	___flmul@grs^0,f,c
  3370  0009D8  502F               	movf	(___flmul@temp+1)^0,w,c
  3371  0009DA  2225               	addwfc	(___flmul@grs+1)^0,f,c
  3372  0009DC  0E00               	movlw	0
  3373  0009DE  2226               	addwfc	(___flmul@grs+2)^0,f,c
  3374  0009E0  0E00               	movlw	0
  3375  0009E2  2227               	addwfc	(___flmul@grs+3)^0,f,c
  3376  0009E4  501D               	movf	(___flmul@a+2)^0,w,c
  3377  0009E6  0218               	mulwf	(___flmul@b+1)^0,c
  3378  0009E8  CFF3 F02E          	movff	prodl,___flmul@temp
  3379  0009EC  CFF4 F02F          	movff	prodh,___flmul@temp+1
  3380  0009F0  502E               	movf	___flmul@temp^0,w,c
  3381  0009F2  262A               	addwf	___flmul@prod^0,f,c
  3382  0009F4  502F               	movf	(___flmul@temp+1)^0,w,c
  3383  0009F6  222B               	addwfc	(___flmul@prod+1)^0,f,c
  3384  0009F8  0E00               	movlw	0
  3385  0009FA  222C               	addwfc	(___flmul@prod+2)^0,f,c
  3386  0009FC  0E00               	movlw	0
  3387  0009FE  222D               	addwfc	(___flmul@prod+3)^0,f,c
  3388  000A00  501C               	movf	(___flmul@a+1)^0,w,c
  3389  000A02  0219               	mulwf	(___flmul@b+2)^0,c
  3390  000A04  CFF3 F02E          	movff	prodl,___flmul@temp
  3391  000A08  CFF4 F02F          	movff	prodh,___flmul@temp+1
  3392  000A0C  502E               	movf	___flmul@temp^0,w,c
  3393  000A0E  262A               	addwf	___flmul@prod^0,f,c
  3394  000A10  502F               	movf	(___flmul@temp+1)^0,w,c
  3395  000A12  222B               	addwfc	(___flmul@prod+1)^0,f,c
  3396  000A14  0E00               	movlw	0
  3397  000A16  222C               	addwfc	(___flmul@prod+2)^0,f,c
  3398  000A18  0E00               	movlw	0
  3399  000A1A  222D               	addwfc	(___flmul@prod+3)^0,f,c
  3400  000A1C  501D               	movf	(___flmul@a+2)^0,w,c
  3401  000A1E  0219               	mulwf	(___flmul@b+2)^0,c
  3402  000A20  CFF3 F02E          	movff	prodl,___flmul@temp
  3403  000A24  CFF4 F02F          	movff	prodh,___flmul@temp+1
  3404  000A28  502E               	movf	___flmul@temp^0,w,c
  3405  000A2A  6E1F               	movwf	??___flmul^0,c
  3406  000A2C  502F               	movf	(___flmul@temp+1)^0,w,c
  3407  000A2E  6E20               	movwf	(??___flmul+1)^0,c
  3408  000A30  6A21               	clrf	(??___flmul+2)^0,c
  3409  000A32  6A22               	clrf	(??___flmul+3)^0,c
  3410  000A34  C021  F022         	movff	??___flmul+2,??___flmul+3
  3411  000A38  C020  F021         	movff	??___flmul+1,??___flmul+2
  3412  000A3C  C01F  F020         	movff	??___flmul,??___flmul+1
  3413  000A40  6A1F               	clrf	??___flmul^0,c
  3414  000A42  501F               	movf	??___flmul^0,w,c
  3415  000A44  262A               	addwf	___flmul@prod^0,f,c
  3416  000A46  5020               	movf	(??___flmul+1)^0,w,c
  3417  000A48  222B               	addwfc	(___flmul@prod+1)^0,f,c
  3418  000A4A  5021               	movf	(??___flmul+2)^0,w,c
  3419  000A4C  222C               	addwfc	(___flmul@prod+2)^0,f,c
  3420  000A4E  5022               	movf	(??___flmul+3)^0,w,c
  3421  000A50  222D               	addwfc	(___flmul@prod+3)^0,f,c
  3422  000A52  C024  F01F         	movff	___flmul@grs,??___flmul
  3423  000A56  C025  F020         	movff	___flmul@grs+1,??___flmul+1
  3424  000A5A  C026  F021         	movff	___flmul@grs+2,??___flmul+2
  3425  000A5E  C027  F022         	movff	___flmul@grs+3,??___flmul+3
  3426  000A62  0E19               	movlw	25
  3427  000A64  EF39  F005         	goto	u2320
  3428  000A68                     u2325:
  3429  000A68  90D8               	bcf	status,0,c
  3430  000A6A  3222               	rrcf	(??___flmul+3)^0,f,c
  3431  000A6C  3221               	rrcf	(??___flmul+2)^0,f,c
  3432  000A6E  3220               	rrcf	(??___flmul+1)^0,f,c
  3433  000A70  321F               	rrcf	??___flmul^0,f,c
  3434  000A72                     u2320:
  3435  000A72  2EE8               	decfsz	wreg,f,c
  3436  000A74  EF34  F005         	goto	u2325
  3437  000A78  501F               	movf	??___flmul^0,w,c
  3438  000A7A  262A               	addwf	___flmul@prod^0,f,c
  3439  000A7C  5020               	movf	(??___flmul+1)^0,w,c
  3440  000A7E  222B               	addwfc	(___flmul@prod+1)^0,f,c
  3441  000A80  5021               	movf	(??___flmul+2)^0,w,c
  3442  000A82  222C               	addwfc	(___flmul@prod+2)^0,f,c
  3443  000A84  5022               	movf	(??___flmul+3)^0,w,c
  3444  000A86  222D               	addwfc	(___flmul@prod+3)^0,f,c
  3445  000A88  C026  F027         	movff	___flmul@grs+2,___flmul@grs+3
  3446  000A8C  C025  F026         	movff	___flmul@grs+1,___flmul@grs+2
  3447  000A90  C024  F025         	movff	___flmul@grs,___flmul@grs+1
  3448  000A94  6A24               	clrf	___flmul@grs^0,c
  3449  000A96  5028               	movf	___flmul@aexp^0,w,c
  3450  000A98  C029  F01F         	movff	___flmul@bexp,??___flmul
  3451  000A9C  6A20               	clrf	(??___flmul+1)^0,c
  3452  000A9E  261F               	addwf	??___flmul^0,f,c
  3453  000AA0  0E00               	movlw	0
  3454  000AA2  2220               	addwfc	(??___flmul+1)^0,f,c
  3455  000AA4  0E82               	movlw	130
  3456  000AA6  241F               	addwf	??___flmul^0,w,c
  3457  000AA8  6E2E               	movwf	___flmul@temp^0,c
  3458  000AAA  0EFF               	movlw	255
  3459  000AAC  2020               	addwfc	(??___flmul+1)^0,w,c
  3460  000AAE  6E2F               	movwf	(___flmul@temp+1)^0,c
  3461  000AB0  EF6F  F005         	goto	l2478
  3462  000AB4                     l2472:
  3463  000AB4  90D8               	bcf	status,0,c
  3464  000AB6  362A               	rlcf	___flmul@prod^0,f,c
  3465  000AB8  362B               	rlcf	(___flmul@prod+1)^0,f,c
  3466  000ABA  362C               	rlcf	(___flmul@prod+2)^0,f,c
  3467  000ABC  362D               	rlcf	(___flmul@prod+3)^0,f,c
  3468  000ABE  AE27               	btfss	(___flmul@grs+3)^0,7,c
  3469  000AC0  EF64  F005         	goto	u2331
  3470  000AC4  EF66  F005         	goto	u2330
  3471  000AC8                     u2331:
  3472  000AC8  EF67  F005         	goto	l863
  3473  000ACC                     u2330:
  3474  000ACC  802A               	bsf	___flmul@prod^0,0,c
  3475  000ACE                     l863:
  3476  000ACE  90D8               	bcf	status,0,c
  3477  000AD0  3624               	rlcf	___flmul@grs^0,f,c
  3478  000AD2  3625               	rlcf	(___flmul@grs+1)^0,f,c
  3479  000AD4  3626               	rlcf	(___flmul@grs+2)^0,f,c
  3480  000AD6  3627               	rlcf	(___flmul@grs+3)^0,f,c
  3481  000AD8  062E               	decf	___flmul@temp^0,f,c
  3482  000ADA  A0D8               	btfss	status,0,c
  3483  000ADC  062F               	decf	(___flmul@temp+1)^0,f,c
  3484  000ADE                     l2478:
  3485  000ADE  AE2C               	btfss	(___flmul@prod+2)^0,7,c
  3486  000AE0  EF74  F005         	goto	u2341
  3487  000AE4  EF76  F005         	goto	u2340
  3488  000AE8                     u2341:
  3489  000AE8  EF5A  F005         	goto	l2472
  3490  000AEC                     u2340:
  3491  000AEC  0E00               	movlw	0
  3492  000AEE  6E28               	movwf	___flmul@aexp^0,c
  3493  000AF0  AE27               	btfss	(___flmul@grs+3)^0,7,c
  3494  000AF2  EF7D  F005         	goto	u2351
  3495  000AF6  EF7F  F005         	goto	u2350
  3496  000AFA                     u2351:
  3497  000AFA  EFA3  F005         	goto	l865
  3498  000AFE                     u2350:
  3499  000AFE  0EFF               	movlw	255
  3500  000B00  1424               	andwf	___flmul@grs^0,w,c
  3501  000B02  6E1F               	movwf	??___flmul^0,c
  3502  000B04  0EFF               	movlw	255
  3503  000B06  1425               	andwf	(___flmul@grs+1)^0,w,c
  3504  000B08  6E20               	movwf	(??___flmul+1)^0,c
  3505  000B0A  0EFF               	movlw	255
  3506  000B0C  1426               	andwf	(___flmul@grs+2)^0,w,c
  3507  000B0E  6E21               	movwf	(??___flmul+2)^0,c
  3508  000B10  0E7F               	movlw	127
  3509  000B12  1427               	andwf	(___flmul@grs+3)^0,w,c
  3510  000B14  6E22               	movwf	(??___flmul+3)^0,c
  3511  000B16  501F               	movf	??___flmul^0,w,c
  3512  000B18  1020               	iorwf	(??___flmul+1)^0,w,c
  3513  000B1A  1021               	iorwf	(??___flmul+2)^0,w,c
  3514  000B1C  1022               	iorwf	(??___flmul+3)^0,w,c
  3515  000B1E  B4D8               	btfsc	status,2,c
  3516  000B20  EF94  F005         	goto	u2361
  3517  000B24  EF96  F005         	goto	u2360
  3518  000B28                     u2361:
  3519  000B28  EF9A  F005         	goto	l866
  3520  000B2C                     u2360:
  3521  000B2C                     l2486:
  3522  000B2C  0E01               	movlw	1
  3523  000B2E  6E28               	movwf	___flmul@aexp^0,c
  3524  000B30  EFA3  F005         	goto	l865
  3525  000B34                     l866:
  3526  000B34  A02A               	btfss	___flmul@prod^0,0,c
  3527  000B36  EF9F  F005         	goto	u2371
  3528  000B3A  EFA1  F005         	goto	u2370
  3529  000B3E                     u2371:
  3530  000B3E  EFA3  F005         	goto	l865
  3531  000B42                     u2370:
  3532  000B42  EF96  F005         	goto	l2486
  3533  000B46                     l865:
  3534  000B46  5028               	movf	___flmul@aexp^0,w,c
  3535  000B48  B4D8               	btfsc	status,2,c
  3536  000B4A  EFA9  F005         	goto	u2381
  3537  000B4E  EFAB  F005         	goto	u2380
  3538  000B52                     u2381:
  3539  000B52  EFCF  F005         	goto	l2498
  3540  000B56                     u2380:
  3541  000B56  0E01               	movlw	1
  3542  000B58  262A               	addwf	___flmul@prod^0,f,c
  3543  000B5A  0E00               	movlw	0
  3544  000B5C  222B               	addwfc	(___flmul@prod+1)^0,f,c
  3545  000B5E  222C               	addwfc	(___flmul@prod+2)^0,f,c
  3546  000B60  222D               	addwfc	(___flmul@prod+3)^0,f,c
  3547  000B62  A02D               	btfss	(___flmul@prod+3)^0,0,c
  3548  000B64  EFB6  F005         	goto	u2391
  3549  000B68  EFB8  F005         	goto	u2390
  3550  000B6C                     u2391:
  3551  000B6C  EFCF  F005         	goto	l2498
  3552  000B70                     u2390:
  3553  000B70  C02A  F01F         	movff	___flmul@prod,??___flmul
  3554  000B74  C02B  F020         	movff	___flmul@prod+1,??___flmul+1
  3555  000B78  C02C  F021         	movff	___flmul@prod+2,??___flmul+2
  3556  000B7C  C02D  F022         	movff	___flmul@prod+3,??___flmul+3
  3557  000B80  3422               	rlcf	(??___flmul+3)^0,w,c
  3558  000B82  3222               	rrcf	(??___flmul+3)^0,f,c
  3559  000B84  3221               	rrcf	(??___flmul+2)^0,f,c
  3560  000B86  3220               	rrcf	(??___flmul+1)^0,f,c
  3561  000B88  321F               	rrcf	??___flmul^0,f,c
  3562  000B8A  C01F  F02A         	movff	??___flmul,___flmul@prod
  3563  000B8E  C020  F02B         	movff	??___flmul+1,___flmul@prod+1
  3564  000B92  C021  F02C         	movff	??___flmul+2,___flmul@prod+2
  3565  000B96  C022  F02D         	movff	??___flmul+3,___flmul@prod+3
  3566  000B9A  4A2E               	infsnz	___flmul@temp^0,f,c
  3567  000B9C  2A2F               	incf	(___flmul@temp+1)^0,f,c
  3568  000B9E                     l2498:
  3569  000B9E  BE2F               	btfsc	(___flmul@temp+1)^0,7,c
  3570  000BA0  EFDA  F005         	goto	u2401
  3571  000BA4  502F               	movf	(___flmul@temp+1)^0,w,c
  3572  000BA6  E108               	bnz	u2400
  3573  000BA8  282E               	incf	___flmul@temp^0,w,c
  3574  000BAA  A0D8               	btfss	status,0,c
  3575  000BAC  EFDA  F005         	goto	u2401
  3576  000BB0  EFDC  F005         	goto	u2400
  3577  000BB4                     u2401:
  3578  000BB4  EFE6  F005         	goto	l2502
  3579  000BB8                     u2400:
  3580  000BB8  0E00               	movlw	0
  3581  000BBA  6E2A               	movwf	___flmul@prod^0,c
  3582  000BBC  0E00               	movlw	0
  3583  000BBE  6E2B               	movwf	(___flmul@prod+1)^0,c
  3584  000BC0  0E80               	movlw	128
  3585  000BC2  6E2C               	movwf	(___flmul@prod+2)^0,c
  3586  000BC4  0E7F               	movlw	127
  3587  000BC6  6E2D               	movwf	(___flmul@prod+3)^0,c
  3588  000BC8  EF14  F006         	goto	l2514
  3589  000BCC                     l2502:
  3590  000BCC  BE2F               	btfsc	(___flmul@temp+1)^0,7,c
  3591  000BCE  EFF3  F005         	goto	u2410
  3592  000BD2  502F               	movf	(___flmul@temp+1)^0,w,c
  3593  000BD4  E106               	bnz	u2411
  3594  000BD6  042E               	decf	___flmul@temp^0,w,c
  3595  000BD8  B0D8               	btfsc	status,0,c
  3596  000BDA  EFF1  F005         	goto	u2411
  3597  000BDE  EFF3  F005         	goto	u2410
  3598  000BE2                     u2411:
  3599  000BE2  EFFF  F005         	goto	l873
  3600  000BE6                     u2410:
  3601  000BE6  0E00               	movlw	0
  3602  000BE8  6E2A               	movwf	___flmul@prod^0,c
  3603  000BEA  0E00               	movlw	0
  3604  000BEC  6E2B               	movwf	(___flmul@prod+1)^0,c
  3605  000BEE  0E00               	movlw	0
  3606  000BF0  6E2C               	movwf	(___flmul@prod+2)^0,c
  3607  000BF2  0E00               	movlw	0
  3608  000BF4  6E2D               	movwf	(___flmul@prod+3)^0,c
  3609  000BF6  0E00               	movlw	0
  3610  000BF8  6E23               	movwf	___flmul@sign^0,c
  3611  000BFA  EF14  F006         	goto	l2514
  3612  000BFE                     l873:
  3613  000BFE  C02E  F029         	movff	___flmul@temp,___flmul@bexp
  3614  000C02  0EFF               	movlw	255
  3615  000C04  162A               	andwf	___flmul@prod^0,f,c
  3616  000C06  0EFF               	movlw	255
  3617  000C08  162B               	andwf	(___flmul@prod+1)^0,f,c
  3618  000C0A  0E7F               	movlw	127
  3619  000C0C  162C               	andwf	(___flmul@prod+2)^0,f,c
  3620  000C0E  0E00               	movlw	0
  3621  000C10  162D               	andwf	(___flmul@prod+3)^0,f,c
  3622  000C12  A029               	btfss	___flmul@bexp^0,0,c
  3623  000C14  EF0E  F006         	goto	u2421
  3624  000C18  EF10  F006         	goto	u2420
  3625  000C1C                     u2421:
  3626  000C1C  EF11  F006         	goto	l2512
  3627  000C20                     u2420:
  3628  000C20  8E2C               	bsf	(___flmul@prod+2)^0,7,c
  3629  000C22                     l2512:
  3630  000C22  90D8               	bcf	status,0,c
  3631  000C24  3029               	rrcf	___flmul@bexp^0,w,c
  3632  000C26  6E2D               	movwf	(___flmul@prod+3)^0,c
  3633  000C28                     l2514:
  3634  000C28  5023               	movf	___flmul@sign^0,w,c
  3635  000C2A  122D               	iorwf	(___flmul@prod+3)^0,f,c
  3636  000C2C  C02A  F017         	movff	___flmul@prod,?___flmul
  3637  000C30  C02B  F018         	movff	___flmul@prod+1,?___flmul+1
  3638  000C34  C02C  F019         	movff	___flmul@prod+2,?___flmul+2
  3639  000C38  C02D  F01A         	movff	___flmul@prod+3,?___flmul+3
  3640  000C3C                     l860:
  3641  000C3C  0012               	return		;funcret
  3642  000C3E                     __end_of___flmul:
  3643                           	opt callstack 0
  3644                           
  3645 ;; *************** function ___fldiv *****************
  3646 ;; Defined at:
  3647 ;;		line 11 in file "C:\Program Files (x86)\Microchip\xc8\v2.10\pic\sources\c99\common\sprcdiv.c"
  3648 ;; Parameters:    Size  Location     Type
  3649 ;;  b               4    0[COMRAM] unsigned char 
  3650 ;;  a               4    4[COMRAM] unsigned char 
  3651 ;; Auto vars:     Size  Location     Type
  3652 ;;  grs             4   19[COMRAM] unsigned long 
  3653 ;;  rem             4   12[COMRAM] unsigned long 
  3654 ;;  new_exp         2   17[COMRAM] short 
  3655 ;;  aexp            1   24[COMRAM] unsigned char 
  3656 ;;  bexp            1   23[COMRAM] unsigned char 
  3657 ;;  sign            1   16[COMRAM] unsigned char 
  3658 ;; Return value:  Size  Location     Type
  3659 ;;                  4    0[COMRAM] unsigned char 
  3660 ;; Registers used:
  3661 ;;		wreg, status,2, status,0
  3662 ;; Tracked objects:
  3663 ;;		On entry : 0/0
  3664 ;;		On exit  : 0/0
  3665 ;;		Unchanged: 0/0
  3666 ;; Data sizes:     COMRAM   BANK0   BANK1   BANK2   BANK3   BANK4   BANK5   BANK6   BANK7
  3667 ;;      Params:         8       0       0       0       0       0       0       0       0
  3668 ;;      Locals:        13       0       0       0       0       0       0       0       0
  3669 ;;      Temps:          4       0       0       0       0       0       0       0       0
  3670 ;;      Totals:        25       0       0       0       0       0       0       0       0
  3671 ;;Total ram usage:       25 bytes
  3672 ;; Hardware stack levels used:    1
  3673 ;; This function calls:
  3674 ;;		Nothing
  3675 ;; This function is called by:
  3676 ;;		_main
  3677 ;; This function uses a non-reentrant model
  3678 ;;
  3679                           
  3680                           	psect	text17
  3681  000C3E                     __ptext17:
  3682                           	opt callstack 0
  3683  000C3E                     ___fldiv:
  3684                           	opt callstack 30
  3685  000C3E  5004               	movf	(___fldiv@b+3)^0,w,c
  3686  000C40  0B80               	andlw	128
  3687  000C42  6E11               	movwf	___fldiv@sign^0,c
  3688  000C44  5004               	movf	(___fldiv@b+3)^0,w,c
  3689  000C46  2404               	addwf	(___fldiv@b+3)^0,w,c
  3690  000C48  6E18               	movwf	___fldiv@bexp^0,c
  3691  000C4A  AE03               	btfss	(___fldiv@b+2)^0,7,c
  3692  000C4C  EF2A  F006         	goto	u2011
  3693  000C50  EF2C  F006         	goto	u2010
  3694  000C54                     u2011:
  3695  000C54  EF2D  F006         	goto	l2258
  3696  000C58                     u2010:
  3697  000C58  8018               	bsf	___fldiv@bexp^0,0,c
  3698  000C5A                     l2258:
  3699  000C5A  5018               	movf	___fldiv@bexp^0,w,c
  3700  000C5C  B4D8               	btfsc	status,2,c
  3701  000C5E  EF33  F006         	goto	u2021
  3702  000C62  EF35  F006         	goto	u2020
  3703  000C66                     u2021:
  3704  000C66  EF4A  F006         	goto	l2268
  3705  000C6A                     u2020:
  3706  000C6A  2818               	incf	___fldiv@bexp^0,w,c
  3707  000C6C  A4D8               	btfss	status,2,c
  3708  000C6E  EF3B  F006         	goto	u2031
  3709  000C72  EF3D  F006         	goto	u2030
  3710  000C76                     u2031:
  3711  000C76  EF45  F006         	goto	l2264
  3712  000C7A                     u2030:
  3713  000C7A  0E00               	movlw	0
  3714  000C7C  6E01               	movwf	___fldiv@b^0,c
  3715  000C7E  0E00               	movlw	0
  3716  000C80  6E02               	movwf	(___fldiv@b+1)^0,c
  3717  000C82  0E00               	movlw	0
  3718  000C84  6E03               	movwf	(___fldiv@b+2)^0,c
  3719  000C86  0E00               	movlw	0
  3720  000C88  6E04               	movwf	(___fldiv@b+3)^0,c
  3721  000C8A                     l2264:
  3722  000C8A  8E03               	bsf	(___fldiv@b+2)^0,7,c
  3723  000C8C  0E00               	movlw	0
  3724  000C8E  6E04               	movwf	(___fldiv@b+3)^0,c
  3725  000C90  EF52  F006         	goto	l2270
  3726  000C94                     l2268:
  3727  000C94  0E00               	movlw	0
  3728  000C96  6E01               	movwf	___fldiv@b^0,c
  3729  000C98  0E00               	movlw	0
  3730  000C9A  6E02               	movwf	(___fldiv@b+1)^0,c
  3731  000C9C  0E00               	movlw	0
  3732  000C9E  6E03               	movwf	(___fldiv@b+2)^0,c
  3733  000CA0  0E00               	movlw	0
  3734  000CA2  6E04               	movwf	(___fldiv@b+3)^0,c
  3735  000CA4                     l2270:
  3736  000CA4  5008               	movf	(___fldiv@a+3)^0,w,c
  3737  000CA6  0B80               	andlw	128
  3738  000CA8  1A11               	xorwf	___fldiv@sign^0,f,c
  3739  000CAA  5008               	movf	(___fldiv@a+3)^0,w,c
  3740  000CAC  2408               	addwf	(___fldiv@a+3)^0,w,c
  3741  000CAE  6E19               	movwf	___fldiv@aexp^0,c
  3742  000CB0  AE07               	btfss	(___fldiv@a+2)^0,7,c
  3743  000CB2  EF5D  F006         	goto	u2041
  3744  000CB6  EF5F  F006         	goto	u2040
  3745  000CBA                     u2041:
  3746  000CBA  EF60  F006         	goto	l2278
  3747  000CBE                     u2040:
  3748  000CBE  8019               	bsf	___fldiv@aexp^0,0,c
  3749  000CC0                     l2278:
  3750  000CC0  5019               	movf	___fldiv@aexp^0,w,c
  3751  000CC2  B4D8               	btfsc	status,2,c
  3752  000CC4  EF66  F006         	goto	u2051
  3753  000CC8  EF68  F006         	goto	u2050
  3754  000CCC                     u2051:
  3755  000CCC  EF7D  F006         	goto	l2288
  3756  000CD0                     u2050:
  3757  000CD0  2819               	incf	___fldiv@aexp^0,w,c
  3758  000CD2  A4D8               	btfss	status,2,c
  3759  000CD4  EF6E  F006         	goto	u2061
  3760  000CD8  EF70  F006         	goto	u2060
  3761  000CDC                     u2061:
  3762  000CDC  EF78  F006         	goto	l2284
  3763  000CE0                     u2060:
  3764  000CE0  0E00               	movlw	0
  3765  000CE2  6E05               	movwf	___fldiv@a^0,c
  3766  000CE4  0E00               	movlw	0
  3767  000CE6  6E06               	movwf	(___fldiv@a+1)^0,c
  3768  000CE8  0E00               	movlw	0
  3769  000CEA  6E07               	movwf	(___fldiv@a+2)^0,c
  3770  000CEC  0E00               	movlw	0
  3771  000CEE  6E08               	movwf	(___fldiv@a+3)^0,c
  3772  000CF0                     l2284:
  3773  000CF0  8E07               	bsf	(___fldiv@a+2)^0,7,c
  3774  000CF2  0E00               	movlw	0
  3775  000CF4  6E08               	movwf	(___fldiv@a+3)^0,c
  3776  000CF6  EF85  F006         	goto	l2290
  3777  000CFA                     l2288:
  3778  000CFA  0E00               	movlw	0
  3779  000CFC  6E05               	movwf	___fldiv@a^0,c
  3780  000CFE  0E00               	movlw	0
  3781  000D00  6E06               	movwf	(___fldiv@a+1)^0,c
  3782  000D02  0E00               	movlw	0
  3783  000D04  6E07               	movwf	(___fldiv@a+2)^0,c
  3784  000D06  0E00               	movlw	0
  3785  000D08  6E08               	movwf	(___fldiv@a+3)^0,c
  3786  000D0A                     l2290:
  3787  000D0A  5005               	movf	___fldiv@a^0,w,c
  3788  000D0C  1006               	iorwf	(___fldiv@a+1)^0,w,c
  3789  000D0E  1007               	iorwf	(___fldiv@a+2)^0,w,c
  3790  000D10  1008               	iorwf	(___fldiv@a+3)^0,w,c
  3791  000D12  A4D8               	btfss	status,2,c
  3792  000D14  EF8E  F006         	goto	u2071
  3793  000D18  EF90  F006         	goto	u2070
  3794  000D1C                     u2071:
  3795  000D1C  EFA8  F006         	goto	l2302
  3796  000D20                     u2070:
  3797  000D20  0E00               	movlw	0
  3798  000D22  6E01               	movwf	___fldiv@b^0,c
  3799  000D24  0E00               	movlw	0
  3800  000D26  6E02               	movwf	(___fldiv@b+1)^0,c
  3801  000D28  0E00               	movlw	0
  3802  000D2A  6E03               	movwf	(___fldiv@b+2)^0,c
  3803  000D2C  0E00               	movlw	0
  3804  000D2E  6E04               	movwf	(___fldiv@b+3)^0,c
  3805  000D30  0E80               	movlw	128
  3806  000D32  1203               	iorwf	(___fldiv@b+2)^0,f,c
  3807  000D34  0E7F               	movlw	127
  3808  000D36  1204               	iorwf	(___fldiv@b+3)^0,f,c
  3809  000D38                     l2296:
  3810  000D38  5011               	movf	___fldiv@sign^0,w,c
  3811  000D3A  1204               	iorwf	(___fldiv@b+3)^0,f,c
  3812  000D3C  C001  F001         	movff	___fldiv@b,?___fldiv
  3813  000D40  C002  F002         	movff	___fldiv@b+1,?___fldiv+1
  3814  000D44  C003  F003         	movff	___fldiv@b+2,?___fldiv+2
  3815  000D48  C004  F004         	movff	___fldiv@b+3,?___fldiv+3
  3816  000D4C  EFEB  F007         	goto	l824
  3817  000D50                     l2302:
  3818  000D50  5018               	movf	___fldiv@bexp^0,w,c
  3819  000D52  A4D8               	btfss	status,2,c
  3820  000D54  EFAE  F006         	goto	u2081
  3821  000D58  EFB0  F006         	goto	u2080
  3822  000D5C                     u2081:
  3823  000D5C  EFBA  F006         	goto	l2310
  3824  000D60                     u2080:
  3825  000D60  0E00               	movlw	0
  3826  000D62  6E01               	movwf	?___fldiv^0,c
  3827  000D64  0E00               	movlw	0
  3828  000D66  6E02               	movwf	(?___fldiv+1)^0,c
  3829  000D68  0E00               	movlw	0
  3830  000D6A  6E03               	movwf	(?___fldiv+2)^0,c
  3831  000D6C  0E00               	movlw	0
  3832  000D6E  6E04               	movwf	(?___fldiv+3)^0,c
  3833  000D70  EFEB  F007         	goto	l824
  3834  000D74                     l2310:
  3835  000D74  5019               	movf	___fldiv@aexp^0,w,c
  3836  000D76  C018  F009         	movff	___fldiv@bexp,??___fldiv
  3837  000D7A  6A0A               	clrf	(??___fldiv+1)^0,c
  3838  000D7C  5E09               	subwf	??___fldiv^0,f,c
  3839  000D7E  0E00               	movlw	0
  3840  000D80  5A0A               	subwfb	(??___fldiv+1)^0,f,c
  3841  000D82  0E7F               	movlw	127
  3842  000D84  2409               	addwf	??___fldiv^0,w,c
  3843  000D86  6E12               	movwf	___fldiv@new_exp^0,c
  3844  000D88  0E00               	movlw	0
  3845  000D8A  200A               	addwfc	(??___fldiv+1)^0,w,c
  3846  000D8C  6E13               	movwf	(___fldiv@new_exp+1)^0,c
  3847  000D8E  C001  F00D         	movff	___fldiv@b,___fldiv@rem
  3848  000D92  C002  F00E         	movff	___fldiv@b+1,___fldiv@rem+1
  3849  000D96  C003  F00F         	movff	___fldiv@b+2,___fldiv@rem+2
  3850  000D9A  C004  F010         	movff	___fldiv@b+3,___fldiv@rem+3
  3851  000D9E  0E00               	movlw	0
  3852  000DA0  6E01               	movwf	___fldiv@b^0,c
  3853  000DA2  0E00               	movlw	0
  3854  000DA4  6E02               	movwf	(___fldiv@b+1)^0,c
  3855  000DA6  0E00               	movlw	0
  3856  000DA8  6E03               	movwf	(___fldiv@b+2)^0,c
  3857  000DAA  0E00               	movlw	0
  3858  000DAC  6E04               	movwf	(___fldiv@b+3)^0,c
  3859  000DAE  0E00               	movlw	0
  3860  000DB0  6E14               	movwf	___fldiv@grs^0,c
  3861  000DB2  0E00               	movlw	0
  3862  000DB4  6E15               	movwf	(___fldiv@grs+1)^0,c
  3863  000DB6  0E00               	movlw	0
  3864  000DB8  6E16               	movwf	(___fldiv@grs+2)^0,c
  3865  000DBA  0E00               	movlw	0
  3866  000DBC  6E17               	movwf	(___fldiv@grs+3)^0,c
  3867  000DBE  0E00               	movlw	0
  3868  000DC0  6E19               	movwf	___fldiv@aexp^0,c
  3869  000DC2  EF1B  F007         	goto	l826
  3870  000DC6                     l2320:
  3871  000DC6  5019               	movf	___fldiv@aexp^0,w,c
  3872  000DC8  B4D8               	btfsc	status,2,c
  3873  000DCA  EFE9  F006         	goto	u2091
  3874  000DCE  EFEB  F006         	goto	u2090
  3875  000DD2                     u2091:
  3876  000DD2  EF02  F007         	goto	l2328
  3877  000DD6                     u2090:
  3878  000DD6  90D8               	bcf	status,0,c
  3879  000DD8  360D               	rlcf	___fldiv@rem^0,f,c
  3880  000DDA  360E               	rlcf	(___fldiv@rem+1)^0,f,c
  3881  000DDC  360F               	rlcf	(___fldiv@rem+2)^0,f,c
  3882  000DDE  3610               	rlcf	(___fldiv@rem+3)^0,f,c
  3883  000DE0  90D8               	bcf	status,0,c
  3884  000DE2  3601               	rlcf	___fldiv@b^0,f,c
  3885  000DE4  3602               	rlcf	(___fldiv@b+1)^0,f,c
  3886  000DE6  3603               	rlcf	(___fldiv@b+2)^0,f,c
  3887  000DE8  3604               	rlcf	(___fldiv@b+3)^0,f,c
  3888  000DEA  AE17               	btfss	(___fldiv@grs+3)^0,7,c
  3889  000DEC  EFFA  F006         	goto	u2101
  3890  000DF0  EFFC  F006         	goto	u2100
  3891  000DF4                     u2101:
  3892  000DF4  EFFD  F006         	goto	l829
  3893  000DF8                     u2100:
  3894  000DF8  8001               	bsf	___fldiv@b^0,0,c
  3895  000DFA                     l829:
  3896  000DFA  90D8               	bcf	status,0,c
  3897  000DFC  3614               	rlcf	___fldiv@grs^0,f,c
  3898  000DFE  3615               	rlcf	(___fldiv@grs+1)^0,f,c
  3899  000E00  3616               	rlcf	(___fldiv@grs+2)^0,f,c
  3900  000E02  3617               	rlcf	(___fldiv@grs+3)^0,f,c
  3901  000E04                     l2328:
  3902  000E04  5005               	movf	___fldiv@a^0,w,c
  3903  000E06  5C0D               	subwf	___fldiv@rem^0,w,c
  3904  000E08  5006               	movf	(___fldiv@a+1)^0,w,c
  3905  000E0A  580E               	subwfb	(___fldiv@rem+1)^0,w,c
  3906  000E0C  5007               	movf	(___fldiv@a+2)^0,w,c
  3907  000E0E  580F               	subwfb	(___fldiv@rem+2)^0,w,c
  3908  000E10  5008               	movf	(___fldiv@a+3)^0,w,c
  3909  000E12  5810               	subwfb	(___fldiv@rem+3)^0,w,c
  3910  000E14  A0D8               	btfss	status,0,c
  3911  000E16  EF0F  F007         	goto	u2111
  3912  000E1A  EF11  F007         	goto	u2110
  3913  000E1E                     u2111:
  3914  000E1E  EF1A  F007         	goto	l2334
  3915  000E22                     u2110:
  3916  000E22  8C17               	bsf	(___fldiv@grs+3)^0,6,c
  3917  000E24  5005               	movf	___fldiv@a^0,w,c
  3918  000E26  5E0D               	subwf	___fldiv@rem^0,f,c
  3919  000E28  5006               	movf	(___fldiv@a+1)^0,w,c
  3920  000E2A  5A0E               	subwfb	(___fldiv@rem+1)^0,f,c
  3921  000E2C  5007               	movf	(___fldiv@a+2)^0,w,c
  3922  000E2E  5A0F               	subwfb	(___fldiv@rem+2)^0,f,c
  3923  000E30  5008               	movf	(___fldiv@a+3)^0,w,c
  3924  000E32  5A10               	subwfb	(___fldiv@rem+3)^0,f,c
  3925  000E34                     l2334:
  3926  000E34  2A19               	incf	___fldiv@aexp^0,f,c
  3927  000E36                     l826:
  3928  000E36  0E19               	movlw	25
  3929  000E38  6419               	cpfsgt	___fldiv@aexp^0,c
  3930  000E3A  EF21  F007         	goto	u2121
  3931  000E3E  EF23  F007         	goto	u2120
  3932  000E42                     u2121:
  3933  000E42  EFE3  F006         	goto	l2320
  3934  000E46                     u2120:
  3935  000E46  500D               	movf	___fldiv@rem^0,w,c
  3936  000E48  100E               	iorwf	(___fldiv@rem+1)^0,w,c
  3937  000E4A  100F               	iorwf	(___fldiv@rem+2)^0,w,c
  3938  000E4C  1010               	iorwf	(___fldiv@rem+3)^0,w,c
  3939  000E4E  B4D8               	btfsc	status,2,c
  3940  000E50  EF2C  F007         	goto	u2131
  3941  000E54  EF2E  F007         	goto	u2130
  3942  000E58                     u2131:
  3943  000E58  EF46  F007         	goto	l2346
  3944  000E5C                     u2130:
  3945  000E5C  8014               	bsf	___fldiv@grs^0,0,c
  3946  000E5E  EF46  F007         	goto	l2346
  3947  000E62                     l2340:
  3948  000E62  90D8               	bcf	status,0,c
  3949  000E64  3601               	rlcf	___fldiv@b^0,f,c
  3950  000E66  3602               	rlcf	(___fldiv@b+1)^0,f,c
  3951  000E68  3603               	rlcf	(___fldiv@b+2)^0,f,c
  3952  000E6A  3604               	rlcf	(___fldiv@b+3)^0,f,c
  3953  000E6C  AE17               	btfss	(___fldiv@grs+3)^0,7,c
  3954  000E6E  EF3B  F007         	goto	u2141
  3955  000E72  EF3D  F007         	goto	u2140
  3956  000E76                     u2141:
  3957  000E76  EF3E  F007         	goto	l835
  3958  000E7A                     u2140:
  3959  000E7A  8001               	bsf	___fldiv@b^0,0,c
  3960  000E7C                     l835:
  3961  000E7C  90D8               	bcf	status,0,c
  3962  000E7E  3614               	rlcf	___fldiv@grs^0,f,c
  3963  000E80  3615               	rlcf	(___fldiv@grs+1)^0,f,c
  3964  000E82  3616               	rlcf	(___fldiv@grs+2)^0,f,c
  3965  000E84  3617               	rlcf	(___fldiv@grs+3)^0,f,c
  3966  000E86  0612               	decf	___fldiv@new_exp^0,f,c
  3967  000E88  A0D8               	btfss	status,0,c
  3968  000E8A  0613               	decf	(___fldiv@new_exp+1)^0,f,c
  3969  000E8C                     l2346:
  3970  000E8C  AE03               	btfss	(___fldiv@b+2)^0,7,c
  3971  000E8E  EF4B  F007         	goto	u2151
  3972  000E92  EF4D  F007         	goto	u2150
  3973  000E96                     u2151:
  3974  000E96  EF31  F007         	goto	l2340
  3975  000E9A                     u2150:
  3976  000E9A  0E00               	movlw	0
  3977  000E9C  6E19               	movwf	___fldiv@aexp^0,c
  3978  000E9E  AE17               	btfss	(___fldiv@grs+3)^0,7,c
  3979  000EA0  EF54  F007         	goto	u2161
  3980  000EA4  EF56  F007         	goto	u2160
  3981  000EA8                     u2161:
  3982  000EA8  EF7A  F007         	goto	l837
  3983  000EAC                     u2160:
  3984  000EAC  0EFF               	movlw	255
  3985  000EAE  1414               	andwf	___fldiv@grs^0,w,c
  3986  000EB0  6E09               	movwf	??___fldiv^0,c
  3987  000EB2  0EFF               	movlw	255
  3988  000EB4  1415               	andwf	(___fldiv@grs+1)^0,w,c
  3989  000EB6  6E0A               	movwf	(??___fldiv+1)^0,c
  3990  000EB8  0EFF               	movlw	255
  3991  000EBA  1416               	andwf	(___fldiv@grs+2)^0,w,c
  3992  000EBC  6E0B               	movwf	(??___fldiv+2)^0,c
  3993  000EBE  0E7F               	movlw	127
  3994  000EC0  1417               	andwf	(___fldiv@grs+3)^0,w,c
  3995  000EC2  6E0C               	movwf	(??___fldiv+3)^0,c
  3996  000EC4  5009               	movf	??___fldiv^0,w,c
  3997  000EC6  100A               	iorwf	(??___fldiv+1)^0,w,c
  3998  000EC8  100B               	iorwf	(??___fldiv+2)^0,w,c
  3999  000ECA  100C               	iorwf	(??___fldiv+3)^0,w,c
  4000  000ECC  B4D8               	btfsc	status,2,c
  4001  000ECE  EF6B  F007         	goto	u2171
  4002  000ED2  EF6D  F007         	goto	u2170
  4003  000ED6                     u2171:
  4004  000ED6  EF71  F007         	goto	l838
  4005  000EDA                     u2170:
  4006  000EDA                     l2354:
  4007  000EDA  0E01               	movlw	1
  4008  000EDC  6E19               	movwf	___fldiv@aexp^0,c
  4009  000EDE  EF7A  F007         	goto	l837
  4010  000EE2                     l838:
  4011  000EE2  A001               	btfss	___fldiv@b^0,0,c
  4012  000EE4  EF76  F007         	goto	u2181
  4013  000EE8  EF78  F007         	goto	u2180
  4014  000EEC                     u2181:
  4015  000EEC  EF7A  F007         	goto	l837
  4016  000EF0                     u2180:
  4017  000EF0  EF6D  F007         	goto	l2354
  4018  000EF4                     l837:
  4019  000EF4  5019               	movf	___fldiv@aexp^0,w,c
  4020  000EF6  B4D8               	btfsc	status,2,c
  4021  000EF8  EF80  F007         	goto	u2191
  4022  000EFC  EF82  F007         	goto	u2190
  4023  000F00                     u2191:
  4024  000F00  EFA6  F007         	goto	l2366
  4025  000F04                     u2190:
  4026  000F04  0E01               	movlw	1
  4027  000F06  2601               	addwf	___fldiv@b^0,f,c
  4028  000F08  0E00               	movlw	0
  4029  000F0A  2202               	addwfc	(___fldiv@b+1)^0,f,c
  4030  000F0C  2203               	addwfc	(___fldiv@b+2)^0,f,c
  4031  000F0E  2204               	addwfc	(___fldiv@b+3)^0,f,c
  4032  000F10  A004               	btfss	(___fldiv@b+3)^0,0,c
  4033  000F12  EF8D  F007         	goto	u2201
  4034  000F16  EF8F  F007         	goto	u2200
  4035  000F1A                     u2201:
  4036  000F1A  EFA6  F007         	goto	l2366
  4037  000F1E                     u2200:
  4038  000F1E  C001  F009         	movff	___fldiv@b,??___fldiv
  4039  000F22  C002  F00A         	movff	___fldiv@b+1,??___fldiv+1
  4040  000F26  C003  F00B         	movff	___fldiv@b+2,??___fldiv+2
  4041  000F2A  C004  F00C         	movff	___fldiv@b+3,??___fldiv+3
  4042  000F2E  340C               	rlcf	(??___fldiv+3)^0,w,c
  4043  000F30  320C               	rrcf	(??___fldiv+3)^0,f,c
  4044  000F32  320B               	rrcf	(??___fldiv+2)^0,f,c
  4045  000F34  320A               	rrcf	(??___fldiv+1)^0,f,c
  4046  000F36  3209               	rrcf	??___fldiv^0,f,c
  4047  000F38  C009  F001         	movff	??___fldiv,___fldiv@b
  4048  000F3C  C00A  F002         	movff	??___fldiv+1,___fldiv@b+1
  4049  000F40  C00B  F003         	movff	??___fldiv+2,___fldiv@b+2
  4050  000F44  C00C  F004         	movff	??___fldiv+3,___fldiv@b+3
  4051  000F48  4A12               	infsnz	___fldiv@new_exp^0,f,c
  4052  000F4A  2A13               	incf	(___fldiv@new_exp+1)^0,f,c
  4053  000F4C                     l2366:
  4054  000F4C  BE13               	btfsc	(___fldiv@new_exp+1)^0,7,c
  4055  000F4E  EFB1  F007         	goto	u2211
  4056  000F52  5013               	movf	(___fldiv@new_exp+1)^0,w,c
  4057  000F54  E108               	bnz	u2210
  4058  000F56  2812               	incf	___fldiv@new_exp^0,w,c
  4059  000F58  A0D8               	btfss	status,0,c
  4060  000F5A  EFB1  F007         	goto	u2211
  4061  000F5E  EFB3  F007         	goto	u2210
  4062  000F62                     u2211:
  4063  000F62  EFBE  F007         	goto	l2370
  4064  000F66                     u2210:
  4065  000F66  0E00               	movlw	0
  4066  000F68  6E13               	movwf	(___fldiv@new_exp+1)^0,c
  4067  000F6A  6812               	setf	___fldiv@new_exp^0,c
  4068  000F6C  0E00               	movlw	0
  4069  000F6E  6E01               	movwf	___fldiv@b^0,c
  4070  000F70  0E00               	movlw	0
  4071  000F72  6E02               	movwf	(___fldiv@b+1)^0,c
  4072  000F74  0E00               	movlw	0
  4073  000F76  6E03               	movwf	(___fldiv@b+2)^0,c
  4074  000F78  0E00               	movlw	0
  4075  000F7A  6E04               	movwf	(___fldiv@b+3)^0,c
  4076  000F7C                     l2370:
  4077  000F7C  BE13               	btfsc	(___fldiv@new_exp+1)^0,7,c
  4078  000F7E  EFCB  F007         	goto	u2220
  4079  000F82  5013               	movf	(___fldiv@new_exp+1)^0,w,c
  4080  000F84  E106               	bnz	u2221
  4081  000F86  0412               	decf	___fldiv@new_exp^0,w,c
  4082  000F88  B0D8               	btfsc	status,0,c
  4083  000F8A  EFC9  F007         	goto	u2221
  4084  000F8E  EFCB  F007         	goto	u2220
  4085  000F92                     u2221:
  4086  000F92  EFD9  F007         	goto	l2374
  4087  000F96                     u2220:
  4088  000F96  0E00               	movlw	0
  4089  000F98  6E13               	movwf	(___fldiv@new_exp+1)^0,c
  4090  000F9A  0E00               	movlw	0
  4091  000F9C  6E12               	movwf	___fldiv@new_exp^0,c
  4092  000F9E  0E00               	movlw	0
  4093  000FA0  6E01               	movwf	___fldiv@b^0,c
  4094  000FA2  0E00               	movlw	0
  4095  000FA4  6E02               	movwf	(___fldiv@b+1)^0,c
  4096  000FA6  0E00               	movlw	0
  4097  000FA8  6E03               	movwf	(___fldiv@b+2)^0,c
  4098  000FAA  0E00               	movlw	0
  4099  000FAC  6E04               	movwf	(___fldiv@b+3)^0,c
  4100  000FAE  0E00               	movlw	0
  4101  000FB0  6E11               	movwf	___fldiv@sign^0,c
  4102  000FB2                     l2374:
  4103  000FB2  C012  F018         	movff	___fldiv@new_exp,___fldiv@bexp
  4104  000FB6  A018               	btfss	___fldiv@bexp^0,0,c
  4105  000FB8  EFE0  F007         	goto	u2231
  4106  000FBC  EFE2  F007         	goto	u2230
  4107  000FC0                     u2231:
  4108  000FC0  EFE5  F007         	goto	l2380
  4109  000FC4                     u2230:
  4110  000FC4  8E03               	bsf	(___fldiv@b+2)^0,7,c
  4111  000FC6  EFE6  F007         	goto	l2382
  4112  000FCA                     l2380:
  4113  000FCA  9E03               	bcf	(___fldiv@b+2)^0,7,c
  4114  000FCC                     l2382:
  4115  000FCC  90D8               	bcf	status,0,c
  4116  000FCE  3018               	rrcf	___fldiv@bexp^0,w,c
  4117  000FD0  6E04               	movwf	(___fldiv@b+3)^0,c
  4118  000FD2  EF9C  F006         	goto	l2296
  4119  000FD6                     l824:
  4120  000FD6  0012               	return		;funcret
  4121  000FD8                     __end_of___fldiv:
  4122                           	opt callstack 0
  4123                           
  4124 ;; *************** function _LCD_String_xy *****************
  4125 ;; Defined at:
  4126 ;;		line 59 in file "lcd.c"
  4127 ;; Parameters:    Size  Location     Type
  4128 ;;  row             1    wreg     unsigned char 
  4129 ;;  pos             1   10[COMRAM] unsigned char 
  4130 ;;  msg             2   11[COMRAM] PTR const unsigned char 
  4131 ;;		 -> main@Temperatura(10), STR_1(12), 
  4132 ;; Auto vars:     Size  Location     Type
  4133 ;;  row             1   13[COMRAM] unsigned char 
  4134 ;;  location        1   14[COMRAM] unsigned char 
  4135 ;; Return value:  Size  Location     Type
  4136 ;;                  1    wreg      void 
  4137 ;; Registers used:
  4138 ;;		wreg, fsr1l, fsr1h, status,2, status,0, tblptrl, tblptrh, tblptru, cstack
  4139 ;; Tracked objects:
  4140 ;;		On entry : 0/0
  4141 ;;		On exit  : 0/0
  4142 ;;		Unchanged: 0/0
  4143 ;; Data sizes:     COMRAM   BANK0   BANK1   BANK2   BANK3   BANK4   BANK5   BANK6   BANK7
  4144 ;;      Params:         3       0       0       0       0       0       0       0       0
  4145 ;;      Locals:         2       0       0       0       0       0       0       0       0
  4146 ;;      Temps:          0       0       0       0       0       0       0       0       0
  4147 ;;      Totals:         5       0       0       0       0       0       0       0       0
  4148 ;;Total ram usage:        5 bytes
  4149 ;; Hardware stack levels used:    1
  4150 ;; Hardware stack levels required when called:    3
  4151 ;; This function calls:
  4152 ;;		_LCD_Command
  4153 ;;		_LCD_String
  4154 ;; This function is called by:
  4155 ;;		_main
  4156 ;; This function uses a non-reentrant model
  4157 ;;
  4158                           
  4159                           	psect	text18
  4160  00214A                     __ptext18:
  4161                           	opt callstack 0
  4162  00214A                     _LCD_String_xy:
  4163                           	opt callstack 27
  4164                           
  4165                           ;incstack = 0
  4166                           ;LCD_String_xy@row stored from wreg
  4167  00214A  6E0E               	movwf	LCD_String_xy@row^0,c
  4168  00214C                     
  4169                           ;lcd.c: 62:     if(row<=1)
  4170  00214C  0E02               	movlw	2
  4171  00214E  600E               	cpfslt	LCD_String_xy@row^0,c
  4172  002150  EFAC  F010         	goto	u1881
  4173  002154  EFAE  F010         	goto	u1880
  4174  002158                     u1881:
  4175  002158  EFB7  F010         	goto	l2190
  4176  00215C                     u1880:
  4177  00215C                     
  4178                           ;lcd.c: 63:     {;lcd.c: 64:         location = (0x80) | ((pos) & 0x0f);
  4179  00215C  500B               	movf	LCD_String_xy@pos^0,w,c
  4180  00215E  0B0F               	andlw	15
  4181  002160  0980               	iorlw	128
  4182  002162  6E0F               	movwf	LCD_String_xy@location^0,c
  4183  002164                     
  4184                           ;lcd.c: 65:         LCD_Command(location);
  4185  002164  500F               	movf	LCD_String_xy@location^0,w,c
  4186  002166  EC18  F010         	call	_LCD_Command
  4187                           
  4188                           ;lcd.c: 66:     }
  4189  00216A  EFBE  F010         	goto	l2194
  4190  00216E                     l2190:
  4191                           
  4192                           ;lcd.c: 68:     {;lcd.c: 69:         location = (0xC0) | ((pos) & 0x0f);
  4193  00216E  500B               	movf	LCD_String_xy@pos^0,w,c
  4194  002170  0B0F               	andlw	15
  4195  002172  09C0               	iorlw	192
  4196  002174  6E0F               	movwf	LCD_String_xy@location^0,c
  4197  002176                     
  4198                           ;lcd.c: 70:         LCD_Command(location);
  4199  002176  500F               	movf	LCD_String_xy@location^0,w,c
  4200  002178  EC18  F010         	call	_LCD_Command
  4201  00217C                     l2194:
  4202                           
  4203                           ;lcd.c: 74:     LCD_String(msg);
  4204  00217C  C00C  F009         	movff	LCD_String_xy@msg,LCD_String@msg
  4205  002180  C00D  F00A         	movff	LCD_String_xy@msg+1,LCD_String@msg+1
  4206  002184  EC9A  F00F         	call	_LCD_String	;wreg free
  4207  002188  0012               	return		;funcret
  4208  00218A                     __end_of_LCD_String_xy:
  4209                           	opt callstack 0
  4210                           
  4211 ;; *************** function _LCD_String *****************
  4212 ;; Defined at:
  4213 ;;		line 49 in file "lcd.c"
  4214 ;; Parameters:    Size  Location     Type
  4215 ;;  msg             2    8[COMRAM] PTR const unsigned char 
  4216 ;;		 -> main@Temperatura(10), STR_1(12), 
  4217 ;; Auto vars:     Size  Location     Type
  4218 ;;		None
  4219 ;; Return value:  Size  Location     Type
  4220 ;;                  1    wreg      void 
  4221 ;; Registers used:
  4222 ;;		wreg, fsr1l, fsr1h, status,2, status,0, tblptrl, tblptrh, tblptru, cstack
  4223 ;; Tracked objects:
  4224 ;;		On entry : 0/0
  4225 ;;		On exit  : 0/0
  4226 ;;		Unchanged: 0/0
  4227 ;; Data sizes:     COMRAM   BANK0   BANK1   BANK2   BANK3   BANK4   BANK5   BANK6   BANK7
  4228 ;;      Params:         2       0       0       0       0       0       0       0       0
  4229 ;;      Locals:         0       0       0       0       0       0       0       0       0
  4230 ;;      Temps:          0       0       0       0       0       0       0       0       0
  4231 ;;      Totals:         2       0       0       0       0       0       0       0       0
  4232 ;;Total ram usage:        2 bytes
  4233 ;; Hardware stack levels used:    1
  4234 ;; Hardware stack levels required when called:    2
  4235 ;; This function calls:
  4236 ;;		_LCD_Char
  4237 ;; This function is called by:
  4238 ;;		_LCD_String_xy
  4239 ;; This function uses a non-reentrant model
  4240 ;;
  4241                           
  4242                           	psect	text19
  4243  001F34                     __ptext19:
  4244                           	opt callstack 0
  4245  001F34                     _LCD_String:
  4246                           	opt callstack 27
  4247  001F34                     
  4248                           ;lcd.c: 49: void LCD_String(const char *msg);lcd.c: 50: {;lcd.c: 51:  while((*msg)!=0)
  4249  001F34  EFB0  F00F         	goto	l2158
  4250  001F38                     l2154:
  4251                           
  4252                           ;lcd.c: 52:  {;lcd.c: 53:    LCD_Char(*msg);
  4253  001F38  C009  FFF6         	movff	LCD_String@msg,tblptrl
  4254  001F3C  C00A  FFF7         	movff	LCD_String@msg+1,tblptrh
  4255  001F40  6AF8               	clrf	tblptru,c
  4256  001F42  0E07               	movlw	(high __ramtop+-1)
  4257  001F44  64F7               	cpfsgt	tblptrh,c
  4258  001F46  D003               	bra	u1847
  4259  001F48  0008               	tblrd		*
  4260  001F4A  50F5               	movf	tablat,w,c
  4261  001F4C  D005               	bra	u1840
  4262  001F4E                     u1847:
  4263  001F4E  CFF6 FFE1          	movff	tblptrl,fsr1l
  4264  001F52  CFF7 FFE2          	movff	tblptrh,fsr1h
  4265  001F56  50E7               	movf	indf1,w,c
  4266  001F58                     u1840:
  4267  001F58  ECF2  F00F         	call	_LCD_Char
  4268  001F5C                     
  4269                           ;lcd.c: 54:    msg++;
  4270  001F5C  4A09               	infsnz	LCD_String@msg^0,f,c
  4271  001F5E  2A0A               	incf	(LCD_String@msg+1)^0,f,c
  4272  001F60                     l2158:
  4273                           
  4274                           ;lcd.c: 51:  while((*msg)!=0)
  4275  001F60  C009  FFF6         	movff	LCD_String@msg,tblptrl
  4276  001F64  C00A  FFF7         	movff	LCD_String@msg+1,tblptrh
  4277  001F68  6AF8               	clrf	tblptru,c
  4278  001F6A  0E07               	movlw	(high __ramtop+-1)
  4279  001F6C  64F7               	cpfsgt	tblptrh,c
  4280  001F6E  D003               	bra	u1857
  4281  001F70  0008               	tblrd		*
  4282  001F72  50F5               	movf	tablat,w,c
  4283  001F74  D005               	bra	u1850
  4284  001F76                     u1857:
  4285  001F76  CFF6 FFE1          	movff	tblptrl,fsr1l
  4286  001F7A  CFF7 FFE2          	movff	tblptrh,fsr1h
  4287  001F7E  50E7               	movf	indf1,w,c
  4288  001F80                     u1850:
  4289  001F80  0900               	iorlw	0
  4290  001F82  A4D8               	btfss	status,2,c
  4291  001F84  EFC6  F00F         	goto	u1861
  4292  001F88  EFC8  F00F         	goto	u1860
  4293  001F8C                     u1861:
  4294  001F8C  EF9C  F00F         	goto	l2154
  4295  001F90                     u1860:
  4296  001F90  0012               	return		;funcret
  4297  001F92                     __end_of_LCD_String:
  4298                           	opt callstack 0
  4299                           
  4300 ;; *************** function _LCD_Char *****************
  4301 ;; Defined at:
  4302 ;;		line 35 in file "lcd.c"
  4303 ;; Parameters:    Size  Location     Type
  4304 ;;  dat             1    wreg     unsigned char 
  4305 ;; Auto vars:     Size  Location     Type
  4306 ;;  dat             1    7[COMRAM] unsigned char 
  4307 ;; Return value:  Size  Location     Type
  4308 ;;                  1    wreg      void 
  4309 ;; Registers used:
  4310 ;;		wreg, status,2, status,0, cstack
  4311 ;; Tracked objects:
  4312 ;;		On entry : 0/0
  4313 ;;		On exit  : 0/0
  4314 ;;		Unchanged: 0/0
  4315 ;; Data sizes:     COMRAM   BANK0   BANK1   BANK2   BANK3   BANK4   BANK5   BANK6   BANK7
  4316 ;;      Params:         0       0       0       0       0       0       0       0       0
  4317 ;;      Locals:         1       0       0       0       0       0       0       0       0
  4318 ;;      Temps:          1       0       0       0       0       0       0       0       0
  4319 ;;      Totals:         2       0       0       0       0       0       0       0       0
  4320 ;;Total ram usage:        2 bytes
  4321 ;; Hardware stack levels used:    1
  4322 ;; Hardware stack levels required when called:    1
  4323 ;; This function calls:
  4324 ;;		_MSdelay
  4325 ;; This function is called by:
  4326 ;;		_LCD_String
  4327 ;;		_keyfind
  4328 ;; This function uses a non-reentrant model
  4329 ;;
  4330                           
  4331                           	psect	text20
  4332  001FE4                     __ptext20:
  4333                           	opt callstack 0
  4334  001FE4                     _LCD_Char:
  4335                           	opt callstack 27
  4336                           
  4337                           ;incstack = 0
  4338                           ;LCD_Char@dat stored from wreg
  4339  001FE4  6E08               	movwf	LCD_Char@dat^0,c
  4340  001FE6                     
  4341                           ;lcd.c: 35: void LCD_Char(unsigned char dat);lcd.c: 36: {;lcd.c: 37:  LATD = (LATD & 0x0
      +                          f) | (0xF0 & dat);
  4342  001FE6  C008  F007         	movff	LCD_Char@dat,??_LCD_Char
  4343  001FEA  0EF0               	movlw	240
  4344  001FEC  1607               	andwf	??_LCD_Char^0,f,c
  4345  001FEE  508C               	movf	140,w,c	;volatile
  4346  001FF0  0B0F               	andlw	15
  4347  001FF2  1007               	iorwf	??_LCD_Char^0,w,c
  4348  001FF4  6E8C               	movwf	140,c	;volatile
  4349  001FF6                     
  4350                           ;lcd.c: 38:  LATD0 = 1;
  4351  001FF6  808C               	bsf	3980,0,c	;volatile
  4352  001FF8                     
  4353                           ;lcd.c: 39:  LATD1 = 1;
  4354  001FF8  828C               	bsf	3980,1,c	;volatile
  4355  001FFA                     
  4356                           ;lcd.c: 40:  __nop();
  4357  001FFA  F000               	nop	
  4358  001FFC                     
  4359                           ;lcd.c: 41:  LATD1 = 0;
  4360  001FFC  928C               	bcf	3980,1,c	;volatile
  4361  001FFE                     
  4362                           ;lcd.c: 42:  MSdelay(1);
  4363  001FFE  0E00               	movlw	0
  4364  002000  6E02               	movwf	(MSdelay@val+1)^0,c
  4365  002002  0E01               	movlw	1
  4366  002004  6E01               	movwf	MSdelay@val^0,c
  4367  002006  EC3E  F010         	call	_MSdelay	;wreg free
  4368  00200A                     
  4369                           ;lcd.c: 43:     LATD = (LATD & 0x0f) | (dat<<4);
  4370  00200A  C008  F007         	movff	LCD_Char@dat,??_LCD_Char
  4371  00200E  3A07               	swapf	??_LCD_Char^0,f,c
  4372  002010  0EF0               	movlw	240
  4373  002012  1607               	andwf	??_LCD_Char^0,f,c
  4374  002014  508C               	movf	140,w,c	;volatile
  4375  002016  0B0F               	andlw	15
  4376  002018  1007               	iorwf	??_LCD_Char^0,w,c
  4377  00201A  6E8C               	movwf	140,c	;volatile
  4378  00201C                     
  4379                           ;lcd.c: 44:  LATD1 = 1;
  4380  00201C  828C               	bsf	3980,1,c	;volatile
  4381  00201E                     
  4382                           ;lcd.c: 45:  __nop();
  4383  00201E  F000               	nop	
  4384  002020                     
  4385                           ;lcd.c: 46:  LATD1 = 0;
  4386  002020  928C               	bcf	3980,1,c	;volatile
  4387                           
  4388                           ;lcd.c: 47:  MSdelay(3);
  4389  002022  0E00               	movlw	0
  4390  002024  6E02               	movwf	(MSdelay@val+1)^0,c
  4391  002026  0E03               	movlw	3
  4392  002028  6E01               	movwf	MSdelay@val^0,c
  4393  00202A  EC3E  F010         	call	_MSdelay	;wreg free
  4394  00202E  0012               	return		;funcret
  4395  002030                     __end_of_LCD_Char:
  4396                           	opt callstack 0
  4397                           
  4398 ;; *************** function _LCD_Init *****************
  4399 ;; Defined at:
  4400 ;;		line 4 in file "lcd.c"
  4401 ;; Parameters:    Size  Location     Type
  4402 ;;		None
  4403 ;; Auto vars:     Size  Location     Type
  4404 ;;		None
  4405 ;; Return value:  Size  Location     Type
  4406 ;;                  1    wreg      void 
  4407 ;; Registers used:
  4408 ;;		wreg, status,2, status,0, cstack
  4409 ;; Tracked objects:
  4410 ;;		On entry : 0/0
  4411 ;;		On exit  : 0/0
  4412 ;;		Unchanged: 0/0
  4413 ;; Data sizes:     COMRAM   BANK0   BANK1   BANK2   BANK3   BANK4   BANK5   BANK6   BANK7
  4414 ;;      Params:         0       0       0       0       0       0       0       0       0
  4415 ;;      Locals:         0       0       0       0       0       0       0       0       0
  4416 ;;      Temps:          0       0       0       0       0       0       0       0       0
  4417 ;;      Totals:         0       0       0       0       0       0       0       0       0
  4418 ;;Total ram usage:        0 bytes
  4419 ;; Hardware stack levels used:    1
  4420 ;; Hardware stack levels required when called:    2
  4421 ;; This function calls:
  4422 ;;		_LCD_Command
  4423 ;;		_MSdelay
  4424 ;; This function is called by:
  4425 ;;		_main
  4426 ;; This function uses a non-reentrant model
  4427 ;;
  4428                           
  4429                           	psect	text21
  4430  0021FA                     __ptext21:
  4431                           	opt callstack 0
  4432  0021FA                     _LCD_Init:
  4433                           	opt callstack 28
  4434  0021FA                     
  4435                           ;lcd.c: 6:     TRISD = 0;
  4436  0021FA  0E00               	movlw	0
  4437  0021FC  6E95               	movwf	149,c	;volatile
  4438  0021FE                     
  4439                           ;lcd.c: 7:     MSdelay(15);
  4440  0021FE  0E00               	movlw	0
  4441  002200  6E02               	movwf	(MSdelay@val+1)^0,c
  4442  002202  0E0F               	movlw	15
  4443  002204  6E01               	movwf	MSdelay@val^0,c
  4444  002206  EC3E  F010         	call	_MSdelay	;wreg free
  4445  00220A                     
  4446                           ;lcd.c: 8:     LCD_Command(0x02);
  4447  00220A  0E02               	movlw	2
  4448  00220C  EC18  F010         	call	_LCD_Command
  4449  002210                     
  4450                           ;lcd.c: 10:     LCD_Command(0x28);
  4451  002210  0E28               	movlw	40
  4452  002212  EC18  F010         	call	_LCD_Command
  4453  002216                     
  4454                           ;lcd.c: 12:  LCD_Command(0x01);
  4455  002216  0E01               	movlw	1
  4456  002218  EC18  F010         	call	_LCD_Command
  4457  00221C                     
  4458                           ;lcd.c: 13:     LCD_Command(0x0c);
  4459  00221C  0E0C               	movlw	12
  4460  00221E  EC18  F010         	call	_LCD_Command
  4461  002222                     
  4462                           ;lcd.c: 14:  LCD_Command(0x06);
  4463  002222  0E06               	movlw	6
  4464  002224  EC18  F010         	call	_LCD_Command
  4465  002228  0012               	return		;funcret
  4466  00222A                     __end_of_LCD_Init:
  4467                           	opt callstack 0
  4468                           
  4469 ;; *************** function _LCD_Command *****************
  4470 ;; Defined at:
  4471 ;;		line 17 in file "lcd.c"
  4472 ;; Parameters:    Size  Location     Type
  4473 ;;  cmd             1    wreg     unsigned char 
  4474 ;; Auto vars:     Size  Location     Type
  4475 ;;  cmd             1    7[COMRAM] unsigned char 
  4476 ;; Return value:  Size  Location     Type
  4477 ;;                  1    wreg      void 
  4478 ;; Registers used:
  4479 ;;		wreg, status,2, status,0, cstack
  4480 ;; Tracked objects:
  4481 ;;		On entry : 0/0
  4482 ;;		On exit  : 0/0
  4483 ;;		Unchanged: 0/0
  4484 ;; Data sizes:     COMRAM   BANK0   BANK1   BANK2   BANK3   BANK4   BANK5   BANK6   BANK7
  4485 ;;      Params:         0       0       0       0       0       0       0       0       0
  4486 ;;      Locals:         1       0       0       0       0       0       0       0       0
  4487 ;;      Temps:          1       0       0       0       0       0       0       0       0
  4488 ;;      Totals:         2       0       0       0       0       0       0       0       0
  4489 ;;Total ram usage:        2 bytes
  4490 ;; Hardware stack levels used:    1
  4491 ;; Hardware stack levels required when called:    1
  4492 ;; This function calls:
  4493 ;;		_MSdelay
  4494 ;; This function is called by:
  4495 ;;		_LCD_Init
  4496 ;;		_LCD_String_xy
  4497 ;;		_LCD_Clear
  4498 ;; This function uses a non-reentrant model
  4499 ;;
  4500                           
  4501                           	psect	text22
  4502  002030                     __ptext22:
  4503                           	opt callstack 0
  4504  002030                     _LCD_Command:
  4505                           	opt callstack 28
  4506                           
  4507                           ;incstack = 0
  4508                           ;LCD_Command@cmd stored from wreg
  4509  002030  6E08               	movwf	LCD_Command@cmd^0,c
  4510  002032                     
  4511                           ;lcd.c: 17: void LCD_Command(unsigned char cmd );lcd.c: 18: {;lcd.c: 19:  LATD = (LATD &
      +                           0x0f) |(0xF0 & cmd);
  4512  002032  C008  F007         	movff	LCD_Command@cmd,??_LCD_Command
  4513  002036  0EF0               	movlw	240
  4514  002038  1607               	andwf	??_LCD_Command^0,f,c
  4515  00203A  508C               	movf	140,w,c	;volatile
  4516  00203C  0B0F               	andlw	15
  4517  00203E  1007               	iorwf	??_LCD_Command^0,w,c
  4518  002040  6E8C               	movwf	140,c	;volatile
  4519  002042                     
  4520                           ;lcd.c: 20:  LATD0 = 0;
  4521  002042  908C               	bcf	3980,0,c	;volatile
  4522  002044                     
  4523                           ;lcd.c: 21:  LATD1 = 1;
  4524  002044  828C               	bsf	3980,1,c	;volatile
  4525  002046                     
  4526                           ;lcd.c: 22:  __nop();
  4527  002046  F000               	nop	
  4528  002048                     
  4529                           ;lcd.c: 23:  LATD1 = 0;
  4530  002048  928C               	bcf	3980,1,c	;volatile
  4531  00204A                     
  4532                           ;lcd.c: 24:  MSdelay(1);
  4533  00204A  0E00               	movlw	0
  4534  00204C  6E02               	movwf	(MSdelay@val+1)^0,c
  4535  00204E  0E01               	movlw	1
  4536  002050  6E01               	movwf	MSdelay@val^0,c
  4537  002052  EC3E  F010         	call	_MSdelay	;wreg free
  4538  002056                     
  4539                           ;lcd.c: 25:     LATD = (LATD & 0x0f) | (cmd<<4);
  4540  002056  C008  F007         	movff	LCD_Command@cmd,??_LCD_Command
  4541  00205A  3A07               	swapf	??_LCD_Command^0,f,c
  4542  00205C  0EF0               	movlw	240
  4543  00205E  1607               	andwf	??_LCD_Command^0,f,c
  4544  002060  508C               	movf	140,w,c	;volatile
  4545  002062  0B0F               	andlw	15
  4546  002064  1007               	iorwf	??_LCD_Command^0,w,c
  4547  002066  6E8C               	movwf	140,c	;volatile
  4548  002068                     
  4549                           ;lcd.c: 26:  LATD1 = 1;
  4550  002068  828C               	bsf	3980,1,c	;volatile
  4551  00206A                     
  4552                           ;lcd.c: 27:  __nop();
  4553  00206A  F000               	nop	
  4554  00206C                     
  4555                           ;lcd.c: 28:  LATD1 = 0;
  4556  00206C  928C               	bcf	3980,1,c	;volatile
  4557                           
  4558                           ;lcd.c: 29:  MSdelay(3);
  4559  00206E  0E00               	movlw	0
  4560  002070  6E02               	movwf	(MSdelay@val+1)^0,c
  4561  002072  0E03               	movlw	3
  4562  002074  6E01               	movwf	MSdelay@val^0,c
  4563  002076  EC3E  F010         	call	_MSdelay	;wreg free
  4564  00207A  0012               	return		;funcret
  4565  00207C                     __end_of_LCD_Command:
  4566                           	opt callstack 0
  4567                           
  4568 ;; *************** function _MSdelay *****************
  4569 ;; Defined at:
  4570 ;;		line 83 in file "lcd.c"
  4571 ;; Parameters:    Size  Location     Type
  4572 ;;  val             2    0[COMRAM] unsigned int 
  4573 ;; Auto vars:     Size  Location     Type
  4574 ;;  j               2    4[COMRAM] unsigned int 
  4575 ;;  i               2    2[COMRAM] unsigned int 
  4576 ;; Return value:  Size  Location     Type
  4577 ;;                  1    wreg      void 
  4578 ;; Registers used:
  4579 ;;		wreg, status,2, status,0
  4580 ;; Tracked objects:
  4581 ;;		On entry : 0/0
  4582 ;;		On exit  : 0/0
  4583 ;;		Unchanged: 0/0
  4584 ;; Data sizes:     COMRAM   BANK0   BANK1   BANK2   BANK3   BANK4   BANK5   BANK6   BANK7
  4585 ;;      Params:         2       0       0       0       0       0       0       0       0
  4586 ;;      Locals:         4       0       0       0       0       0       0       0       0
  4587 ;;      Temps:          0       0       0       0       0       0       0       0       0
  4588 ;;      Totals:         6       0       0       0       0       0       0       0       0
  4589 ;;Total ram usage:        6 bytes
  4590 ;; Hardware stack levels used:    1
  4591 ;; This function calls:
  4592 ;;		Nothing
  4593 ;; This function is called by:
  4594 ;;		_LCD_Init
  4595 ;;		_LCD_Command
  4596 ;;		_LCD_Char
  4597 ;;		_main
  4598 ;;		_keyfind
  4599 ;; This function uses a non-reentrant model
  4600 ;;
  4601                           
  4602                           	psect	text23
  4603  00207C                     __ptext23:
  4604                           	opt callstack 0
  4605  00207C                     _MSdelay:
  4606                           	opt callstack 30
  4607  00207C                     
  4608                           ;lcd.c: 83: void MSdelay(unsigned int val);lcd.c: 84: {;lcd.c: 85:  unsigned int i,j;;lc
      +                          d.c: 86:  for(i=0;i<val;i++)
  4609  00207C  0E00               	movlw	0
  4610  00207E  6E04               	movwf	(MSdelay@i+1)^0,c
  4611  002080  0E00               	movlw	0
  4612  002082  6E03               	movwf	MSdelay@i^0,c
  4613  002084  EF57  F010         	goto	l2006
  4614  002088                     l1994:
  4615                           
  4616                           ;lcd.c: 87:      for(j=0;j<165;j++);
  4617  002088  0E00               	movlw	0
  4618  00208A  6E06               	movwf	(MSdelay@j+1)^0,c
  4619  00208C  0E00               	movlw	0
  4620  00208E  6E05               	movwf	MSdelay@j^0,c
  4621  002090                     l2000:
  4622  002090  4A05               	infsnz	MSdelay@j^0,f,c
  4623  002092  2A06               	incf	(MSdelay@j+1)^0,f,c
  4624  002094  5006               	movf	(MSdelay@j+1)^0,w,c
  4625  002096  E109               	bnz	u1630
  4626  002098  0EA5               	movlw	165
  4627  00209A  5C05               	subwf	MSdelay@j^0,w,c
  4628  00209C  A0D8               	btfss	status,0,c
  4629  00209E  EF53  F010         	goto	u1631
  4630  0020A2  EF55  F010         	goto	u1630
  4631  0020A6                     u1631:
  4632  0020A6  EF48  F010         	goto	l2000
  4633  0020AA                     u1630:
  4634  0020AA  4A03               	infsnz	MSdelay@i^0,f,c
  4635  0020AC  2A04               	incf	(MSdelay@i+1)^0,f,c
  4636  0020AE                     l2006:
  4637  0020AE  5001               	movf	MSdelay@val^0,w,c
  4638  0020B0  5C03               	subwf	MSdelay@i^0,w,c
  4639  0020B2  5002               	movf	(MSdelay@val+1)^0,w,c
  4640  0020B4  5804               	subwfb	(MSdelay@i+1)^0,w,c
  4641  0020B6  A0D8               	btfss	status,0,c
  4642  0020B8  EF60  F010         	goto	u1641
  4643  0020BC  EF62  F010         	goto	u1640
  4644  0020C0                     u1641:
  4645  0020C0  EF44  F010         	goto	l1994
  4646  0020C4                     u1640:
  4647  0020C4  0012               	return		;funcret
  4648  0020C6                     __end_of_MSdelay:
  4649                           	opt callstack 0
  4650                           
  4651 ;; *************** function _ADC_Read *****************
  4652 ;; Defined at:
  4653 ;;		line 13 in file "adc.c"
  4654 ;; Parameters:    Size  Location     Type
  4655 ;;  channel         2    0[COMRAM] int 
  4656 ;; Auto vars:     Size  Location     Type
  4657 ;;  digital         2    6[COMRAM] int 
  4658 ;; Return value:  Size  Location     Type
  4659 ;;                  2    0[COMRAM] int 
  4660 ;; Registers used:
  4661 ;;		wreg, status,2, status,0
  4662 ;; Tracked objects:
  4663 ;;		On entry : 0/0
  4664 ;;		On exit  : 0/0
  4665 ;;		Unchanged: 0/0
  4666 ;; Data sizes:     COMRAM   BANK0   BANK1   BANK2   BANK3   BANK4   BANK5   BANK6   BANK7
  4667 ;;      Params:         2       0       0       0       0       0       0       0       0
  4668 ;;      Locals:         2       0       0       0       0       0       0       0       0
  4669 ;;      Temps:          4       0       0       0       0       0       0       0       0
  4670 ;;      Totals:         8       0       0       0       0       0       0       0       0
  4671 ;;Total ram usage:        8 bytes
  4672 ;; Hardware stack levels used:    1
  4673 ;; This function calls:
  4674 ;;		Nothing
  4675 ;; This function is called by:
  4676 ;;		_main
  4677 ;; This function uses a non-reentrant model
  4678 ;;
  4679                           
  4680                           	psect	text24
  4681  001E36                     __ptext24:
  4682                           	opt callstack 0
  4683  001E36                     _ADC_Read:
  4684                           	opt callstack 30
  4685  001E36                     
  4686                           ;adc.c: 13: int ADC_Read(int channel);adc.c: 14: {;adc.c: 15:     int digital;;adc.c: 16
      +                          :     ADCON0 =(ADCON0 & 0b11000011)|((channel<<2) & 0b00111100);
  4687  001E36  C001  F003         	movff	ADC_Read@channel,??_ADC_Read
  4688  001E3A  90D8               	bcf	status,0,c
  4689  001E3C  3603               	rlcf	??_ADC_Read^0,f,c
  4690  001E3E  90D8               	bcf	status,0,c
  4691  001E40  3603               	rlcf	??_ADC_Read^0,f,c
  4692  001E42  0E3C               	movlw	60
  4693  001E44  1603               	andwf	??_ADC_Read^0,f,c
  4694  001E46  50C2               	movf	194,w,c	;volatile
  4695  001E48  0BC3               	andlw	195
  4696  001E4A  1003               	iorwf	??_ADC_Read^0,w,c
  4697  001E4C  6EC2               	movwf	194,c	;volatile
  4698                           
  4699                           ;adc.c: 18:     ADCON0 |= ((1<<ADON)|(1<<GO));
  4700  001E4E  B2C2               	btfsc	4034,1,c	;volatile
  4701  001E50  EF2C  F00F         	goto	u1891
  4702  001E54  EF30  F00F         	goto	u1890
  4703  001E58                     u1891:
  4704  001E58  6A03               	clrf	??_ADC_Read^0,c
  4705  001E5A  2A03               	incf	??_ADC_Read^0,f,c
  4706  001E5C  EF31  F00F         	goto	u1908
  4707  001E60                     u1890:
  4708  001E60  6A03               	clrf	??_ADC_Read^0,c
  4709  001E62                     u1908:
  4710  001E62  0E01               	movlw	1
  4711  001E64  6E04               	movwf	(??_ADC_Read+1)^0,c
  4712  001E66  2A03               	incf	??_ADC_Read^0,f,c
  4713  001E68  EF38  F00F         	goto	u1914
  4714  001E6C                     u1915:
  4715  001E6C  90D8               	bcf	status,0,c
  4716  001E6E  3604               	rlcf	(??_ADC_Read+1)^0,f,c
  4717  001E70                     u1914:
  4718  001E70  2E03               	decfsz	??_ADC_Read^0,f,c
  4719  001E72  EF36  F00F         	goto	u1915
  4720  001E76  B0C2               	btfsc	4034,0,c	;volatile
  4721  001E78  EF40  F00F         	goto	u1921
  4722  001E7C  EF44  F00F         	goto	u1920
  4723  001E80                     u1921:
  4724  001E80  6A05               	clrf	(??_ADC_Read+2)^0,c
  4725  001E82  2A05               	incf	(??_ADC_Read+2)^0,f,c
  4726  001E84  EF45  F00F         	goto	u1938
  4727  001E88                     u1920:
  4728  001E88  6A05               	clrf	(??_ADC_Read+2)^0,c
  4729  001E8A                     u1938:
  4730  001E8A  0E01               	movlw	1
  4731  001E8C  6E06               	movwf	(??_ADC_Read+3)^0,c
  4732  001E8E  2A05               	incf	(??_ADC_Read+2)^0,f,c
  4733  001E90  EF4C  F00F         	goto	u1944
  4734  001E94                     u1945:
  4735  001E94  90D8               	bcf	status,0,c
  4736  001E96  3606               	rlcf	(??_ADC_Read+3)^0,f,c
  4737  001E98                     u1944:
  4738  001E98  2E05               	decfsz	(??_ADC_Read+2)^0,f,c
  4739  001E9A  EF4A  F00F         	goto	u1945
  4740  001E9E  5006               	movf	(??_ADC_Read+3)^0,w,c
  4741  001EA0  1004               	iorwf	(??_ADC_Read+1)^0,w,c
  4742  001EA2  12C2               	iorwf	194,f,c	;volatile
  4743  001EA4                     l164:
  4744  001EA4  B2C2               	btfsc	194,1,c	;volatile
  4745  001EA6  EF57  F00F         	goto	u1951
  4746  001EAA  EF59  F00F         	goto	u1950
  4747  001EAE                     u1951:
  4748  001EAE  EF52  F00F         	goto	l164
  4749  001EB2                     u1950:
  4750  001EB2                     
  4751                           ;adc.c: 20:     digital = (ADRESH*256) | (ADRESL);
  4752  001EB2  50C3               	movf	195,w,c	;volatile
  4753  001EB4  CFC4 F003          	movff	4036,??_ADC_Read	;volatile
  4754  001EB8  6A04               	clrf	(??_ADC_Read+1)^0,c
  4755  001EBA  C003  F004         	movff	??_ADC_Read,??_ADC_Read+1
  4756  001EBE  6A03               	clrf	??_ADC_Read^0,c
  4757  001EC0  1003               	iorwf	??_ADC_Read^0,w,c
  4758  001EC2  6E07               	movwf	ADC_Read@digital^0,c
  4759  001EC4  5004               	movf	(??_ADC_Read+1)^0,w,c
  4760  001EC6  6E08               	movwf	(ADC_Read@digital+1)^0,c
  4761  001EC8                     
  4762                           ;adc.c: 21:     return(digital);
  4763  001EC8  C007  F001         	movff	ADC_Read@digital,?_ADC_Read
  4764  001ECC  C008  F002         	movff	ADC_Read@digital+1,?_ADC_Read+1
  4765  001ED0  0012               	return		;funcret
  4766  001ED2                     __end_of_ADC_Read:
  4767                           	opt callstack 0
  4768                           
  4769 ;; *************** function _ADC_Init *****************
  4770 ;; Defined at:
  4771 ;;		line 4 in file "adc.c"
  4772 ;; Parameters:    Size  Location     Type
  4773 ;;		None
  4774 ;; Auto vars:     Size  Location     Type
  4775 ;;		None
  4776 ;; Return value:  Size  Location     Type
  4777 ;;                  1    wreg      void 
  4778 ;; Registers used:
  4779 ;;		wreg, status,2
  4780 ;; Tracked objects:
  4781 ;;		On entry : 0/0
  4782 ;;		On exit  : 0/0
  4783 ;;		Unchanged: 0/0
  4784 ;; Data sizes:     COMRAM   BANK0   BANK1   BANK2   BANK3   BANK4   BANK5   BANK6   BANK7
  4785 ;;      Params:         0       0       0       0       0       0       0       0       0
  4786 ;;      Locals:         0       0       0       0       0       0       0       0       0
  4787 ;;      Temps:          0       0       0       0       0       0       0       0       0
  4788 ;;      Totals:         0       0       0       0       0       0       0       0       0
  4789 ;;Total ram usage:        0 bytes
  4790 ;; Hardware stack levels used:    1
  4791 ;; This function calls:
  4792 ;;		Nothing
  4793 ;; This function is called by:
  4794 ;;		_main
  4795 ;; This function uses a non-reentrant model
  4796 ;;
  4797                           
  4798                           	psect	text25
  4799  00222A                     __ptext25:
  4800                           	opt callstack 0
  4801  00222A                     _ADC_Init:
  4802                           	opt callstack 30
  4803  00222A                     
  4804                           ;adc.c: 6:     TRISA = 0xff;
  4805  00222A  6892               	setf	146,c	;volatile
  4806  00222C                     
  4807                           ;adc.c: 7:     ADCON1 = 0x00;
  4808  00222C  0E00               	movlw	0
  4809  00222E  6EC1               	movwf	193,c	;volatile
  4810                           
  4811                           ;adc.c: 8:     ADCON2 = 0x92;
  4812  002230  0E92               	movlw	146
  4813  002232  6EC0               	movwf	192,c	;volatile
  4814                           
  4815                           ;adc.c: 9:     ADRESH=0;
  4816  002234  0E00               	movlw	0
  4817  002236  6EC4               	movwf	196,c	;volatile
  4818                           
  4819                           ;adc.c: 10:     ADRESL=0;
  4820  002238  0E00               	movlw	0
  4821  00223A  6EC3               	movwf	195,c	;volatile
  4822  00223C  0012               	return		;funcret
  4823  00223E                     __end_of_ADC_Init:
  4824                           	opt callstack 0
  4825                           
  4826                           	psect	rparam
  4827  0000                     tosu	equ	0xFFF
  4828                           tosh	equ	0xFFE
  4829                           tosl	equ	0xFFD
  4830                           stkptr	equ	0xFFC
  4831                           pclatu	equ	0xFFB
  4832                           pclath	equ	0xFFA
  4833                           pcl	equ	0xFF9
  4834                           tblptru	equ	0xFF8
  4835                           tblptrh	equ	0xFF7
  4836                           tblptrl	equ	0xFF6
  4837                           tablat	equ	0xFF5
  4838                           prodh	equ	0xFF4
  4839                           prodl	equ	0xFF3
  4840                           indf0	equ	0xFEF
  4841                           postinc0	equ	0xFEE
  4842                           postdec0	equ	0xFED
  4843                           preinc0	equ	0xFEC
  4844                           plusw0	equ	0xFEB
  4845                           fsr0h	equ	0xFEA
  4846                           fsr0l	equ	0xFE9
  4847                           wreg	equ	0xFE8
  4848                           indf1	equ	0xFE7
  4849                           postinc1	equ	0xFE6
  4850                           postdec1	equ	0xFE5
  4851                           preinc1	equ	0xFE4
  4852                           plusw1	equ	0xFE3
  4853                           fsr1h	equ	0xFE2
  4854                           fsr1l	equ	0xFE1
  4855                           bsr	equ	0xFE0
  4856                           indf2	equ	0xFDF
  4857                           postinc2	equ	0xFDE
  4858                           postdec2	equ	0xFDD
  4859                           preinc2	equ	0xFDC
  4860                           plusw2	equ	0xFDB
  4861                           fsr2h	equ	0xFDA
  4862                           fsr2l	equ	0xFD9
  4863                           status	equ	0xFD8


Data Sizes:
    Strings     18
    Constant    0
    Data        16
    BSS         44
    Persistent  0
    Stack       0

Auto Spaces:
    Space          Size  Autos    Used
    COMRAM           95     93      95
    BANK0           160     24      82
    BANK1           256      0       0
    BANK2           256      0       0
    BANK3           256      0       0
    BANK4           256      0       0
    BANK5           256      0       0
    BANK6           256      0       0
    BANK7           256      0       0

Pointer List with Targets:

    strlen@s	PTR const unsigned char  size(2) Largest target is 32
		 -> dbuf(BANK0[32]), 

    strlen@a	PTR const unsigned char  size(2) Largest target is 32
		 -> dbuf(BANK0[32]), 

    sprintf@fmt	PTR const unsigned char  size(2) Largest target is 6
		 -> STR_2(CODE[6]), 

    sprintf@s	PTR unsigned char  size(2) Largest target is 10
		 -> main@Temperatura(BANK0[10]), 

    sprintf@ap	PTR void [1] size(2) Largest target is 2
		 -> ?_sprintf(COMRAM[2]), 

    f.buffer	PTR unsigned char  size(2) Largest target is 10
		 -> main@Temperatura(BANK0[10]), 

    fputs@s	PTR const unsigned char  size(2) Largest target is 32
		 -> dbuf(BANK0[32]), 

    fputs@fp	PTR struct _IO_FILE size(2) Largest target is 7
		 -> sprintf@f(BANK0[6]), 

    S714_IO_FILE$buffer	PTR unsigned char  size(2) Largest target is 10
		 -> main@Temperatura(BANK0[10]), 

    fputc@fp.buffer	PTR unsigned char  size(2) Largest target is 10
		 -> main@Temperatura(BANK0[10]), 

    fputc@fp	PTR struct _IO_FILE size(2) Largest target is 7
		 -> sprintf@f(BANK0[6]), 

    memset@dest	PTR void  size(2) Largest target is 10
		 -> main@Temperatura(BANK0[10]), 

    memset@s	PTR unsigned char  size(2) Largest target is 10
		 -> main@Temperatura(BANK0[10]), 

    vfprintf@ap	PTR PTR void  size(2) Largest target is 2
		 -> sprintf@ap(BANK0[2]), 

    vfprintf@fp	PTR struct _IO_FILE size(2) Largest target is 7
		 -> sprintf@f(BANK0[6]), 

    vfprintf@fmt	PTR const unsigned char  size(2) Largest target is 6
		 -> STR_2(CODE[6]), 

    vfprintf@cfmt	PTR unsigned char  size(2) Largest target is 6
		 -> STR_2(CODE[6]), 

    vfpfcnvrt@fp	PTR struct _IO_FILE size(2) Largest target is 7
		 -> sprintf@f(BANK0[6]), 

    vfpfcnvrt@ap	PTR PTR void  size(2) Largest target is 2
		 -> sprintf@ap(BANK0[2]), 

    vfpfcnvrt@fmt	PTR PTR unsigned char  size(2) Largest target is 2
		 -> vfprintf@cfmt(COMRAM[2]), 

    dtoa@fp	PTR struct _IO_FILE size(2) Largest target is 7
		 -> sprintf@f(BANK0[6]), 

    pad@fp	PTR struct _IO_FILE size(2) Largest target is 7
		 -> sprintf@f(BANK0[6]), 

    pad@buf	PTR unsigned char  size(2) Largest target is 32
		 -> dbuf(BANK0[32]), 

    sp__memset	PTR void  size(2) Largest target is 10
		 -> main@Temperatura(BANK0[10]), 

    LCD_String_xy@msg	PTR const unsigned char  size(2) Largest target is 12
		 -> main@Temperatura(BANK0[10]), STR_1(CODE[12]), 

    LCD_String@msg	PTR const unsigned char  size(2) Largest target is 12
		 -> main@Temperatura(BANK0[10]), STR_1(CODE[12]), 


Critical Paths under _main in COMRAM

    _main->_sprintf
    _sprintf->_vfprintf
    _vfprintf->_vfpfcnvrt
    _vfpfcnvrt->_dtoa
    _dtoa->_pad
    _pad->_fputs
    _fputs->_fputc
    _abs->___aomod
    ___xxtofl->_ADC_Read
    ___flmul->___xxtofl
    _LCD_String_xy->_LCD_String
    _LCD_String->_LCD_Char
    _LCD_Char->_MSdelay
    _LCD_Init->_LCD_Command
    _LCD_Command->_MSdelay

Critical Paths under _main in BANK0

    _main->_sprintf

Critical Paths under _main in BANK1

    None.

Critical Paths under _main in BANK2

    None.

Critical Paths under _main in BANK3

    None.

Critical Paths under _main in BANK4

    None.

Critical Paths under _main in BANK5

    None.

Critical Paths under _main in BANK6

    None.

Critical Paths under _main in BANK7

    None.

Call Graph Tables:

 ---------------------------------------------------------------------------------
 (Depth) Function   	        Calls       Base Space   Used Autos Params    Refs
 ---------------------------------------------------------------------------------
 (0) _main                                                14    14      0   15698
                                             10 BANK0     14    14      0
                           _ADC_Init
                           _ADC_Read
                           _LCD_Init
                      _LCD_String_xy
                            _MSdelay
                            ___fldiv
                            ___flmul
                            ___fltol
                           ___xxtofl
                             _memset
                            _sprintf
 ---------------------------------------------------------------------------------
 (1) _sprintf                                             16    10      6    6456
                                             87 COMRAM     6     0      6
                                              0 BANK0     10    10      0
                            ___fltol (ARG)
                           _vfprintf
 ---------------------------------------------------------------------------------
 (2) _vfprintf                                             8     2      6    6105
                                             79 COMRAM     8     2      6
                          _vfpfcnvrt
 ---------------------------------------------------------------------------------
 (3) _vfpfcnvrt                                           42    36      6    5751
                                             63 COMRAM    16    10      6
                               _dtoa
                              _fputc
 ---------------------------------------------------------------------------------
 (4) _dtoa                                                36    26     10    4358
                                             27 COMRAM    36    26     10
                            ___aodiv
                            ___aomod
                                _abs
                                _pad
 ---------------------------------------------------------------------------------
 (5) _pad                                                 11     5      6    2709
                                             16 COMRAM    11     5      6
                              _fputc
                              _fputs
                             _strlen
 ---------------------------------------------------------------------------------
 (6) _strlen                                               4     2      2     166
                                              0 COMRAM     4     2      2
 ---------------------------------------------------------------------------------
 (6) _fputs                                                7     3      4    1235
                                              9 COMRAM     7     3      4
                              _fputc
 ---------------------------------------------------------------------------------
 (4) _fputc                                                9     5      4     834
                                              0 COMRAM     9     5      4
                              _putch
 ---------------------------------------------------------------------------------
 (5) _putch                                                1     1      0       0
 ---------------------------------------------------------------------------------
 (5) _abs                                                  4     2      2     142
                                             18 COMRAM     4     2      2
                            ___aomod (ARG)
 ---------------------------------------------------------------------------------
 (5) ___aomod                                             18     2     16     448
                                              0 COMRAM    18     2     16
 ---------------------------------------------------------------------------------
 (5) ___aodiv                                             26    10     16     452
                                              0 COMRAM    26    10     16
 ---------------------------------------------------------------------------------
 (1) _memset                                              12     6      6     947
                                              0 COMRAM    12     6      6
 ---------------------------------------------------------------------------------
 (1) ___xxtofl                                            14    10      4     398
                                              8 COMRAM    14    10      4
                           _ADC_Read (ARG)
 ---------------------------------------------------------------------------------
 (1) ___fltol                                             10     6      4     305
                                              0 COMRAM    10     6      4
 ---------------------------------------------------------------------------------
 (1) ___flmul                                             25    17      8    1744
                                             22 COMRAM    25    17      8
                           _ADC_Read (ARG)
                           ___xxtofl (ARG)
 ---------------------------------------------------------------------------------
 (1) ___fldiv                                             25    17      8    1399
                                              0 COMRAM    25    17      8
 ---------------------------------------------------------------------------------
 (1) _LCD_String_xy                                        5     2      3    2048
                                             10 COMRAM     5     2      3
                        _LCD_Command
                         _LCD_String
 ---------------------------------------------------------------------------------
 (2) _LCD_String                                           2     0      2     865
                                              8 COMRAM     2     0      2
                           _LCD_Char
 ---------------------------------------------------------------------------------
 (3) _LCD_Char                                             2     2      0     744
                                              6 COMRAM     2     2      0
                            _MSdelay
 ---------------------------------------------------------------------------------
 (1) _LCD_Init                                             0     0      0    1444
                        _LCD_Command
                            _MSdelay
 ---------------------------------------------------------------------------------
 (2) _LCD_Command                                          2     2      0     744
                                              6 COMRAM     2     2      0
                            _MSdelay
 ---------------------------------------------------------------------------------
 (1) _MSdelay                                              6     4      2     700
                                              0 COMRAM     6     4      2
 ---------------------------------------------------------------------------------
 (1) _ADC_Read                                             8     6      2     121
                                              0 COMRAM     8     6      2
 ---------------------------------------------------------------------------------
 (1) _ADC_Init                                             0     0      0       0
 ---------------------------------------------------------------------------------
 Estimated maximum stack depth 6
 ---------------------------------------------------------------------------------

 Call Graph Graphs:

 _main (ROOT)
   _ADC_Init
   _ADC_Read
   _LCD_Init
     _LCD_Command
       _MSdelay
     _MSdelay
   _LCD_String_xy
     _LCD_Command
       _MSdelay
     _LCD_String
       _LCD_Char
         _MSdelay
   _MSdelay
   ___fldiv
   ___flmul
     _ADC_Read (ARG)
     ___xxtofl (ARG)
       _ADC_Read (ARG)
   ___fltol
   ___xxtofl
     _ADC_Read (ARG)
   _memset
   _sprintf
     ___fltol (ARG)
     _vfprintf (ARG)
       _vfpfcnvrt
         _dtoa
           ___aodiv
           ___aomod
           _abs
             ___aomod (ARG)
           _pad
             _fputc
               _putch
             _fputs
               _fputc
                 _putch
             _strlen
         _fputc
           _putch

 Address spaces:
Name               Size   Autos  Total    Cost      Usage
BIGRAM             7FF      0       0      21        0.0%
EEDATA             100      0       0       0        0.0%
BITBANK7           100      0       0      18        0.0%
BANK7              100      0       0      19        0.0%
BITBANK6           100      0       0      16        0.0%
BANK6              100      0       0      17        0.0%
BITBANK5           100      0       0      14        0.0%
BANK5              100      0       0      15        0.0%
BITBANK4           100      0       0      12        0.0%
BANK4              100      0       0      13        0.0%
BITBANK3           100      0       0      10        0.0%
BANK3              100      0       0      11        0.0%
BITBANK2           100      0       0       8        0.0%
BANK2              100      0       0       9        0.0%
BITBANK1           100      0       0       6        0.0%
BANK1              100      0       0       7        0.0%
BITBANK0            A0      0       0       4        0.0%
BANK0               A0     18      52       5       51.3%
BITCOMRAM           5F      0       0       0        0.0%
COMRAM              5F     5D      5F       1      100.0%
BITSFR               0      0       0     200        0.0%
SFR                  0      0       0     200        0.0%
STACK                0      0       0       2        0.0%
NULL                 0      0       0       0        0.0%
ABS                  0      0      B1      20        0.0%
DATA                 0      0      B1       3        0.0%
CODE                 0      0       0       0        0.0%


Microchip Technology PIC18 Macro Assembler V2.10 build 88905656 
Symbol Table                                                                                   Mon Nov 18 23:35:38 2019

           ___fldiv@aexp 0019             ___fldiv@bexp 0018             ___fldiv@sign 0011  
           ?_LCD_Command 0001                       l20 207A                       l23 202E  
                     l17 2228                       l34 2188                       l45 20C4  
                     l29 1F90                       _GO 007E11              __CFG_BOR$ON 000000  
            __CFG_BORV$3 000000              ?_LCD_String 0009             __CFG_CP0$OFF 000000  
           __CFG_CP1$OFF 000000             __CFG_CP2$OFF 000000             __CFG_CP3$OFF 000000  
                    l205 1078                      l207 1080                      l232 146C  
                    l161 223C                      l225 12B8                      l164 1EA4  
                    l238 1F2A                      l167 1ED0                      l239 1F32  
                    l194 1DB6                      l356 17A8                      l197 1DF8  
                    l199 1E34                      l369 1A82                      l539 1CA4  
                    l900 1620                      l911 15B8                      l824 0FD6  
                    l904 155C                      l920 2148                      l826 0E36  
                    l835 0E7C                      l860 0C3C                      l924 191E  
                    l837 0EF4                      l829 0DFA                      l917 2140  
                    l838 0EE2                      l942 1D6E                      l950 2108  
                    l863 0ACE                      l856 08D8                      l960 224E  
                    l873 0BFE                      l865 0B46                      l866 0B34  
                    l957 1FE2                      l966 21F8                      l897 14C4  
           __CFG_CPB$OFF 000000             __CFG_CPD$OFF 000000                      _abs 210A  
                    _pad 1D70                      _lim 0068                      wreg 000FE8  
           ___flmul@aexp 0028             ___flmul@bexp 0029             ___flmul@sign 0023  
           ___flmul@temp 002E             ___flmul@prod 002A              main@celsius 009E  
           __CFG_LVP$OFF 000000              LCD_Char@dat 0008             ___fltol@exp1 000A  
           __CFG_WDT$OFF 000000                     l2000 2090                     l2002 2094  
                   l2010 0FF8                     ?_abs 0013                     l2004 20AA  
                   l2020 106C                     l2012 1020                     l2100 1326  
                   l2006 20AE                     l2030 10B6                     l2022 1088  
                   l2014 1040                     l2110 13EE                     l2102 134A  
                   l2200 1E36                     l2040 1152                     l2032 10BE  
                   l2024 109A                     l2016 1050                     l2008 0FD8  
                   l2120 142A                     l2112 13FC                     l2104 1392  
                   l2202 1EB2                     l2050 1222                     l2034 10C4  
                   l2042 11B6                     l2026 10A8                     l2018 1052  
                   l2114 1410                     l2210 1FA4                     l2204 1EC8  
                   l2140 2048                     l2132 2032                     l2220 17AA  
                   l2060 126C                     l2044 11D0                     l2052 1232  
                   l2036 1146                     l2028 10AE                     l2108 13CA  
                   l2124 1436                     l2212 1FAC                     l2150 206C  
                   l2142 204A                     l2134 2042                     l2070 1FE6  
                   l2310 0D74                     l2302 0D50                     l2230 180A  
                   l2062 1278                     l2054 1244                     l2046 11EE  
                   l2038 114C                     l2126 145A                     l2118 141C  
                   l2214 1FB4                     l2144 2056                     l2136 2044  
                   l2080 1FFE                     l2072 1FF6                     l2152 1F34  
                   l2320 0DC6                     l2312 0D8E                     l2304 0D60  
                   l2400 0850                     l2232 1862                     l2224 17C8  
                   l2064 1280                     l2056 1254                     l2048 1208  
                   l2160 1ED2                     l2216 1FD0                     l2208 1F92  
                   l2146 2068                     l2138 2046                     l2170 21FE  
                   l2082 200A                     l2074 1FF8                     l2154 1F38  
                   l2330 0E22                     l2322 0DD6                     l2314 0D9E  
                   l2306 0D60                     l2410 0882                     l2402 0860  
                   l2250 190C                     l2242 18C2                     l2226 17D4  
                   l2058 125A                     l2066 1290                     l2090 12BA  
                   l2162 1EDA                     l2148 206A                     l2180 2222  
                   l2172 220A                     l2084 201C                     l2076 1FFA  
                   l2156 1F5C                     l2340 0E62                     l2332 0E24  
                   l2324 0DEA                     l2316 0DAE                     l2260 0C6A  
                   l2252 0C3E                     l2500 0BB8                     l2420 08C2  
                   l2412 0890                     l2404 0866                     l2244 18F6  
                   l2236 187C                     l2092 12DE                     l2164 1EE8  
                   l2174 2210                     l2086 201E                     l2078 1FFC  
                   l2158 1F60                     l2190 216E                     l2182 214C  
                   l2350 0E9E                     l2342 0E6C                     l2334 0E34  
                   l2326 0DF8                     l2318 0DBE                     l2270 0CA4  
                   l2262 0C7A                     l2254 0C4A                     l2510 0C20  
                   l2502 0BCC                     l2430 090C                     l2422 08C8  
                   l2414 0892                     l2406 0876                     l2246 1902  
                   l2238 18A8                     l2094 12EC                     l2166 1F0E  
                   l2176 2216                     l2168 21FA                     l2088 2020  
                   l2192 2176                     l2184 214C                     l2360 0F10  
                   l2352 0EAC                     l2344 0E7A                     l2336 0E46  
                   l2328 0E04                     l2280 0CD0                     l2272 0CAA  
                   l2264 0C8A                     l2256 0C58                     l2512 0C22  
                   l2504 0BE6                     l2440 095C                     l2432 0918  
                   l2424 08E8                     l2416 08A2                     l2408 087C  
                   l2520 1BA0                     l2600 15F0                     l2248 1908  
                   l2096 12FE                     l2178 221C                     l2194 217C  
                   l2186 215C                     l2370 0F7C                     l2362 0F1E  
                   l2354 0EDA                     l2338 0E5C                     l2346 0E8C  
                   l2290 0D0A                     l2282 0CE0                     l2274 0CB0  
                   l2266 0C8C                     l2258 0C5A                     l2506 0C02  
                   l2514 0C28                     l2450 099E                     l2442 0968  
                   l2434 0922                     l2426 08F8                     l2418 08B2  
                   l2530 1BF6                     l2522 1BB6                     l2602 1600  
                   l2098 1302                     l2196 222A                     l2188 2164  
                   l2380 0FCA                     l2372 0F96                     l2364 0F48  
                   l2348 0E9A                     l2292 0D20                     l2284 0CF0  
                   l2276 0CBE                     l2268 0C94                     l2516 0C2C  
                   l2508 0C12                     l2460 0A00                     l2452 09AA  
                   l2444 0974                     l2436 0938                     l2532 1C06  
                   l2604 160E                     l1900 1DDA                     l2198 222C  
                   l2382 0FCC                     l2374 0FB2                     l2358 0F04  
                   l2366 0F4C                     l2294 0D30                     l2286 0CF2  
                   l2278 0CC0                     l2470 0A96                     l2462 0A0C  
                   l2454 09BA                     l2446 0982                     l2438 0944  
                   l2390 0814                     l2542 1C30                     l2534 1C0A  
                   l2526 1BCA                     l2606 1610                     l1910 2124  
                   l1902 1E08                     l2376 0FB6                     l2368 0F66  
                   l2296 0D38                     l2288 0CFA                     l2480 0AEC  
                   l2472 0AB4                     l2464 0A28                     l2456 09D4  
                   l2448 098E                     l2392 0820                     l2560 1C94  
                   l2552 1C58                     l2544 1C3A                     l2536 1C18  
                   l2528 1BF4                     l1920 1658                     l1912 1622  
                   l1904 1E1C                     l2720 1A84                     l2378 0FC4  
                   l2298 0D3C                     l2490 0B56                     l2482 0AF0  
                   l2474 0ABE                     l2466 0A52                     l2458 09E4  
                   l2394 082E                     l2554 1C64                     l2546 1C44  
                   l2570 14D4                     l1930 16B4                     l1922 1666  
                   l1914 1626                     l2730 1AFA                     l2722 1A88  
                   l2492 0B62                     l2484 0AFE                     l2476 0ACC  
                   l2468 0A88                     l2396 0830                     l2556 1C74  
                   l2580 1512                     l2572 14EA                     l2564 1470  
                   l1940 171E                     l1932 16BC                     l1924 1686  
                   l1916 1634                     l1908 210A                     l1860 1CD4  
                   l2732 1B2E                     l2724 1A8C                     l2494 0B70  
                   l2486 0B2C                     l2478 0ADE                     l2398 0840  
                   l2558 1C84                     l2590 159A                     l2582 1544  
                   l2566 1480                     l1950 1768                     l1942 173E  
                   l1934 16D0                     l1926 168A                     l1918 1654  
                   l1862 1CF2                     l1854 1CA6                     l1870 20D2  
                   l2734 1B5E                     l2726 1A90                     l2496 0B9A  
                   l2592 15A8                     l2584 1546                     l2576 14FE  
                   l2568 148E                     l1952 1788                     l1944 1740  
                   l1936 16DE                     l1928 1696                     l1960 1932  
                   l1864 1D28                     l1856 1CB8                     l1872 20E4  
                   l1880 21D4                     l2736 1B70                     l2728 1AA2  
                   l2498 0B9E                     l2594 15C6                     l2586 1552  
                   l2578 1506                     l1946 1752                     l1938 16F0  
                   l1970 19A2                     l1962 1952                     l1858 1CCA  
                   l1874 20E8                     l1882 21EC                     l1890 1D94  
                   l2738 1B7C                     l2596 15C8                     l2588 158E  
                   l1948 1758                     l1980 1A1A                     l1972 19AA  
                   l1964 1956                     l1956 1920                     l1868 20C6  
                   l1876 21C4                     l1892 1DA2                     l2598 15CC  
                   l1982 1A2C                     l1974 19BE                     l1966 1964  
                   l1958 1924                     l1878 21D0                     l1894 1DAE  
                   l1886 1D70                     ?_pad 0011                     l1992 207C  
                   l1976 19CC                     l1984 1A32                     l1968 1984  
                   l1896 1DC2                     l1888 1D80                     l1994 2088  
                   l1986 1A42                     l1978 19FA                     l1898 1DD6  
                   l1988 1A62                     _ADON 007E10                     STR_1 0801  
                   STR_2 080D                     u2000 191E                     u2001 191A  
                   u2010 0C58                     u2011 0C54                     u2100 0DF8  
                   u2020 0C6A                     u2101 0DF4                     u2021 0C66  
                   u2110 0E22                     u2030 0C7A                     u2111 0E1E  
                   u2031 0C76                     u2200 0F1E                     u2120 0E46  
                   u2040 0CBE                     u1400 1CCA                     u2201 0F1A  
                   u2121 0E42                     u2041 0CBA                     u1401 1CC6  
                   u2210 0F66                     u2130 0E5C                     u2050 0CD0  
                   u1410 1CF2                     u2211 0F62                     u2131 0E58  
                   u2051 0CCC                     u1411 1CEE                     u2220 0F96  
                   u2140 0E7A                     u2060 0CE0                     u2300 08E8  
                   u1500 1634                     u1420 1D28                     u2221 0F92  
                   u2141 0E76                     u2061 0CDC                     u2301 08E4  
                   u1501 1630                     u1421 1D24                     u2230 0FC4  
                   u2150 0E9A                     u2070 0D20                     u2310 08F8  
                   u1510 1666                     u1430 2108                     _LATB 000F8A  
                   u2231 0FC0                     u2151 0E96                     u2071 0D1C  
                   u2311 08F4                     u1511 1662                     u1431 2104  
                   u2160 0EAC                     u2080 0D60                     u2400 0BB8  
                   u2320 0A72                     u2240 082E                     u1600 19CC  
                   u1440 21EC                     _LATD 000F8C                     u2161 0EA8  
                   u2081 0D5C                     u2401 0BB4                     u2241 082A  
                   u1521 1690                     u1601 19C8                     u1441 21E8  
                   u2170 0EDA                     u2090 0DD6                     u2410 0BE6  
                   u2330 0ACC                     u2250 0840                     u1530 16B4  
                   u1610 19FA                     u1450 1D80                     u2171 0ED6  
                   u2091 0DD2                     u2411 0BE2                     u2331 0AC8  
                   u2251 083C                     u1531 16B0                     u1611 19F6  
                   u1451 1D7C                     u2180 0EF0                     u2420 0C20  
                   u2340 0AEC                     u2260 0850                     u2500 1480  
                   u1540 16DE                     u1620 1A42                     u1460 1DA2  
                   u1700 109A                     u2181 0EEC                     u2421 0C1C  
                   u2341 0AE8                     u2325 0A68                     u2261 084C  
                   u2501 147C                     u1541 16DA                     u1621 1A3E  
                   u1461 1D9E                     u1701 1096                     u1630 20AA  
                   u2190 0F04                     u2350 0AFE                     u2270 0890  
                   u2430 1BB6                     u2510 148E                     u1550 171E  
                   u1390 1CB8                     u1470 1DF8                     u1710 10A8  
                   u1631 20A6                     u2191 0F00                     u2351 0AFA  
                   u2271 088C                     u2431 1BB2                     u2511 148A  
                   u1551 171A                     u1391 1CB4                     u1471 1DF4  
                   u1711 10A4                     u1640 20C4                     u2360 0B2C  
                   u2280 08A2                     u2440 1BEA                     u2520 14EA  
                   u1560 1768                     u1480 1E08                     u1720 11D0  
                   u1800 12DE                     u1641 20C0                     u2361 0B28  
                   u2281 089E                     u2521 14E6                     u1561 1764  
                   u1481 1E04                     u1721 11CC                     u1801 12DA  
                   u2370 0B42                     u2290 08B2                     u2450 1C18  
                   u2530 1540                     u1570 1932                     u1490 2124  
                   u1730 11EE                     u1650 1008                     u1810 1326  
                   u2371 0B3E                     u2291 08AE                     u2451 1C14  
                   u2531 153C                     u1571 192E                     u1491 2120  
                   u1731 11EA                     u1651 1002                     u1811 1322  
                   u2380 0B56                     u2460 1C2C                     u2540 158A  
                   u1580 1964                     u1740 1208                     u1660 100A  
                   u1820 134A                     u2381 0B52                     u2461 1C28  
                   u2445 1BE0                     u2541 1586                     u1581 1960  
                   u1741 1204                     u1821 1346                     u2390 0B70  
                   u2470 1C54                     u2550 15A8                     u1590 19A2  
                   u1750 1222                     u1670 1020                     u1830 13EE  
                   u2391 0B6C                     u2471 1C50                     u2551 15A4  
                   u1591 199E                     u1751 121E                     u1671 101C  
                   u1831 13EA                     u1920 1E88                     u1840 1F58  
                   u2480 1C74                     u2560 15B8                     u1760 1232  
                   u1680 1050                     u1921 1E80                     u2481 1C70  
                   u2561 15B4                     u1761 122E                     u1681 104C  
                   u1914 1E70                     u1850 1F80                     u2490 1C84  
                   u2570 15C6                     u1770 1244                     u1690 106C  
                   u1915 1E6C                     u2491 1C80                     u2571 15C2  
                   u1771 1240                     u1691 1068                     u1908 1E62  
                   u1860 1F90                     u2580 1600                     u1780 1254  
                   u1861 1F8C                     u2581 15FC                     u1781 1250  
                   u1950 1EB2                     u2590 160E                     u1790 126C  
                   u1870 1F2A                     u1951 1EAE                     u1847 1F4E  
                   u2591 160A                     u1791 1268                     u1871 1F26  
                   u1944 1E98                     u1880 215C                     u1960 17C4  
                   u1945 1E94                     u1857 1F76                     u1881 2158  
                   u1961 17C0                     u1938 1E8A                     u1890 1E60  
                   u1970 1806                     u1891 1E58                     u1971 1802  
                   u1980 1878                     u1981 1874                     u1990 18BE  
                   u1991 18BA                     abs@a 0013                     _dbuf 006A  
                   _main 1A84                     _dtoa 0FD8                     _prec 0064  
                   _nout 0060                     pad@i 0018                     pad@p 0015  
                   fsr1h 000FE2                     fsr2h 000FDA                     indf1 000FE7  
                   indf2 000FDF                     fsr1l 000FE1                     pad@w 001A  
                   fsr2l 000FD9         __end_of_ADC_Init 223E         __end_of_ADC_Read 1ED2  
                   prodh 000FF4                     prodl 000FF3                     start 0000  
        __end_of_MSdelay 20C6            __CFG_IESO$OFF 000000          ___fldiv@new_exp 0012  
          _LCD_String_xy 214A             ___param_bank 000000                    ??_abs 0015  
                  ??_pad 0017         __end_of_LCD_Char 2030         __end_of_LCD_Init 222A  
          __CFG_PLLDIV$1 000000           __CFG_CCP2MX$ON 000000            ___fltol@sign1 0009  
        __end_of___aodiv 17AA                    ?_main 0001                    ?_dtoa 001C  
        __end_of___aomod 1A84          __end_of___fldiv 0FD8          __end_of___flmul 0C3E  
        __end_of___fltol 1CA6                    _LATD0 007C60                    _LATD1 007C61  
           vfpfcnvrt@fmt 0042                    _PORTB 000F81            __CFG_USBDIV$1 000000  
                  _TRISA 000F92                    _TRISB 000F93                    _TRISD 000F95  
          __CFG_PWRT$OFF 000000            __CFG_WRT0$OFF 000000            __CFG_WRT1$OFF 000000  
          __CFG_WRT2$OFF 000000            __CFG_WRT3$OFF 000000           __CFG_EBTR0$OFF 000000  
         __CFG_FCMEN$OFF 000000           __CFG_EBTR1$OFF 000000           __CFG_EBTR2$OFF 000000  
         __CFG_EBTR3$OFF 000000            __CFG_WRTB$OFF 000000            __CFG_WRTC$OFF 000000  
          __CFG_WRTD$OFF 000000           __CFG_EBTRB$OFF 000000                    _flags 0066  
                  _fputc 1CA6                    _fputs 20C6                    pad@fp 0011  
                  _width 0062                    _putch 224E                    dtoa@d 001E  
                  dtoa@i 003E                    dtoa@n 0036                    dtoa@p 0030  
                  dtoa@s 0034                    dtoa@w 0032                    tablat 000FF5  
                  status 000FD8      __size_of_LCD_String 005E          __end_of_sprintf 1FE4  
         __CFG_ICPRT$OFF 000000           ?_LCD_String_xy 000B           __CFG_MCLRE$OFF 000000  
        __initialization 218A             __end_of_main 1BA0             __end_of_dtoa 12BA  
                 ??_main 005E                   ??_dtoa 0026            __activetblptr 000002  
                 _ADCON0 000FC2                   _ADCON1 000FC1                   _ADCON2 000FC0  
                 ?_fputc 0001                   ?_fputs 000A                   _ADRESH 000FC4  
                 _ADRESL 000FC3                   ?_putch 0001         LCD_String_xy@msg 000C  
       LCD_String_xy@pos 000B         LCD_String_xy@row 000E                ??_MSdelay 0003  
                 _OSCCON 000FD3         __end_of___xxtofl 1622           __CFG_XINST$OFF 000000  
           vfprintf@cfmt 0056                ??___aodiv 0011                ??___aomod 0011  
              ??___fldiv 0009           __CFG_STVREN$ON 000000                ??___flmul 001F  
              ??___fltol 0005          ADC_Read@channel 0001                   _keypad 00A2  
                 _memset 17AA          ADC_Read@digital 0007                   clear_0 21B0  
                 pad@buf 0013                   _rowloc 005E     __size_of_LCD_Command 004C  
                 dtoa@fp 001C                   _strlen 21C4                   fputc@c 0001  
                 fputs@c 000E                   fputs@i 000F                   fputs@s 000A  
              ?_ADC_Init 0001                ?_ADC_Read 0001             __mediumconst 0000  
                 tblptrh 000FF7                   tblptrl 000FF6                   tblptru 000FF8  
                 putch@c 0001         __end_of_vfprintf 1F34                ??_sprintf 005E  
           ___xxtofl@arg 0013             ___xxtofl@exp 0012             ___xxtofl@val 0009  
              ?_LCD_Char 0001               __accesstop 0060  __end_of__initialization 21BA  
              ?_LCD_Init 0001          __CFG_PBADEN$OFF 000000          ??_LCD_String_xy 000E  
          ___rparam_used 000001               ___fltol@f1 0001           __pcstackCOMRAM 0001  
           __pidataBANK0 223E            __end_of_fputc 1D70            __end_of_fputs 210A  
          __end_of_putch 2250             ??_LCD_String 000B               ??_ADC_Init 0001  
             ??_ADC_Read 0003                  ??_fputc 0005                  ??_fputs 000E  
                ??_putch 0001               __pbssBANK0 0060               ??_LCD_Char 0007  
             ??_LCD_Init 0009       __end_of_LCD_String 1F92          main@Temperatura 0094  
                ?_memset 0001                  ?_strlen 0001                ?___xxtofl 0009  
     __size_of_vfpfcnvrt 01B4                  _MSdelay 207C          __CFG_VREGEN$OFF 000000  
          LCD_String@msg 0009                  __Hparam 0000                  __Lparam 0000  
                ___aodiv 1622                  ___aomod 1920                  ___fldiv 0C3E  
                ___flmul 0814                  ___fltol 1BA0                ?_vfprintf 0050  
           __psmallconst 0800                  __pcinit 218A          __size_of_memset 0176  
                __ramtop 0800                  __ptext0 1A84                  __ptext1 1F92  
                __ptext2 1ED2                  __ptext3 12BA                  __ptext4 0FD8  
                __ptext5 1D70                  __ptext6 21C4                  __ptext7 20C6  
                __ptext8 1CA6                  __ptext9 224E                  _col_loc 005F  
        __size_of_strlen 0036             __size_of_abs 0040             __size_of_pad 00C6  
             ??___xxtofl 000D                  _sprintf 1F92     end_of_initialization 21BA  
                fputc@fp 0003                  memset@c 0003                  memset@k 0009  
                memset@n 0005                  memset@s 000B           LCD_Command@cmd 0008  
          __Lmediumconst 0000                  fputs@fp 000C        __end_of_vfpfcnvrt 146E  
                postdec1 000FE5                  postdec2 000FDD                  postinc0 000FEE  
                postinc1 000FE6                  postinc2 000FDE               ??_vfprintf 0056  
                strlen@a 0003                  strlen@s 0001            ___xxtofl@sign 0011  
            ___fldiv@grs 0014              ___fldiv@rem 000D        __size_of_ADC_Init 0014  
      __size_of_ADC_Read 009C              ___flmul@grs 0024        __size_of_LCD_Char 004C  
      __size_of_LCD_Init 0030            ??_LCD_Command 0007              vfpfcnvrt@ap 0044  
            vfpfcnvrt@fp 0040              vfpfcnvrt@ll 0048           __end_of_memset 1920  
         __end_of_strlen 21FA      start_initialization 218A              __end_of_abs 214A  
            __end_of_pad 1E36    __end_of_LCD_String_xy 218A              vfprintf@fmt 0052  
            __pdataBANK0 00A2         __CFG_LPT1OSC$OFF 000000                 ??_memset 0007  
             memset@dest 0001                 ??_strlen 0003                ___fldiv@a 0005  
              ___fldiv@b 0001      __end_of_LCD_Command 207C                ___flmul@a 001B  
              ___flmul@b 0017              __pbssCOMRAM 005E            __pcstackBANK0 008A  
       ___aodiv@dividend 0001        __size_of___xxtofl 01B4                 ?_MSdelay 0001  
               ?___aodiv 0001                 ?___aomod 0001                 ?___fldiv 0001  
       ___aodiv@quotient 0013                 ?___flmul 0017                 ?___fltol 0001  
      __size_of_vfprintf 0062              __smallconst 0800                 _ADC_Init 222A  
               _ADC_Read 1E36    LCD_String_xy@location 000F                 ?_sprintf 0058  
         __size_of_fputc 00CA           __size_of_fputs 0044           __size_of_putch 0002  
               MSdelay@i 0003                 MSdelay@j 0005                 _LCD_Char 1FE4  
               _LCD_Init 21FA         __CFG_WDTPS$32768 000000              _LCD_Command 2030  
              _vfpfcnvrt 12BA               _ADCON0bits 000FC2                copy_data0 219E  
       __size_of_MSdelay 004A                 __Hrparam 0000               vfprintf@ap 0054  
               __Lrparam 0000               vfprintf@fp 0050         __size_of___aodiv 0188  
       __size_of___aomod 0164         __size_of___fldiv 039A         __size_of___flmul 042A  
       __size_of___fltol 0106               ?_vfpfcnvrt 0040          ___aodiv@divisor 0009  
        ___aodiv@counter 0011               sprintf@fmt 005A                 ___xxtofl 146E  
               _dtoa$246 002E                 __ptext10 210A                 __ptext11 1920  
               __ptext20 1FE4                 __ptext12 1622                 __ptext21 21FA  
               __ptext13 17AA                 __ptext22 2030                 __ptext14 146E  
               __ptext23 207C                 __ptext15 1BA0                 __ptext24 1E36  
               __ptext16 0814                 __ptext25 222A                 __ptext17 0C3E  
               __ptext18 214A                 __ptext19 1F34         __size_of_sprintf 0052  
          __size_of_main 011C            __size_of_dtoa 02E2               MSdelay@val 0001  
               _temp_col 0069                 _vfprintf 1ED2               _LCD_String 1F34  
       ___aomod@dividend 0001    __CFG_CPUDIV$OSC1_PLL2 000000                sprintf@ap 008C  
        ___aomod@divisor 0009              ??_vfpfcnvrt 0046          ___aomod@counter 0011  
    __CFG_FOSC$INTOSC_EC 000000                 sprintf@f 008E                 sprintf@s 0058  
 __size_of_LCD_String_xy 0040             ___aodiv@sign 0012             ___aomod@sign 0012  
