

Microchip MPLAB XC8 Assembler V2.10 build 88905656 
                                                                                               Sat Dec 07 12:00:52 2019

Microchip MPLAB XC8 C Compiler v2.10 (Free license) build 20190730164152 Og1 
     1                           	processor	18F4550
     2                           	fnconf	rparam,??,?,0
     3                           	opt	pw 120
     4                           	opt	flic
     5                           	psect	idataCOMRAM,global,class=CODE,delta=1,noexec
     6                           	psect	idataBANK0,global,class=CODE,delta=1,noexec
     7                           	psect	smallconst,global,reloc=2,class=SMALLCONST,delta=1,noexec
     8                           	psect	nvCOMRAM,global,class=COMRAM,space=1,delta=1,noexec
     9                           	psect	cinit,global,reloc=2,class=CODE,delta=1
    10                           	psect	bitbssCOMRAM,global,bit,class=COMRAM,space=1,delta=1,noexec
    11                           	psect	bssCOMRAM,global,class=COMRAM,space=1,delta=1,noexec
    12                           	psect	dataCOMRAM,global,class=COMRAM,space=1,delta=1,noexec
    13                           	psect	bssBANK0,global,class=BANK0,space=1,delta=1,lowdata,noexec
    14                           	psect	dataBANK0,global,class=BANK0,space=1,delta=1,lowdata,noexec
    15                           	psect	cstackBANK0,global,class=BANK0,space=1,delta=1,noexec
    16                           	psect	cstackCOMRAM,global,class=COMRAM,space=1,delta=1,noexec
    17                           	psect	text0,global,reloc=2,class=CODE,delta=1
    18                           	psect	text1,global,reloc=2,class=CODE,delta=1
    19                           	psect	text2,global,reloc=2,class=CODE,delta=1
    20                           	psect	text3,global,reloc=2,class=CODE,delta=1,group=1
    21                           	psect	text4,global,reloc=2,class=CODE,delta=1
    22                           	psect	text5,global,reloc=2,class=CODE,delta=1
    23                           	psect	text6,global,reloc=2,class=CODE,delta=1,group=1
    24                           	psect	text7,global,reloc=2,class=CODE,delta=1,group=1
    25                           	psect	text8,global,reloc=2,class=CODE,delta=1,group=2
    26                           	psect	text9,global,reloc=2,class=CODE,delta=1,group=2
    27                           	psect	text10,global,reloc=2,class=CODE,delta=1,group=1
    28                           	psect	text11,global,reloc=2,class=CODE,delta=1,group=1
    29                           	psect	text12,global,reloc=2,class=CODE,delta=1,group=1
    30                           	psect	text13,global,reloc=2,class=CODE,delta=1,group=1
    31                           	psect	text14,global,reloc=2,class=CODE,delta=1,group=1
    32                           	psect	text15,global,reloc=2,class=CODE,delta=1,group=1
    33                           	psect	text16,global,reloc=2,class=CODE,delta=1
    34                           	psect	text17,global,reloc=2,class=CODE,delta=1,group=2
    35                           	psect	text18,global,reloc=2,class=CODE,delta=1
    36                           	psect	text19,global,reloc=2,class=CODE,delta=1
    37                           	psect	text20,global,reloc=2,class=CODE,delta=1
    38                           	psect	text21,global,reloc=2,class=CODE,delta=1
    39                           	psect	text22,global,reloc=2,class=CODE,delta=1
    40                           	psect	text23,global,reloc=2,class=CODE,delta=1
    41                           	psect	text24,global,reloc=2,class=CODE,delta=1
    42                           	psect	text25,global,reloc=2,class=CODE,delta=1
    43                           	psect	text26,global,reloc=2,class=CODE,delta=1
    44                           	psect	text27,global,reloc=2,class=CODE,delta=1
    45                           	psect	text28,global,reloc=2,class=CODE,delta=1
    46                           	psect	text29,global,reloc=2,class=CODE,delta=1
    47                           	psect	text30,global,reloc=2,class=CODE,delta=1,group=1
    48                           	psect	intcode,global,reloc=2,class=CODE,delta=1
    49                           	psect	intcode_body,global,reloc=2,class=CODE,delta=1
    50                           	psect	intsave_regs,global,class=BIGRAM,space=1,delta=1,noexec
    51                           	psect	rparam,global,class=COMRAM,space=1,delta=1,noexec
    52                           	psect	temp,global,ovrld,common,class=COMRAM,space=1,delta=1
    53  0000                     
    54                           ; Version 2.10
    55                           ; Generated 31/07/2019 GMT
    56                           ; 
    57                           ; Copyright © 2019, Microchip Technology Inc. and its subsidiaries ("Microchip")
    58                           ; All rights reserved.
    59                           ; 
    60                           ; This software is developed by Microchip Technology Inc. and its subsidiaries ("Microch
      +                          ip").
    61                           ; 
    62                           ; Redistribution and use in source and binary forms, with or without modification, are
    63                           ; permitted provided that the following conditions are met:
    64                           ; 
    65                           ;     1. Redistributions of source code must retain the above copyright notice, this lis
      +                          t of
    66                           ;        conditions and the following disclaimer.
    67                           ; 
    68                           ;     2. Redistributions in binary form must reproduce the above copyright notice, this 
      +                          list
    69                           ;        of conditions and the following disclaimer in the documentation and/or other
    70                           ;        materials provided with the distribution.
    71                           ; 
    72                           ;     3. Microchip's name may not be used to endorse or promote products derived from th
      +                          is
    73                           ;        software without specific prior written permission.
    74                           ; 
    75                           ; THIS SOFTWARE IS PROVIDED BY MICROCHIP "AS IS" AND ANY EXPRESS OR IMPLIED WARRANTIES,
    76                           ; INCLUDING, BUT NOT LIMITED TO, THE IMPLIED WARRANTIES OF MERCHANTABILITY AND FITNESS F
      +                          OR
    77                           ; PURPOSE ARE DISCLAIMED.  IN NO EVENT SHALL MICROCHIP BE LIABLE FOR ANY DIRECT, INDIREC
      +                          T,
    78                           ; INCIDENTAL, SPECIAL, EXEMPLARY, OR CONSEQUENTIAL DAMAGES (INCLUDING BUT NOT LIMITED TO
    79                           ; PROCUREMENT OF SUBSTITUTE GOODS OR SERVICES; LOSS OF USE, DATA OR PROFITS; OR BUSINESS
    80                           ; INTERRUPTION) HOWSOEVER CAUSED AND ON ANY THEORY OF LIABILITY, WHETHER IN CONTRACT, ST
      +                          RICT
    81                           ; LIABILITY, OR TORT (INCLUDING NEGLIGENCE OR OTHERWISE) ARISING IN ANY WAY OUT OF THE U
      +                          SE OF
    82                           ; THIS SOFTWARE, EVEN IF ADVISED OF THE POSSIBILITY OF SUCH DAMAGE.
    83                           ; 
    84                           ; 
    85                           ; Code-generator required, PIC18F4550 Definitions
    86                           ; 
    87                           ; SFR Addresses
    88  0000                     
    89                           	psect	idataCOMRAM
    90  003052                     __pidataCOMRAM:
    91                           	opt callstack 0
    92                           
    93                           ;initializer for _kp
    94  003052  0002               	dw	2
    95                           
    96                           ;initializer for _acceso
    97  003054  0002               	dw	2
    98                           
    99                           ;initializer for _v
   100  003056  0852               	dw	2130
   101                           
   102                           ;initializer for _contra
   103  003058  20                 	db	32
   104                           
   105                           ;initializer for _backlight_val
   106  003059  08                 	db	8
   107                           
   108                           	psect	idataBANK0
   109  003042                     __pidataBANK0:
   110                           	opt callstack 0
   111                           
   112                           ;initializer for _keypad
   113  003042  31                 	db	49
   114  003043  32                 	db	50
   115  003044  33                 	db	51
   116  003045  41                 	db	65
   117  003046  34                 	db	52
   118  003047  35                 	db	53
   119  003048  36                 	db	54
   120  003049  42                 	db	66
   121  00304A  37                 	db	55
   122  00304B  38                 	db	56
   123  00304C  39                 	db	57
   124  00304D  43                 	db	67
   125  00304E  20                 	db	32
   126  00304F  30                 	db	48
   127  003050  45                 	db	69
   128  003051  44                 	db	68
   129                           
   130                           	psect	smallconst
   131  000800                     __psmallconst:
   132                           	opt callstack 0
   133  000800  00                 	db	0
   134  000801                     _dpowers:
   135                           	opt callstack 0
   136  000801  0001               	dw	1
   137  000803  000A               	dw	10
   138  000805  0064               	dw	100
   139  000807  03E8               	dw	1000
   140  000809  2710               	dw	10000
   141  00080B                     __end_of_dpowers:
   142                           	opt callstack 0
   143  00080B                     STR_2:
   144  00080B  49                 	db	73	;'I'
   145  00080C  6E                 	db	110	;'n'
   146  00080D  67                 	db	103	;'g'
   147  00080E  72                 	db	114	;'r'
   148  00080F  65                 	db	101	;'e'
   149  000810  73                 	db	115	;'s'
   150  000811  65                 	db	101	;'e'
   151  000812  20                 	db	32
   152  000813  43                 	db	67	;'C'
   153  000814  6F                 	db	111	;'o'
   154  000815  6E                 	db	110	;'n'
   155  000816  74                 	db	116	;'t'
   156  000817  72                 	db	114	;'r'
   157  000818  61                 	db	97	;'a'
   158  000819  2E                 	db	46
   159  00081A  00                 	db	0
   160  00081B                     STR_23:
   161  00081B  41                 	db	65	;'A'
   162  00081C  3D                 	db	61	;'='
   163  00081D  41                 	db	65	;'A'
   164  00081E  55                 	db	85	;'U'
   165  00081F  54                 	db	84	;'T'
   166  000820  4F                 	db	79	;'O'
   167  000821  4D                 	db	77	;'M'
   168  000822  41                 	db	65	;'A'
   169  000823  54                 	db	84	;'T'
   170  000824  49                 	db	73	;'I'
   171  000825  43                 	db	67	;'C'
   172  000826  4F                 	db	79	;'O'
   173  000827  00                 	db	0
   174  000828                     STR_25:
   175  000828  41                 	db	65	;'A'
   176  000829  3D                 	db	61	;'='
   177  00082A  41                 	db	65	;'A'
   178  00082B  75                 	db	117	;'u'
   179  00082C  74                 	db	116	;'t'
   180  00082D  6F                 	db	111	;'o'
   181  00082E  6D                 	db	109	;'m'
   182  00082F  61                 	db	97	;'a'
   183  000830  74                 	db	116	;'t'
   184  000831  69                 	db	105	;'i'
   185  000832  63                 	db	99	;'c'
   186  000833  6F                 	db	111	;'o'
   187  000834  00                 	db	0
   188  000835                     STR_31:
   189  000835  50                 	db	80	;'P'
   190  000836  4F                 	db	79	;'O'
   191  000837  54                 	db	84	;'T'
   192  000838  2E                 	db	46
   193  000839  44                 	db	68	;'D'
   194  00083A  49                 	db	73	;'I'
   195  00083B  4D                 	db	77	;'M'
   196  00083C  4D                 	db	77	;'M'
   197  00083D  45                 	db	69	;'E'
   198  00083E  52                 	db	82	;'R'
   199  00083F  00                 	db	0
   200  000840                     STR_1:
   201  000840  42                 	db	66	;'B'
   202  000841  69                 	db	105	;'i'
   203  000842  65                 	db	101	;'e'
   204  000843  6E                 	db	110	;'n'
   205  000844  76                 	db	118	;'v'
   206  000845  65                 	db	101	;'e'
   207  000846  6E                 	db	110	;'n'
   208  000847  69                 	db	105	;'i'
   209  000848  64                 	db	100	;'d'
   210  000849  6F                 	db	111	;'o'
   211  00084A  00                 	db	0
   212  00084B                     STR_20:
   213  00084B  43                 	db	67	;'C'
   214  00084C  4F                 	db	79	;'O'
   215  00084D  4E                 	db	78	;'N'
   216  00084E  43                 	db	67	;'C'
   217  00084F  45                 	db	69	;'E'
   218  000850  44                 	db	68	;'D'
   219  000851  49                 	db	73	;'I'
   220  000852  44                 	db	68	;'D'
   221  000853  4F                 	db	79	;'O'
   222  000854  00                 	db	0
   223  000855                     STR_24:
   224  000855  42                 	db	66	;'B'
   225  000856  3D                 	db	61	;'='
   226  000857  4D                 	db	77	;'M'
   227  000858  41                 	db	65	;'A'
   228  000859  4E                 	db	78	;'N'
   229  00085A  55                 	db	85	;'U'
   230  00085B  41                 	db	65	;'A'
   231  00085C  4C                 	db	76	;'L'
   232  00085D  00                 	db	0
   233  00085E                     STR_22:
   234  00085E  44                 	db	68	;'D'
   235  00085F  45                 	db	69	;'E'
   236  000860  4E                 	db	78	;'N'
   237  000861  45                 	db	69	;'E'
   238  000862  47                 	db	71	;'G'
   239  000863  41                 	db	65	;'A'
   240  000864  44                 	db	68	;'D'
   241  000865  4F                 	db	79	;'O'
   242  000866  00                 	db	0
   243  000867                     STR_27:
   244  000867  53                 	db	83	;'S'
   245  000868  45                 	db	69	;'E'
   246  000869  54                 	db	84	;'T'
   247  00086A  50                 	db	80	;'P'
   248  00086B  4F                 	db	79	;'O'
   249  00086C  49                 	db	73	;'I'
   250  00086D  4E                 	db	78	;'N'
   251  00086E  54                 	db	84	;'T'
   252  00086F  00                 	db	0
   253  000870                     STR_26:
   254  000870  42                 	db	66	;'B'
   255  000871  3D                 	db	61	;'='
   256  000872  4D                 	db	77	;'M'
   257  000873  61                 	db	97	;'a'
   258  000874  6E                 	db	110	;'n'
   259  000875  75                 	db	117	;'u'
   260  000876  61                 	db	97	;'a'
   261  000877  6C                 	db	108	;'l'
   262  000878  00                 	db	0
   263  000879                     STR_19:
   264  000879  41                 	db	65	;'A'
   265  00087A  43                 	db	67	;'C'
   266  00087B  43                 	db	67	;'C'
   267  00087C  45                 	db	69	;'E'
   268  00087D  53                 	db	83	;'S'
   269  00087E  4F                 	db	79	;'O'
   270  00087F  00                 	db	0
   271  000880                     STR_28:
   272  000880  54                 	db	84	;'T'
   273  000881  45                 	db	69	;'E'
   274  000882  4D                 	db	77	;'M'
   275  000883  50                 	db	80	;'P'
   276  000884  2E                 	db	46
   277  000885  00                 	db	0
   278  000886                     STR_29:
   279  000886  25                 	db	37
   280  000887  64                 	db	100	;'d'
   281  000888  20                 	db	32
   282  000889  43                 	db	67	;'C'
   283  00088A  00                 	db	0
   284  00088B                     STR_34:
   285  00088B  25                 	db	37
   286  00088C  64                 	db	100	;'d'
   287  00088D  20                 	db	32
   288  00088E  00                 	db	0
   289  00088F                     STR_3:
   290  00088F  2A                 	db	42
   291  000890  00                 	db	0
   292  0000                     
   293                           ; #config settings
   294  000891  00                 	db	0	; dummy byte at the end
   295  0000                     
   296                           	psect	nvCOMRAM
   297  00005B                     __pnvCOMRAM:
   298                           	opt callstack 0
   299  00005B                     _i2c_addr:
   300                           	opt callstack 0
   301  00005B                     	ds	1
   302  0000                     _ADRES	set	4035
   303  0000                     _PORTD	set	3971
   304  0000                     _LATD	set	3980
   305  0000                     _TRISD	set	3989
   306  0000                     _SSPBUF	set	4041
   307  0000                     _SSPCON2	set	4037
   308  0000                     _SSPSTAT	set	4039
   309  0000                     _SSPADD	set	4040
   310  0000                     _SSPCON1	set	4038
   311  0000                     _ADCON0bits	set	4034
   312  0000                     _ADCON0	set	4034
   313  0000                     _ADCON2	set	4032
   314  0000                     _ADCON1	set	4033
   315  0000                     _TRISA	set	3986
   316  0000                     _LATBbits	set	3978
   317  0000                     _TRISBbits	set	3987
   318  0000                     _ACKEN	set	32300
   319  0000                     _ACKDT	set	32301
   320  0000                     _RCEN	set	32299
   321  0000                     _RSEN	set	32297
   322  0000                     _PEN	set	32298
   323  0000                     _SEN	set	32296
   324  0000                     _INT2IF	set	32641
   325  0000                     _GIE	set	32663
   326  0000                     _IPEN	set	32391
   327  0000                     _INT2IE	set	32644
   328  0000                     _INT2IP	set	32647
   329  0000                     _INTEDG2	set	32652
   330                           
   331                           	psect	cinit
   332  002CD6                     __pcinit:
   333                           	opt callstack 0
   334  002CD6                     start_initialization:
   335                           	opt callstack 0
   336  002CD6                     __initialization:
   337                           	opt callstack 0
   338                           
   339                           ; Initialize objects allocated to BANK0 (16 bytes)
   340                           ; load TBLPTR registers with __pidataBANK0
   341  002CD6  0E42               	movlw	low __pidataBANK0
   342  002CD8  6EF6               	movwf	tblptrl,c
   343  002CDA  0E30               	movlw	high __pidataBANK0
   344  002CDC  6EF7               	movwf	tblptrh,c
   345  002CDE  0E00               	movlw	low (__pidataBANK0 shr (0+16))
   346  002CE0  6EF8               	movwf	tblptru,c
   347  002CE2  EE00  F09A         	lfsr	0,__pdataBANK0
   348  002CE6  EE10 F010          	lfsr	1,16
   349  002CEA                     copy_data0:
   350  002CEA  0009               	tblrd		*+
   351  002CEC  CFF5 FFEE          	movff	tablat,postinc0
   352  002CF0  50E5               	movf	postdec1,w,c
   353  002CF2  50E1               	movf	fsr1l,w,c
   354  002CF4  E1FA               	bnz	copy_data0
   355                           
   356                           ; Initialize objects allocated to COMRAM (8 bytes)
   357                           ; load TBLPTR registers with __pidataCOMRAM
   358  002CF6  0E52               	movlw	low __pidataCOMRAM
   359  002CF8  6EF6               	movwf	tblptrl,c
   360  002CFA  0E30               	movlw	high __pidataCOMRAM
   361  002CFC  6EF7               	movwf	tblptrh,c
   362  002CFE  0E00               	movlw	low (__pidataCOMRAM shr (0+16))
   363  002D00  6EF8               	movwf	tblptru,c
   364  002D02  EE00  F053         	lfsr	0,__pdataCOMRAM
   365  002D06  EE10 F008          	lfsr	1,8
   366  002D0A                     copy_data1:
   367  002D0A  0009               	tblrd		*+
   368  002D0C  CFF5 FFEE          	movff	tablat,postinc0
   369  002D10  50E5               	movf	postdec1,w,c
   370  002D12  50E1               	movf	fsr1l,w,c
   371  002D14  E1FA               	bnz	copy_data1
   372                           
   373                           ; Clear objects allocated to BANK0 (58 bytes)
   374  002D16  EE00  F060         	lfsr	0,__pbssBANK0
   375  002D1A  0E3A               	movlw	58
   376  002D1C                     clear_0:
   377  002D1C  6AEE               	clrf	postinc0,c
   378  002D1E  06E8               	decf	wreg,f,c
   379  002D20  E1FD               	bnz	clear_0
   380                           
   381                           ; Clear objects allocated to BITCOMRAM (1 bytes)
   382  002D22  6A5C               	clrf	(__pbitbssCOMRAM/(0+8))& (0+255),c
   383                           
   384                           ; Clear objects allocated to COMRAM (30 bytes)
   385  002D24  EE00  F035         	lfsr	0,__pbssCOMRAM
   386  002D28  0E1E               	movlw	30
   387  002D2A                     clear_1:
   388  002D2A  6AEE               	clrf	postinc0,c
   389  002D2C  06E8               	decf	wreg,f,c
   390  002D2E  E1FD               	bnz	clear_1
   391  002D30                     end_of_initialization:
   392                           	opt callstack 0
   393  002D30                     __end_of__initialization:
   394                           	opt callstack 0
   395  002D30  905D               	bcf	int$flags,0,c	;clear compiler interrupt flag (level 1)
   396  002D32  925D               	bcf	int$flags,1,c	;clear compiler interrupt flag (level 2)
   397  002D34  0E00               	movlw	low (__Lmediumconst shr (0+16))
   398  002D36  6EF8               	movwf	tblptru,c
   399  002D38  0100               	movlb	0
   400  002D3A  EF44  F017         	goto	_main	;jump to C main() function
   401                           
   402                           	psect	bitbssCOMRAM
   403  0002E0                     __pbitbssCOMRAM:
   404                           	opt callstack 0
   405  0002E0                     _RS:
   406                           	opt callstack 0
   407  0002E0                     	ds	1
   408                           
   409                           	psect	bssCOMRAM
   410  000035                     __pbssCOMRAM:
   411                           	opt callstack 0
   412  000035                     _celsius:
   413                           	opt callstack 0
   414  000035                     	ds	4
   415  000039                     _I:
   416                           	opt callstack 0
   417  000039                     	ds	4
   418  00003D                     _error_total:
   419                           	opt callstack 0
   420  00003D                     	ds	2
   421  00003F                     _error:
   422                           	opt callstack 0
   423  00003F                     	ds	2
   424  000041                     _Tem_Act:
   425                           	opt callstack 0
   426  000041                     	ds	2
   427  000043                     _insp:
   428                           	opt callstack 0
   429  000043                     	ds	2
   430  000045                     _modo2:
   431                           	opt callstack 0
   432  000045                     	ds	2
   433  000047                     _incon:
   434                           	opt callstack 0
   435  000047                     	ds	2
   436  000049                     _i:
   437                           	opt callstack 0
   438  000049                     	ds	2
   439  00004B                     _tecla:
   440                           	opt callstack 0
   441  00004B                     	ds	1
   442  00004C                     _x:
   443                           	opt callstack 0
   444  00004C                     	ds	1
   445  00004D                     _lim:
   446                           	opt callstack 0
   447  00004D                     	ds	1
   448  00004E                     _temp_col:
   449                           	opt callstack 0
   450  00004E                     	ds	1
   451  00004F                     _rowloc:
   452                           	opt callstack 0
   453  00004F                     	ds	1
   454  000050                     _col_loc:
   455                           	opt callstack 0
   456  000050                     	ds	1
   457  000051                     _sp:
   458                           	opt callstack 0
   459  000051                     	ds	2
   460                           
   461                           	psect	dataCOMRAM
   462  000053                     __pdataCOMRAM:
   463                           	opt callstack 0
   464  000053                     _kp:
   465                           	opt callstack 0
   466  000053                     	ds	2
   467  000055                     _acceso:
   468                           	opt callstack 0
   469  000055                     	ds	2
   470  000057                     _v:
   471                           	opt callstack 0
   472  000057                     	ds	2
   473  000059                     _contra:
   474                           	opt callstack 0
   475  000059                     	ds	1
   476  00005A                     _backlight_val:
   477                           	opt callstack 0
   478  00005A                     	ds	1
   479                           
   480                           	psect	bssBANK0
   481  000060                     __pbssBANK0:
   482                           	opt callstack 0
   483  000060                     _pot:
   484                           	opt callstack 0
   485  000060                     	ds	4
   486  000064                     _potenciometro:
   487                           	opt callstack 0
   488  000064                     	ds	4
   489  000068                     _D:
   490                           	opt callstack 0
   491  000068                     	ds	4
   492  00006C                     _P:
   493                           	opt callstack 0
   494  00006C                     	ds	4
   495  000070                     _SetPoint:
   496                           	opt callstack 0
   497  000070                     	ds	4
   498  000074                     _contrasena:
   499                           	opt callstack 0
   500  000074                     	ds	4
   501  000078                     _text:
   502                           	opt callstack 0
   503  000078                     	ds	4
   504  00007C                     _error_past:
   505                           	opt callstack 0
   506  00007C                     	ds	2
   507  00007E                     _kd:
   508                           	opt callstack 0
   509  00007E                     	ds	2
   510  000080                     _ki:
   511                           	opt callstack 0
   512  000080                     	ds	2
   513  000082                     _Potencio:
   514                           	opt callstack 0
   515  000082                     	ds	10
   516  00008C                     _Temperatura:
   517                           	opt callstack 0
   518  00008C                     	ds	10
   519  000096                     _contras:
   520                           	opt callstack 0
   521  000096                     	ds	4
   522                           
   523                           	psect	dataBANK0
   524  00009A                     __pdataBANK0:
   525                           	opt callstack 0
   526  00009A                     _keypad:
   527                           	opt callstack 0
   528  00009A                     	ds	16
   529                           
   530                           	psect	cstackBANK0
   531  0000AA                     __pcstackBANK0:
   532                           	opt callstack 0
   533  0000AA                     ??_modo:
   534                           
   535                           ; 1 bytes @ 0x0
   536  0000AA                     	ds	2
   537                           
   538                           	psect	cstackCOMRAM
   539  000001                     __pcstackCOMRAM:
   540                           	opt callstack 0
   541  000001                     ??_INT2ISR:
   542  000001                     
   543                           ; 1 bytes @ 0x0
   544  000001                     	ds	1
   545  000002                     ??_isdigit:
   546  000002                     ??_I2C_Start:
   547  000002                     ??_I2C_Stop:
   548  000002                     ??_I2C_Write:
   549  000002                     ?___lwdiv:
   550                           	opt callstack 0
   551  000002                     ?___flmul:
   552                           	opt callstack 0
   553  000002                     ?___lmul:
   554                           	opt callstack 0
   555  000002                     ?___lldiv:
   556                           	opt callstack 0
   557  000002                     ?___fltol:
   558                           	opt callstack 0
   559  000002                     ?___xxtofl:
   560                           	opt callstack 0
   561  000002                     ___lwdiv@dividend:
   562                           	opt callstack 0
   563  000002                     memset@p1:
   564                           	opt callstack 0
   565  000002                     ___lmul@multiplier:
   566                           	opt callstack 0
   567  000002                     ___lldiv@dividend:
   568                           	opt callstack 0
   569  000002                     ___fltol@f1:
   570                           	opt callstack 0
   571  000002                     ___flmul@b:
   572                           	opt callstack 0
   573  000002                     ___xxtofl@val:
   574                           	opt callstack 0
   575                           
   576                           ; 4 bytes @ 0x1
   577  000002                     	ds	1
   578  000003                     I2C_Write@i2c_data:
   579                           	opt callstack 0
   580  000003                     _isdigit$905:
   581                           	opt callstack 0
   582                           
   583                           ; 1 bytes @ 0x2
   584  000003                     	ds	1
   585  000004                     Expander_Write@value:
   586                           	opt callstack 0
   587  000004                     isdigit@c:
   588                           	opt callstack 0
   589  000004                     ___lwdiv@divisor:
   590                           	opt callstack 0
   591  000004                     memset@c:
   592                           	opt callstack 0
   593                           
   594                           ; 2 bytes @ 0x3
   595  000004                     	ds	1
   596  000005                     LCD_Write_Nibble@n:
   597                           	opt callstack 0
   598                           
   599                           ; 1 bytes @ 0x4
   600  000005                     	ds	1
   601  000006                     ??_LCD_Cmd:
   602  000006                     ??___fltol:
   603  000006                     ??___xxtofl:
   604  000006                     LCD_PutC@LCD_Char:
   605                           	opt callstack 0
   606  000006                     LCD_Print@LCD_Str:
   607                           	opt callstack 0
   608  000006                     ___lwdiv@quotient:
   609                           	opt callstack 0
   610  000006                     memset@n:
   611                           	opt callstack 0
   612  000006                     ___lmul@multiplicand:
   613                           	opt callstack 0
   614  000006                     ___lldiv@divisor:
   615                           	opt callstack 0
   616  000006                     ___flmul@a:
   617                           	opt callstack 0
   618                           
   619                           ; 4 bytes @ 0x5
   620  000006                     	ds	1
   621  000007                     ??_keyfind:
   622  000007                     LCD_Cmd@Command:
   623                           	opt callstack 0
   624                           
   625                           ; 1 bytes @ 0x6
   626  000007                     	ds	1
   627  000008                     ??_LCD_Begin:
   628  000008                     ??_LCD_Print:
   629  000008                     LCD_Goto@row:
   630                           	opt callstack 0
   631  000008                     ___lwdiv@counter:
   632                           	opt callstack 0
   633  000008                     memset@p:
   634                           	opt callstack 0
   635                           
   636                           ; 2 bytes @ 0x7
   637  000008                     	ds	1
   638  000009                     ??_LCD_Goto:
   639  000009                     ?___lwmod:
   640                           	opt callstack 0
   641  000009                     ___lwmod@dividend:
   642                           	opt callstack 0
   643                           
   644                           ; 2 bytes @ 0x8
   645  000009                     	ds	1
   646  00000A                     ??___flmul:
   647  00000A                     LCD_Begin@_i2c_addr:
   648                           	opt callstack 0
   649  00000A                     ___fltol@sign1:
   650                           	opt callstack 0
   651  00000A                     ___xxtofl@sign:
   652                           	opt callstack 0
   653  00000A                     ___lmul@product:
   654                           	opt callstack 0
   655  00000A                     ___lldiv@quotient:
   656                           	opt callstack 0
   657                           
   658                           ; 4 bytes @ 0x9
   659  00000A                     	ds	1
   660  00000B                     LCD_Goto@col:
   661                           	opt callstack 0
   662  00000B                     LCD_Print@i:
   663                           	opt callstack 0
   664  00000B                     ___fltol@exp1:
   665                           	opt callstack 0
   666  00000B                     ___xxtofl@exp:
   667                           	opt callstack 0
   668  00000B                     ___lwmod@divisor:
   669                           	opt callstack 0
   670                           
   671                           ; 2 bytes @ 0xA
   672  00000B                     	ds	1
   673  00000C                     ??_bienv_cont:
   674  00000C                     ?___wmul:
   675                           	opt callstack 0
   676  00000C                     ___wmul@multiplier:
   677                           	opt callstack 0
   678  00000C                     ___xxtofl@arg:
   679                           	opt callstack 0
   680                           
   681                           ; 4 bytes @ 0xB
   682  00000C                     	ds	1
   683  00000D                     ___lwmod@counter:
   684                           	opt callstack 0
   685                           
   686                           ; 1 bytes @ 0xC
   687  00000D                     	ds	1
   688  00000E                     ?_atol:
   689                           	opt callstack 0
   690  00000E                     ___lldiv@counter:
   691                           	opt callstack 0
   692  00000E                     ___flmul@sign:
   693                           	opt callstack 0
   694  00000E                     ___wmul@multiplicand:
   695                           	opt callstack 0
   696  00000E                     atol@s:
   697                           	opt callstack 0
   698                           
   699                           ; 2 bytes @ 0xD
   700  00000E                     	ds	1
   701  00000F                     I2C_Init@i2c_clk_freq:
   702                           	opt callstack 0
   703  00000F                     ___flmul@grs:
   704                           	opt callstack 0
   705                           
   706                           ; 4 bytes @ 0xE
   707  00000F                     	ds	1
   708  000010                     ___wmul@product:
   709                           	opt callstack 0
   710                           
   711                           ; 2 bytes @ 0xF
   712  000010                     	ds	2
   713  000012                     ??_atol:
   714  000012                     ?___awdiv:
   715                           	opt callstack 0
   716  000012                     ___awdiv@dividend:
   717                           	opt callstack 0
   718                           
   719                           ; 2 bytes @ 0x11
   720  000012                     	ds	1
   721  000013                     ??_I2C_Init:
   722  000013                     ___flmul@aexp:
   723                           	opt callstack 0
   724                           
   725                           ; 1 bytes @ 0x12
   726  000013                     	ds	1
   727  000014                     ___flmul@bexp:
   728                           	opt callstack 0
   729  000014                     ___awdiv@divisor:
   730                           	opt callstack 0
   731                           
   732                           ; 2 bytes @ 0x13
   733  000014                     	ds	1
   734  000015                     ___flmul@prod:
   735                           	opt callstack 0
   736                           
   737                           ; 4 bytes @ 0x14
   738  000015                     	ds	1
   739  000016                     ___awdiv@counter:
   740                           	opt callstack 0
   741  000016                     atol@sign:
   742                           	opt callstack 0
   743                           
   744                           ; 1 bytes @ 0x15
   745  000016                     	ds	1
   746  000017                     ___awdiv@sign:
   747                           	opt callstack 0
   748  000017                     atol@a:
   749                           	opt callstack 0
   750                           
   751                           ; 4 bytes @ 0x16
   752  000017                     	ds	1
   753  000018                     ___awdiv@quotient:
   754                           	opt callstack 0
   755                           
   756                           ; 2 bytes @ 0x17
   757  000018                     	ds	1
   758  000019                     ___flmul@temp:
   759                           	opt callstack 0
   760                           
   761                           ; 2 bytes @ 0x18
   762  000019                     	ds	1
   763  00001A                     ?_sprintf:
   764                           	opt callstack 0
   765  00001A                     sprintf@sp:
   766                           	opt callstack 0
   767                           
   768                           ; 2 bytes @ 0x19
   769  00001A                     	ds	1
   770  00001B                     ?___fldiv:
   771                           	opt callstack 0
   772  00001B                     atol@c:
   773                           	opt callstack 0
   774  00001B                     ___fldiv@b:
   775                           	opt callstack 0
   776                           
   777                           ; 4 bytes @ 0x1A
   778  00001B                     	ds	1
   779  00001C                     sprintf@f:
   780                           	opt callstack 0
   781                           
   782                           ; 2 bytes @ 0x1B
   783  00001C                     	ds	3
   784  00001F                     ___fldiv@a:
   785                           	opt callstack 0
   786                           
   787                           ; 4 bytes @ 0x1E
   788  00001F                     	ds	1
   789  000020                     ??_sprintf:
   790                           
   791                           ; 1 bytes @ 0x1F
   792  000020                     	ds	2
   793  000022                     sprintf@ap:
   794                           	opt callstack 0
   795                           
   796                           ; 2 bytes @ 0x21
   797  000022                     	ds	1
   798  000023                     ??___fldiv:
   799                           
   800                           ; 1 bytes @ 0x22
   801  000023                     	ds	1
   802  000024                     sprintf@flag:
   803                           	opt callstack 0
   804                           
   805                           ; 1 bytes @ 0x23
   806  000024                     	ds	1
   807  000025                     sprintf@prec:
   808                           	opt callstack 0
   809                           
   810                           ; 1 bytes @ 0x24
   811  000025                     	ds	1
   812  000026                     sprintf@val:
   813                           	opt callstack 0
   814                           
   815                           ; 2 bytes @ 0x25
   816  000026                     	ds	1
   817  000027                     ___fldiv@rem:
   818                           	opt callstack 0
   819                           
   820                           ; 4 bytes @ 0x26
   821  000027                     	ds	1
   822  000028                     sprintf@c:
   823                           	opt callstack 0
   824                           
   825                           ; 1 bytes @ 0x27
   826  000028                     	ds	3
   827  00002B                     ___fldiv@sign:
   828                           	opt callstack 0
   829                           
   830                           ; 1 bytes @ 0x2A
   831  00002B                     	ds	1
   832  00002C                     ___fldiv@new_exp:
   833                           	opt callstack 0
   834                           
   835                           ; 2 bytes @ 0x2B
   836  00002C                     	ds	2
   837  00002E                     ___fldiv@grs:
   838                           	opt callstack 0
   839                           
   840                           ; 4 bytes @ 0x2D
   841  00002E                     	ds	4
   842  000032                     ___fldiv@bexp:
   843                           	opt callstack 0
   844                           
   845                           ; 1 bytes @ 0x31
   846  000032                     	ds	1
   847  000033                     ___fldiv@aexp:
   848                           	opt callstack 0
   849                           
   850                           ; 1 bytes @ 0x32
   851  000033                     	ds	1
   852  000034                     ??_automatic:
   853  000034                     
   854                           ; 1 bytes @ 0x33
   855  000034                     	ds	1
   856  000035                     
   857                           ; 1 bytes @ 0x34
   858 ;;
   859 ;;Main: autosize = 0, tempsize = 0, incstack = 0, save=0
   860 ;;
   861 ;; *************** function _main *****************
   862 ;; Defined at:
   863 ;;		line 137 in file "main.c"
   864 ;; Parameters:    Size  Location     Type
   865 ;;		None
   866 ;; Auto vars:     Size  Location     Type
   867 ;;		None
   868 ;; Return value:  Size  Location     Type
   869 ;;                  1    wreg      void 
   870 ;; Registers used:
   871 ;;		wreg, fsr0l, fsr0h, fsr2l, fsr2h, status,2, status,0, tblptrl, tblptrh, tblptru, prodl, prodh, cstack
   872 ;; Tracked objects:
   873 ;;		On entry : 0/0
   874 ;;		On exit  : 0/0
   875 ;;		Unchanged: 0/0
   876 ;; Data sizes:     COMRAM   BANK0   BANK1   BANK2   BANK3   BANK4   BANK5   BANK6   BANK7
   877 ;;      Params:         0       0       0       0       0       0       0       0       0
   878 ;;      Locals:         0       0       0       0       0       0       0       0       0
   879 ;;      Temps:          0       0       0       0       0       0       0       0       0
   880 ;;      Totals:         0       0       0       0       0       0       0       0       0
   881 ;;Total ram usage:        0 bytes
   882 ;; Hardware stack levels required when called:    8
   883 ;; This function calls:
   884 ;;		_I2C_Init
   885 ;;		_LCD_Begin
   886 ;;		_bienv_cont
   887 ;;		_modo
   888 ;; This function is called by:
   889 ;;		Startup code after reset
   890 ;; This function uses a non-reentrant model
   891 ;;
   892                           
   893                           	psect	text0
   894  002E88                     __ptext0:
   895                           	opt callstack 0
   896  002E88                     _main:
   897                           	opt callstack 23
   898  002E88                     
   899                           ;main.c: 140:     TRISBbits.RB3 = 0 ;
   900  002E88  9693               	bcf	147,3,c	;volatile
   901                           
   902                           ;main.c: 141:     LATBbits.LATB3 = 0;
   903  002E8A  968A               	bcf	138,3,c	;volatile
   904                           
   905                           ;main.c: 143:     INTEDG2 = 1;
   906  002E8C  88F1               	bsf	4081,4,c	;volatile
   907                           
   908                           ;main.c: 144:     INT2IP = 1;
   909  002E8E  8EF0               	bsf	4080,7,c	;volatile
   910                           
   911                           ;main.c: 145:     INT2IE = 0;
   912  002E90  98F0               	bcf	4080,4,c	;volatile
   913                           
   914                           ;main.c: 146:     IPEN = 0;
   915  002E92  9ED0               	bcf	4048,7,c	;volatile
   916                           
   917                           ;main.c: 147:     GIE = 1;
   918  002E94  8EF2               	bsf	4082,7,c	;volatile
   919  002E96                     
   920                           ;main.c: 151:     TRISA = 0x03;
   921  002E96  0E03               	movlw	3
   922  002E98  6E92               	movwf	146,c	;volatile
   923                           
   924                           ;main.c: 152:     ADCON1 = 0x0D;
   925  002E9A  0E0D               	movlw	13
   926  002E9C  6EC1               	movwf	193,c	;volatile
   927                           
   928                           ;main.c: 153:     ADCON2 = 0x9D;
   929  002E9E  0E9D               	movlw	157
   930  002EA0  6EC0               	movwf	192,c	;volatile
   931  002EA2                     
   932                           ;main.c: 160:     I2C_Init(100000);
   933  002EA2  0EA0               	movlw	160
   934  002EA4  6E0F               	movwf	I2C_Init@i2c_clk_freq^0,c
   935  002EA6  0E86               	movlw	134
   936  002EA8  6E10               	movwf	(I2C_Init@i2c_clk_freq+1)^0,c
   937  002EAA  0E01               	movlw	1
   938  002EAC  6E11               	movwf	(I2C_Init@i2c_clk_freq+2)^0,c
   939  002EAE  0E00               	movlw	0
   940  002EB0  6E12               	movwf	(I2C_Init@i2c_clk_freq+3)^0,c
   941  002EB2  ECD1  F016         	call	_I2C_Init	;wreg free
   942  002EB6                     
   943                           ;main.c: 161:     LCD_Begin(0x4E);
   944  002EB6  0E4E               	movlw	78
   945  002EB8  EC42  F014         	call	_LCD_Begin
   946  002EBC                     
   947                           ;main.c: 163:     bienv_cont();
   948  002EBC  EC49  F004         	call	_bienv_cont	;wreg free
   949  002EC0                     
   950                           ;main.c: 164:     modo();
   951  002EC0  EC81  F012         	call	_modo	;wreg free
   952  002EC4                     l135:
   953  002EC4  EF62  F017         	goto	l135
   954  002EC8  EF07  F000         	goto	start
   955  002ECC                     __end_of_main:
   956                           	opt callstack 0
   957                           
   958 ;; *************** function _modo *****************
   959 ;; Defined at:
   960 ;;		line 395 in file "main.c"
   961 ;; Parameters:    Size  Location     Type
   962 ;;		None
   963 ;; Auto vars:     Size  Location     Type
   964 ;;		None
   965 ;; Return value:  Size  Location     Type
   966 ;;                  1    wreg      void 
   967 ;; Registers used:
   968 ;;		wreg, fsr0l, fsr0h, fsr2l, fsr2h, status,2, status,0, tblptrl, tblptrh, tblptru, prodl, prodh, cstack
   969 ;; Tracked objects:
   970 ;;		On entry : 0/0
   971 ;;		On exit  : 0/0
   972 ;;		Unchanged: 0/0
   973 ;; Data sizes:     COMRAM   BANK0   BANK1   BANK2   BANK3   BANK4   BANK5   BANK6   BANK7
   974 ;;      Params:         0       0       0       0       0       0       0       0       0
   975 ;;      Locals:         0       0       0       0       0       0       0       0       0
   976 ;;      Temps:          0       2       0       0       0       0       0       0       0
   977 ;;      Totals:         0       2       0       0       0       0       0       0       0
   978 ;;Total ram usage:        2 bytes
   979 ;; Hardware stack levels used:    1
   980 ;; Hardware stack levels required when called:    7
   981 ;; This function calls:
   982 ;;		_LCD_Cmd
   983 ;;		_LCD_Goto
   984 ;;		_LCD_Print
   985 ;;		_automatic
   986 ;;		_keyfind
   987 ;;		_manual
   988 ;; This function is called by:
   989 ;;		_main
   990 ;; This function uses a non-reentrant model
   991 ;;
   992                           
   993                           	psect	text1
   994  002502                     __ptext1:
   995                           	opt callstack 0
   996  002502                     _modo:
   997                           	opt callstack 23
   998  002502                     
   999                           ;main.c: 396:     LCD_Goto(1,1);
  1000  002502  0E01               	movlw	1
  1001  002504  6E08               	movwf	LCD_Goto@row^0,c
  1002  002506  0E01               	movlw	1
  1003  002508  EC36  F016         	call	_LCD_Goto
  1004  00250C                     
  1005                           ;main.c: 397:     LCD_Print("A=AUTOMATICO");
  1006  00250C  0E1B               	movlw	low STR_23
  1007  00250E  6E06               	movwf	LCD_Print@LCD_Str^0,c
  1008  002510  0E08               	movlw	high STR_23
  1009  002512  6E07               	movwf	(LCD_Print@LCD_Str+1)^0,c
  1010  002514  EC1B  F015         	call	_LCD_Print	;wreg free
  1011  002518                     
  1012                           ;main.c: 398:     LCD_Goto(1,2);
  1013  002518  0E02               	movlw	2
  1014  00251A  6E08               	movwf	LCD_Goto@row^0,c
  1015  00251C  0E01               	movlw	1
  1016  00251E  EC36  F016         	call	_LCD_Goto
  1017                           
  1018                           ;main.c: 399:     LCD_Print("B=MANUAL");
  1019  002522  0E55               	movlw	low STR_24
  1020  002524  6E06               	movwf	LCD_Print@LCD_Str^0,c
  1021  002526  0E08               	movlw	high STR_24
  1022  002528  6E07               	movwf	(LCD_Print@LCD_Str+1)^0,c
  1023  00252A  EC1B  F015         	call	_LCD_Print	;wreg free
  1024  00252E                     
  1025                           ;main.c: 400:     _delay((unsigned long)((50)*(20000000/4000.0)));
  1026  00252E  0E02               	movlw	2
  1027  002530  0100               	movlb	0	; () banked
  1028  002532  6FAB               	movwf	(??_modo+1)& (0+255),b
  1029  002534  0E45               	movlw	69
  1030  002536  6FAA               	movwf	??_modo& (0+255),b
  1031  002538  0EA9               	movlw	169
  1032  00253A                     u4487:
  1033  00253A  2EE8               	decfsz	wreg,f,c
  1034  00253C  D7FE               	bra	u4487
  1035  00253E  2FAA               	decfsz	??_modo& (0+255),f,b
  1036  002540  D7FC               	bra	u4487
  1037  002542  2FAB               	decfsz	(??_modo+1)& (0+255),f,b
  1038  002544  D7FA               	bra	u4487
  1039  002546  D000               	nop2	
  1040  002548                     l4269:
  1041                           
  1042                           ;main.c: 403:         tecla = keyfind();
  1043  002548  EC5F  F00F         	call	_keyfind	;wreg free
  1044  00254C  6E4B               	movwf	_tecla^0,c
  1045  00254E                     
  1046                           ;main.c: 404:         _delay((unsigned long)((30)*(20000000/4000.0)));
  1047  00254E  0EC3               	movlw	195
  1048  002550  0100               	movlb	0	; () banked
  1049  002552  6FAA               	movwf	??_modo& (0+255),b
  1050  002554  0ECD               	movlw	205
  1051  002556                     u4497:
  1052  002556  2EE8               	decfsz	wreg,f,c
  1053  002558  D7FE               	bra	u4497
  1054  00255A  2FAA               	decfsz	??_modo& (0+255),f,b
  1055  00255C  D7FC               	bra	u4497
  1056  00255E                     
  1057                           ;main.c: 405:         if(tecla!=' '){
  1058  00255E  0E20               	movlw	32
  1059  002560  184B               	xorwf	_tecla^0,w,c
  1060  002562  B4D8               	btfsc	status,2,c
  1061  002564  EFB6  F012         	goto	u4431
  1062  002568  EFB8  F012         	goto	u4430
  1063  00256C                     u4431:
  1064  00256C  EFA4  F012         	goto	l4269
  1065  002570                     u4430:
  1066  002570                     
  1067                           ;main.c: 406:             if (tecla == 'A'){
  1068  002570  0E41               	movlw	65
  1069  002572  184B               	xorwf	_tecla^0,w,c
  1070  002574  A4D8               	btfss	status,2,c
  1071  002576  EFBF  F012         	goto	u4441
  1072  00257A  EFC1  F012         	goto	u4440
  1073  00257E                     u4441:
  1074  00257E  EFE2  F012         	goto	l4287
  1075  002582                     u4440:
  1076  002582                     
  1077                           ;main.c: 407:                 LCD_Cmd(0x01);
  1078  002582  0E01               	movlw	1
  1079  002584  EC20  F017         	call	_LCD_Cmd
  1080                           
  1081                           ;main.c: 408:                 LCD_Goto(1,1);
  1082  002588  0E01               	movlw	1
  1083  00258A  6E08               	movwf	LCD_Goto@row^0,c
  1084  00258C  0E01               	movlw	1
  1085  00258E  EC36  F016         	call	_LCD_Goto
  1086  002592                     
  1087                           ;main.c: 409:                 LCD_Print("A=Automatico");
  1088  002592  0E28               	movlw	low STR_25
  1089  002594  6E06               	movwf	LCD_Print@LCD_Str^0,c
  1090  002596  0E08               	movlw	high STR_25
  1091  002598  6E07               	movwf	(LCD_Print@LCD_Str+1)^0,c
  1092  00259A  EC1B  F015         	call	_LCD_Print	;wreg free
  1093  00259E                     
  1094                           ;main.c: 410:                 modo2 = 1;
  1095  00259E  0E00               	movlw	0
  1096  0025A0  6E46               	movwf	(_modo2+1)^0,c
  1097  0025A2  0E01               	movlw	1
  1098  0025A4  6E45               	movwf	_modo2^0,c
  1099  0025A6                     l4283:
  1100                           
  1101                           ;main.c: 411:                 _delay((unsigned long)((1000)*(20000000/4000.0)));
  1102  0025A6  0E1A               	movlw	26
  1103  0025A8  0100               	movlb	0	; () banked
  1104  0025AA  6FAB               	movwf	(??_modo+1)& (0+255),b
  1105  0025AC  0E5E               	movlw	94
  1106  0025AE  6FAA               	movwf	??_modo& (0+255),b
  1107  0025B0  0E6E               	movlw	110
  1108  0025B2                     u4507:
  1109  0025B2  2EE8               	decfsz	wreg,f,c
  1110  0025B4  D7FE               	bra	u4507
  1111  0025B6  2FAA               	decfsz	??_modo& (0+255),f,b
  1112  0025B8  D7FC               	bra	u4507
  1113  0025BA  2FAB               	decfsz	(??_modo+1)& (0+255),f,b
  1114  0025BC  D7FA               	bra	u4507
  1115  0025BE  F000               	nop	
  1116                           
  1117                           ;main.c: 412:                 break;
  1118  0025C0  EF01  F013         	goto	l4297
  1119  0025C4                     l4287:
  1120  0025C4  0E42               	movlw	66
  1121  0025C6  184B               	xorwf	_tecla^0,w,c
  1122  0025C8  A4D8               	btfss	status,2,c
  1123  0025CA  EFE9  F012         	goto	u4451
  1124  0025CE  EFEB  F012         	goto	u4450
  1125  0025D2                     u4451:
  1126  0025D2  EFFF  F012         	goto	l203
  1127  0025D6                     u4450:
  1128  0025D6                     
  1129                           ;main.c: 415:                 LCD_Cmd(0x01);
  1130  0025D6  0E01               	movlw	1
  1131  0025D8  EC20  F017         	call	_LCD_Cmd
  1132                           
  1133                           ;main.c: 416:                 LCD_Goto(1,1);
  1134  0025DC  0E01               	movlw	1
  1135  0025DE  6E08               	movwf	LCD_Goto@row^0,c
  1136  0025E0  0E01               	movlw	1
  1137  0025E2  EC36  F016         	call	_LCD_Goto
  1138  0025E6                     
  1139                           ;main.c: 417:                 LCD_Print("B=Manual");
  1140  0025E6  0E70               	movlw	low STR_26
  1141  0025E8  6E06               	movwf	LCD_Print@LCD_Str^0,c
  1142  0025EA  0E08               	movlw	high STR_26
  1143  0025EC  6E07               	movwf	(LCD_Print@LCD_Str+1)^0,c
  1144  0025EE  EC1B  F015         	call	_LCD_Print	;wreg free
  1145  0025F2                     
  1146                           ;main.c: 418:                 modo2 = 2;
  1147  0025F2  0E00               	movlw	0
  1148  0025F4  6E46               	movwf	(_modo2+1)^0,c
  1149  0025F6  0E02               	movlw	2
  1150  0025F8  6E45               	movwf	_modo2^0,c
  1151  0025FA  EFD3  F012         	goto	l4283
  1152  0025FE                     l203:
  1153  0025FE  EFA4  F012         	goto	l4269
  1154  002602                     l4297:
  1155                           
  1156                           ;main.c: 425:     tecla=' ';
  1157  002602  0E20               	movlw	32
  1158  002604  6E4B               	movwf	_tecla^0,c
  1159  002606                     
  1160                           ;main.c: 426:     LCD_Cmd(0x01);
  1161  002606  0E01               	movlw	1
  1162  002608  EC20  F017         	call	_LCD_Cmd
  1163  00260C                     l4301:
  1164                           
  1165                           ;main.c: 429:         if (modo2 == 1){
  1166  00260C  0445               	decf	_modo2^0,w,c
  1167  00260E  1046               	iorwf	(_modo2+1)^0,w,c
  1168  002610  A4D8               	btfss	status,2,c
  1169  002612  EF0D  F013         	goto	u4461
  1170  002616  EF0F  F013         	goto	u4460
  1171  00261A                     u4461:
  1172  00261A  EF13  F013         	goto	l4305
  1173  00261E                     u4460:
  1174  00261E                     
  1175                           ;main.c: 430:            automatic();
  1176  00261E  ECB2  F00D         	call	_automatic	;wreg free
  1177                           
  1178                           ;main.c: 431:         }
  1179  002622  EF06  F013         	goto	l4301
  1180  002626                     l4305:
  1181  002626  0E02               	movlw	2
  1182  002628  1845               	xorwf	_modo2^0,w,c
  1183  00262A  1046               	iorwf	(_modo2+1)^0,w,c
  1184  00262C  A4D8               	btfss	status,2,c
  1185  00262E  EF1B  F013         	goto	u4471
  1186  002632  EF1D  F013         	goto	u4470
  1187  002636                     u4471:
  1188  002636  EF06  F013         	goto	l4301
  1189  00263A                     u4470:
  1190  00263A                     
  1191                           ;main.c: 433:            manual();
  1192  00263A  EC9E  F007         	call	_manual	;wreg free
  1193  00263E  EF06  F013         	goto	l4301
  1194  002642  0012               	return		;funcret
  1195  002644                     __end_of_modo:
  1196                           	opt callstack 0
  1197                           
  1198 ;; *************** function _manual *****************
  1199 ;; Defined at:
  1200 ;;		line 511 in file "main.c"
  1201 ;; Parameters:    Size  Location     Type
  1202 ;;		None
  1203 ;; Auto vars:     Size  Location     Type
  1204 ;;		None
  1205 ;; Return value:  Size  Location     Type
  1206 ;;                  1    wreg      void 
  1207 ;; Registers used:
  1208 ;;		wreg, fsr0l, fsr0h, fsr2l, fsr2h, status,2, status,0, tblptrl, tblptrh, tblptru, prodl, prodh, cstack
  1209 ;; Tracked objects:
  1210 ;;		On entry : 0/0
  1211 ;;		On exit  : 0/0
  1212 ;;		Unchanged: 0/0
  1213 ;; Data sizes:     COMRAM   BANK0   BANK1   BANK2   BANK3   BANK4   BANK5   BANK6   BANK7
  1214 ;;      Params:         0       0       0       0       0       0       0       0       0
  1215 ;;      Locals:         0       0       0       0       0       0       0       0       0
  1216 ;;      Temps:          0       0       0       0       0       0       0       0       0
  1217 ;;      Totals:         0       0       0       0       0       0       0       0       0
  1218 ;;Total ram usage:        0 bytes
  1219 ;; Hardware stack levels used:    1
  1220 ;; Hardware stack levels required when called:    6
  1221 ;; This function calls:
  1222 ;;		_LCD_Goto
  1223 ;;		_LCD_Print
  1224 ;;		___awdiv
  1225 ;;		___fldiv
  1226 ;;		___flmul
  1227 ;;		___fltol
  1228 ;;		___wmul
  1229 ;;		___xxtofl
  1230 ;;		_sprintf
  1231 ;; This function is called by:
  1232 ;;		_modo
  1233 ;; This function uses a non-reentrant model
  1234 ;;
  1235                           
  1236                           	psect	text2
  1237  000F3C                     __ptext2:
  1238                           	opt callstack 0
  1239  000F3C                     _manual:
  1240                           	opt callstack 23
  1241  000F3C                     
  1242                           ;main.c: 512:     INT2IE = 1;
  1243  000F3C  88F0               	bsf	4080,4,c	;volatile
  1244  000F3E                     
  1245                           ;main.c: 513:     LCD_Goto(1,1);
  1246  000F3E  0E01               	movlw	1
  1247  000F40  6E08               	movwf	LCD_Goto@row^0,c
  1248  000F42  0E01               	movlw	1
  1249  000F44  EC36  F016         	call	_LCD_Goto
  1250  000F48                     
  1251                           ;main.c: 514:     LCD_Print ("TEMP.");
  1252  000F48  0E80               	movlw	low STR_28
  1253  000F4A  6E06               	movwf	LCD_Print@LCD_Str^0,c
  1254  000F4C  0E08               	movlw	high STR_28
  1255  000F4E  6E07               	movwf	(LCD_Print@LCD_Str+1)^0,c
  1256  000F50  EC1B  F015         	call	_LCD_Print	;wreg free
  1257  000F54                     
  1258                           ;main.c: 515:     LCD_Goto(1,2);
  1259  000F54  0E02               	movlw	2
  1260  000F56  6E08               	movwf	LCD_Goto@row^0,c
  1261  000F58  0E01               	movlw	1
  1262  000F5A  EC36  F016         	call	_LCD_Goto
  1263                           
  1264                           ;main.c: 516:     LCD_Print ("POT.DIMMER");
  1265  000F5E  0E35               	movlw	low STR_31
  1266  000F60  6E06               	movwf	LCD_Print@LCD_Str^0,c
  1267  000F62  0E08               	movlw	high STR_31
  1268  000F64  6E07               	movwf	(LCD_Print@LCD_Str+1)^0,c
  1269  000F66  EC1B  F015         	call	_LCD_Print	;wreg free
  1270  000F6A                     l3517:
  1271                           
  1272                           ;main.c: 519:         ADCON0 = 0x04;
  1273  000F6A  0E04               	movlw	4
  1274  000F6C  6EC2               	movwf	194,c	;volatile
  1275  000F6E                     
  1276                           ;main.c: 520:         ADCON0bits.ADON = 1;
  1277  000F6E  80C2               	bsf	194,0,c	;volatile
  1278  000F70                     
  1279                           ;main.c: 521:         _delay((unsigned long)((20)*(20000000/4000000.0)));
  1280  000F70  0E21               	movlw	33
  1281  000F72                     u4517:
  1282  000F72  2EE8               	decfsz	wreg,f,c
  1283  000F74  D7FE               	bra	u4517
  1284  000F76  F000               	nop	
  1285  000F78                     
  1286                           ;main.c: 522:         ADCON0bits.GO = 1;
  1287  000F78  82C2               	bsf	194,1,c	;volatile
  1288  000F7A                     l240:
  1289  000F7A  B2C2               	btfsc	194,1,c	;volatile
  1290  000F7C  EFC2  F007         	goto	u3411
  1291  000F80  EFC4  F007         	goto	u3410
  1292  000F84                     u3411:
  1293  000F84  EFBD  F007         	goto	l240
  1294  000F88                     u3410:
  1295  000F88                     
  1296                           ;main.c: 524:         celsius = ADRES;
  1297  000F88  CFC3 F002          	movff	4035,___xxtofl@val	;volatile
  1298  000F8C  CFC4 F003          	movff	4036,___xxtofl@val+1	;volatile
  1299  000F90  6A04               	clrf	(___xxtofl@val+2)^0,c
  1300  000F92  6A05               	clrf	(___xxtofl@val+3)^0,c
  1301  000F94  0E00               	movlw	0
  1302  000F96  ECA7  F011         	call	___xxtofl
  1303  000F9A  C002  F035         	movff	?___xxtofl,_celsius
  1304  000F9E  C003  F036         	movff	?___xxtofl+1,_celsius+1
  1305  000FA2  C004  F037         	movff	?___xxtofl+2,_celsius+2
  1306  000FA6  C005  F038         	movff	?___xxtofl+3,_celsius+3
  1307  000FAA                     
  1308                           ;main.c: 525:         celsius = (celsius*500);
  1309  000FAA  C035  F002         	movff	_celsius,___flmul@b
  1310  000FAE  C036  F003         	movff	_celsius+1,___flmul@b+1
  1311  000FB2  C037  F004         	movff	_celsius+2,___flmul@b+2
  1312  000FB6  C038  F005         	movff	_celsius+3,___flmul@b+3
  1313  000FBA  0E00               	movlw	0
  1314  000FBC  6E06               	movwf	___flmul@a^0,c
  1315  000FBE  0E00               	movlw	0
  1316  000FC0  6E07               	movwf	(___flmul@a+1)^0,c
  1317  000FC2  0EFA               	movlw	250
  1318  000FC4  6E08               	movwf	(___flmul@a+2)^0,c
  1319  000FC6  0E43               	movlw	67
  1320  000FC8  6E09               	movwf	(___flmul@a+3)^0,c
  1321  000FCA  ECD0  F009         	call	___flmul	;wreg free
  1322  000FCE  C002  F035         	movff	?___flmul,_celsius
  1323  000FD2  C003  F036         	movff	?___flmul+1,_celsius+1
  1324  000FD6  C004  F037         	movff	?___flmul+2,_celsius+2
  1325  000FDA  C005  F038         	movff	?___flmul+3,_celsius+3
  1326  000FDE                     
  1327                           ;main.c: 526:         celsius = celsius/1024;
  1328  000FDE  C035  F01B         	movff	_celsius,___fldiv@b
  1329  000FE2  C036  F01C         	movff	_celsius+1,___fldiv@b+1
  1330  000FE6  C037  F01D         	movff	_celsius+2,___fldiv@b+2
  1331  000FEA  C038  F01E         	movff	_celsius+3,___fldiv@b+3
  1332  000FEE  0E00               	movlw	0
  1333  000FF0  6E1F               	movwf	___fldiv@a^0,c
  1334  000FF2  0E00               	movlw	0
  1335  000FF4  6E20               	movwf	(___fldiv@a+1)^0,c
  1336  000FF6  0E80               	movlw	128
  1337  000FF8  6E21               	movwf	(___fldiv@a+2)^0,c
  1338  000FFA  0E44               	movlw	68
  1339  000FFC  6E22               	movwf	(___fldiv@a+3)^0,c
  1340  000FFE  ECE5  F00B         	call	___fldiv	;wreg free
  1341  001002  C01B  F035         	movff	?___fldiv,_celsius
  1342  001006  C01C  F036         	movff	?___fldiv+1,_celsius+1
  1343  00100A  C01D  F037         	movff	?___fldiv+2,_celsius+2
  1344  00100E  C01E  F038         	movff	?___fldiv+3,_celsius+3
  1345  001012                     
  1346                           ;main.c: 527:         sprintf(Temperatura,"%d C",(int)celsius);
  1347  001012  0E8C               	movlw	low _Temperatura
  1348  001014  6E1A               	movwf	sprintf@sp^0,c
  1349  001016  0E00               	movlw	high _Temperatura
  1350  001018  6E1B               	movwf	(sprintf@sp+1)^0,c
  1351  00101A  0E86               	movlw	low STR_29
  1352  00101C  6E1C               	movwf	sprintf@f^0,c
  1353  00101E  0E08               	movlw	high STR_29
  1354  001020  6E1D               	movwf	(sprintf@f+1)^0,c
  1355  001022  C035  F002         	movff	_celsius,___fltol@f1
  1356  001026  C036  F003         	movff	_celsius+1,___fltol@f1+1
  1357  00102A  C037  F004         	movff	_celsius+2,___fltol@f1+2
  1358  00102E  C038  F005         	movff	_celsius+3,___fltol@f1+3
  1359  001032  ECBF  F013         	call	___fltol	;wreg free
  1360  001036  C002  F01E         	movff	?___fltol,?_sprintf+4
  1361  00103A  C003  F01F         	movff	?___fltol+1,?_sprintf+5
  1362  00103E  ECCD  F010         	call	_sprintf	;wreg free
  1363  001042                     
  1364                           ;main.c: 528:         LCD_Goto (7,1);
  1365  001042  0E01               	movlw	1
  1366  001044  6E08               	movwf	LCD_Goto@row^0,c
  1367  001046  0E07               	movlw	7
  1368  001048  EC36  F016         	call	_LCD_Goto
  1369  00104C                     
  1370                           ;main.c: 529:         LCD_Print(Temperatura);
  1371  00104C  0E8C               	movlw	low _Temperatura
  1372  00104E  6E06               	movwf	LCD_Print@LCD_Str^0,c
  1373  001050  0E00               	movlw	high _Temperatura
  1374  001052  6E07               	movwf	(LCD_Print@LCD_Str+1)^0,c
  1375  001054  EC1B  F015         	call	_LCD_Print	;wreg free
  1376  001058                     
  1377                           ;main.c: 530:         ADCON0bits.ADON = 0;
  1378  001058  90C2               	bcf	194,0,c	;volatile
  1379  00105A                     
  1380                           ;main.c: 531:         _delay((unsigned long)((20)*(20000000/4000000.0)));
  1381  00105A  0E21               	movlw	33
  1382  00105C                     u4527:
  1383  00105C  2EE8               	decfsz	wreg,f,c
  1384  00105E  D7FE               	bra	u4527
  1385  001060  F000               	nop	
  1386  001062                     
  1387                           ;main.c: 534:         ADCON0 = 0x04;
  1388  001062  0E04               	movlw	4
  1389  001064  6EC2               	movwf	194,c	;volatile
  1390  001066                     
  1391                           ;main.c: 535:         ADCON0bits.ADON = 1;
  1392  001066  80C2               	bsf	194,0,c	;volatile
  1393  001068                     
  1394                           ;main.c: 536:         _delay((unsigned long)((20)*(20000000/4000000.0)));
  1395  001068  0E21               	movlw	33
  1396  00106A                     u4537:
  1397  00106A  2EE8               	decfsz	wreg,f,c
  1398  00106C  D7FE               	bra	u4537
  1399  00106E  F000               	nop	
  1400  001070                     
  1401                           ;main.c: 537:         ADCON0bits.GO = 1;
  1402  001070  82C2               	bsf	194,1,c	;volatile
  1403  001072                     l243:
  1404  001072  B2C2               	btfsc	194,1,c	;volatile
  1405  001074  EF3E  F008         	goto	u3421
  1406  001078  EF40  F008         	goto	u3420
  1407  00107C                     u3421:
  1408  00107C  EF39  F008         	goto	l243
  1409  001080                     u3420:
  1410  001080                     
  1411                           ;main.c: 539:         celsius = ADRES;
  1412  001080  CFC3 F002          	movff	4035,___xxtofl@val	;volatile
  1413  001084  CFC4 F003          	movff	4036,___xxtofl@val+1	;volatile
  1414  001088  6A04               	clrf	(___xxtofl@val+2)^0,c
  1415  00108A  6A05               	clrf	(___xxtofl@val+3)^0,c
  1416  00108C  0E00               	movlw	0
  1417  00108E  ECA7  F011         	call	___xxtofl
  1418  001092  C002  F035         	movff	?___xxtofl,_celsius
  1419  001096  C003  F036         	movff	?___xxtofl+1,_celsius+1
  1420  00109A  C004  F037         	movff	?___xxtofl+2,_celsius+2
  1421  00109E  C005  F038         	movff	?___xxtofl+3,_celsius+3
  1422  0010A2                     
  1423                           ;main.c: 540:         celsius = (celsius*500);
  1424  0010A2  C035  F002         	movff	_celsius,___flmul@b
  1425  0010A6  C036  F003         	movff	_celsius+1,___flmul@b+1
  1426  0010AA  C037  F004         	movff	_celsius+2,___flmul@b+2
  1427  0010AE  C038  F005         	movff	_celsius+3,___flmul@b+3
  1428  0010B2  0E00               	movlw	0
  1429  0010B4  6E06               	movwf	___flmul@a^0,c
  1430  0010B6  0E00               	movlw	0
  1431  0010B8  6E07               	movwf	(___flmul@a+1)^0,c
  1432  0010BA  0EFA               	movlw	250
  1433  0010BC  6E08               	movwf	(___flmul@a+2)^0,c
  1434  0010BE  0E43               	movlw	67
  1435  0010C0  6E09               	movwf	(___flmul@a+3)^0,c
  1436  0010C2  ECD0  F009         	call	___flmul	;wreg free
  1437  0010C6  C002  F035         	movff	?___flmul,_celsius
  1438  0010CA  C003  F036         	movff	?___flmul+1,_celsius+1
  1439  0010CE  C004  F037         	movff	?___flmul+2,_celsius+2
  1440  0010D2  C005  F038         	movff	?___flmul+3,_celsius+3
  1441  0010D6                     
  1442                           ;main.c: 541:         celsius = celsius/1024;
  1443  0010D6  C035  F01B         	movff	_celsius,___fldiv@b
  1444  0010DA  C036  F01C         	movff	_celsius+1,___fldiv@b+1
  1445  0010DE  C037  F01D         	movff	_celsius+2,___fldiv@b+2
  1446  0010E2  C038  F01E         	movff	_celsius+3,___fldiv@b+3
  1447  0010E6  0E00               	movlw	0
  1448  0010E8  6E1F               	movwf	___fldiv@a^0,c
  1449  0010EA  0E00               	movlw	0
  1450  0010EC  6E20               	movwf	(___fldiv@a+1)^0,c
  1451  0010EE  0E80               	movlw	128
  1452  0010F0  6E21               	movwf	(___fldiv@a+2)^0,c
  1453  0010F2  0E44               	movlw	68
  1454  0010F4  6E22               	movwf	(___fldiv@a+3)^0,c
  1455  0010F6  ECE5  F00B         	call	___fldiv	;wreg free
  1456  0010FA  C01B  F035         	movff	?___fldiv,_celsius
  1457  0010FE  C01C  F036         	movff	?___fldiv+1,_celsius+1
  1458  001102  C01D  F037         	movff	?___fldiv+2,_celsius+2
  1459  001106  C01E  F038         	movff	?___fldiv+3,_celsius+3
  1460  00110A                     
  1461                           ;main.c: 542:         sprintf(Temperatura,"%d C",(int)celsius);
  1462  00110A  0E8C               	movlw	low _Temperatura
  1463  00110C  6E1A               	movwf	sprintf@sp^0,c
  1464  00110E  0E00               	movlw	high _Temperatura
  1465  001110  6E1B               	movwf	(sprintf@sp+1)^0,c
  1466  001112  0E86               	movlw	low STR_29
  1467  001114  6E1C               	movwf	sprintf@f^0,c
  1468  001116  0E08               	movlw	high STR_29
  1469  001118  6E1D               	movwf	(sprintf@f+1)^0,c
  1470  00111A  C035  F002         	movff	_celsius,___fltol@f1
  1471  00111E  C036  F003         	movff	_celsius+1,___fltol@f1+1
  1472  001122  C037  F004         	movff	_celsius+2,___fltol@f1+2
  1473  001126  C038  F005         	movff	_celsius+3,___fltol@f1+3
  1474  00112A  ECBF  F013         	call	___fltol	;wreg free
  1475  00112E  C002  F01E         	movff	?___fltol,?_sprintf+4
  1476  001132  C003  F01F         	movff	?___fltol+1,?_sprintf+5
  1477  001136  ECCD  F010         	call	_sprintf	;wreg free
  1478  00113A                     
  1479                           ;main.c: 543:         LCD_Goto (7,1);
  1480  00113A  0E01               	movlw	1
  1481  00113C  6E08               	movwf	LCD_Goto@row^0,c
  1482  00113E  0E07               	movlw	7
  1483  001140  EC36  F016         	call	_LCD_Goto
  1484  001144                     
  1485                           ;main.c: 544:         LCD_Print(Temperatura);
  1486  001144  0E8C               	movlw	low _Temperatura
  1487  001146  6E06               	movwf	LCD_Print@LCD_Str^0,c
  1488  001148  0E00               	movlw	high _Temperatura
  1489  00114A  6E07               	movwf	(LCD_Print@LCD_Str+1)^0,c
  1490  00114C  EC1B  F015         	call	_LCD_Print	;wreg free
  1491  001150                     
  1492                           ;main.c: 545:         ADCON0bits.ADON = 0;
  1493  001150  90C2               	bcf	194,0,c	;volatile
  1494  001152                     
  1495                           ;main.c: 546:         _delay((unsigned long)((20)*(20000000/4000000.0)));
  1496  001152  0E21               	movlw	33
  1497  001154                     u4547:
  1498  001154  2EE8               	decfsz	wreg,f,c
  1499  001156  D7FE               	bra	u4547
  1500  001158  F000               	nop	
  1501  00115A                     
  1502                           ;main.c: 551:         ADCON0 = 0x00;
  1503  00115A  0E00               	movlw	0
  1504  00115C  6EC2               	movwf	194,c	;volatile
  1505  00115E                     
  1506                           ;main.c: 552:         ADCON0bits.ADON = 1;
  1507  00115E  80C2               	bsf	194,0,c	;volatile
  1508  001160                     
  1509                           ;main.c: 553:         _delay((unsigned long)((20)*(20000000/4000000.0)));
  1510  001160  0E21               	movlw	33
  1511  001162                     u4557:
  1512  001162  2EE8               	decfsz	wreg,f,c
  1513  001164  D7FE               	bra	u4557
  1514  001166  F000               	nop	
  1515  001168                     
  1516                           ;main.c: 554:         ADCON0bits.GO = 1;
  1517  001168  82C2               	bsf	194,1,c	;volatile
  1518  00116A                     l246:
  1519  00116A  B2C2               	btfsc	194,1,c	;volatile
  1520  00116C  EFBA  F008         	goto	u3431
  1521  001170  EFBC  F008         	goto	u3430
  1522  001174                     u3431:
  1523  001174  EFB5  F008         	goto	l246
  1524  001178                     u3430:
  1525  001178                     
  1526                           ;main.c: 556:         pot = ADRES;
  1527  001178  CFC3 F002          	movff	4035,___xxtofl@val	;volatile
  1528  00117C  CFC4 F003          	movff	4036,___xxtofl@val+1	;volatile
  1529  001180  6A04               	clrf	(___xxtofl@val+2)^0,c
  1530  001182  6A05               	clrf	(___xxtofl@val+3)^0,c
  1531  001184  0E00               	movlw	0
  1532  001186  ECA7  F011         	call	___xxtofl
  1533  00118A  C002  F060         	movff	?___xxtofl,_pot
  1534  00118E  C003  F061         	movff	?___xxtofl+1,_pot+1
  1535  001192  C004  F062         	movff	?___xxtofl+2,_pot+2
  1536  001196  C005  F063         	movff	?___xxtofl+3,_pot+3
  1537  00119A                     
  1538                           ;main.c: 557:         v = ADRES;
  1539  00119A  CFC3 F057          	movff	4035,_v	;volatile
  1540  00119E  CFC4 F058          	movff	4036,_v+1	;volatile
  1541  0011A2                     
  1542                           ;main.c: 558:         potenciometro = pot*100/1023;
  1543  0011A2  0E00               	movlw	0
  1544  0011A4  6E06               	movwf	___flmul@a^0,c
  1545  0011A6  0E00               	movlw	0
  1546  0011A8  6E07               	movwf	(___flmul@a+1)^0,c
  1547  0011AA  0EC8               	movlw	200
  1548  0011AC  6E08               	movwf	(___flmul@a+2)^0,c
  1549  0011AE  0E42               	movlw	66
  1550  0011B0  6E09               	movwf	(___flmul@a+3)^0,c
  1551  0011B2  C060  F002         	movff	_pot,___flmul@b
  1552  0011B6  C061  F003         	movff	_pot+1,___flmul@b+1
  1553  0011BA  C062  F004         	movff	_pot+2,___flmul@b+2
  1554  0011BE  C063  F005         	movff	_pot+3,___flmul@b+3
  1555  0011C2  ECD0  F009         	call	___flmul	;wreg free
  1556  0011C6  C002  F01B         	movff	?___flmul,___fldiv@b
  1557  0011CA  C003  F01C         	movff	?___flmul+1,___fldiv@b+1
  1558  0011CE  C004  F01D         	movff	?___flmul+2,___fldiv@b+2
  1559  0011D2  C005  F01E         	movff	?___flmul+3,___fldiv@b+3
  1560  0011D6  0E00               	movlw	0
  1561  0011D8  6E1F               	movwf	___fldiv@a^0,c
  1562  0011DA  0EC0               	movlw	192
  1563  0011DC  6E20               	movwf	(___fldiv@a+1)^0,c
  1564  0011DE  0E7F               	movlw	127
  1565  0011E0  6E21               	movwf	(___fldiv@a+2)^0,c
  1566  0011E2  0E44               	movlw	68
  1567  0011E4  6E22               	movwf	(___fldiv@a+3)^0,c
  1568  0011E6  ECE5  F00B         	call	___fldiv	;wreg free
  1569  0011EA  C01B  F064         	movff	?___fldiv,_potenciometro
  1570  0011EE  C01C  F065         	movff	?___fldiv+1,_potenciometro+1
  1571  0011F2  C01D  F066         	movff	?___fldiv+2,_potenciometro+2
  1572  0011F6  C01E  F067         	movff	?___fldiv+3,_potenciometro+3
  1573  0011FA                     
  1574                           ;main.c: 559:         sprintf(Potencio,"%d ",(int)((70-(int)potenciometro))*100/70);
  1575  0011FA  0E82               	movlw	low _Potencio
  1576  0011FC  6E1A               	movwf	sprintf@sp^0,c
  1577  0011FE  0E00               	movlw	high _Potencio
  1578  001200  6E1B               	movwf	(sprintf@sp+1)^0,c
  1579  001202  0E8B               	movlw	low STR_34
  1580  001204  6E1C               	movwf	sprintf@f^0,c
  1581  001206  0E08               	movlw	high STR_34
  1582  001208  6E1D               	movwf	(sprintf@f+1)^0,c
  1583  00120A  C064  F002         	movff	_potenciometro,___fltol@f1
  1584  00120E  C065  F003         	movff	_potenciometro+1,___fltol@f1+1
  1585  001212  C066  F004         	movff	_potenciometro+2,___fltol@f1+2
  1586  001216  C067  F005         	movff	_potenciometro+3,___fltol@f1+3
  1587  00121A  ECBF  F013         	call	___fltol	;wreg free
  1588  00121E  5002               	movf	?___fltol^0,w,c
  1589  001220  0846               	sublw	70
  1590  001222  6E0C               	movwf	___wmul@multiplier^0,c
  1591  001224  5003               	movf	(?___fltol+1)^0,w,c
  1592  001226  A0D8               	btfss	status,0,c
  1593  001228  2AE8               	incf	wreg,f,c
  1594  00122A  0800               	sublw	0
  1595  00122C  6E0D               	movwf	(___wmul@multiplier+1)^0,c
  1596  00122E  0E00               	movlw	0
  1597  001230  6E0F               	movwf	(___wmul@multiplicand+1)^0,c
  1598  001232  0E64               	movlw	100
  1599  001234  6E0E               	movwf	___wmul@multiplicand^0,c
  1600  001236  ECF5  F017         	call	___wmul	;wreg free
  1601  00123A  C00C  F012         	movff	?___wmul,___awdiv@dividend
  1602  00123E  C00D  F013         	movff	?___wmul+1,___awdiv@dividend+1
  1603  001242  0E00               	movlw	0
  1604  001244  6E15               	movwf	(___awdiv@divisor+1)^0,c
  1605  001246  0E46               	movlw	70
  1606  001248  6E14               	movwf	___awdiv@divisor^0,c
  1607  00124A  ECB9  F014         	call	___awdiv	;wreg free
  1608  00124E  C012  F01E         	movff	?___awdiv,?_sprintf+4
  1609  001252  C013  F01F         	movff	?___awdiv+1,?_sprintf+5
  1610  001256  ECCD  F010         	call	_sprintf	;wreg free
  1611  00125A                     
  1612                           ;main.c: 560:         LCD_Goto(13,2);
  1613  00125A  0E02               	movlw	2
  1614  00125C  6E08               	movwf	LCD_Goto@row^0,c
  1615  00125E  0E0D               	movlw	13
  1616  001260  EC36  F016         	call	_LCD_Goto
  1617  001264                     
  1618                           ;main.c: 561:         LCD_Print(Potencio);
  1619  001264  0E82               	movlw	low _Potencio
  1620  001266  6E06               	movwf	LCD_Print@LCD_Str^0,c
  1621  001268  0E00               	movlw	high _Potencio
  1622  00126A  6E07               	movwf	(LCD_Print@LCD_Str+1)^0,c
  1623  00126C  EC1B  F015         	call	_LCD_Print	;wreg free
  1624  001270                     
  1625                           ;main.c: 562:         ADCON0bits.ADON = 0;
  1626  001270  90C2               	bcf	194,0,c	;volatile
  1627  001272                     
  1628                           ;main.c: 563:         _delay((unsigned long)((20)*(20000000/4000000.0)));
  1629  001272  0E21               	movlw	33
  1630  001274                     u4567:
  1631  001274  2EE8               	decfsz	wreg,f,c
  1632  001276  D7FE               	bra	u4567
  1633  001278  F000               	nop	
  1634  00127A                     
  1635                           ;main.c: 566:         ADCON0 = 0x00;
  1636  00127A  0E00               	movlw	0
  1637  00127C  6EC2               	movwf	194,c	;volatile
  1638  00127E                     
  1639                           ;main.c: 567:         ADCON0bits.ADON = 1;
  1640  00127E  80C2               	bsf	194,0,c	;volatile
  1641  001280                     
  1642                           ;main.c: 568:         _delay((unsigned long)((20)*(20000000/4000000.0)));
  1643  001280  0E21               	movlw	33
  1644  001282                     u4577:
  1645  001282  2EE8               	decfsz	wreg,f,c
  1646  001284  D7FE               	bra	u4577
  1647  001286  F000               	nop	
  1648  001288                     
  1649                           ;main.c: 569:         ADCON0bits.GO = 1;
  1650  001288  82C2               	bsf	194,1,c	;volatile
  1651  00128A                     l249:
  1652  00128A  B2C2               	btfsc	194,1,c	;volatile
  1653  00128C  EF4A  F009         	goto	u3441
  1654  001290  EF4C  F009         	goto	u3440
  1655  001294                     u3441:
  1656  001294  EF45  F009         	goto	l249
  1657  001298                     u3440:
  1658  001298                     
  1659                           ;main.c: 571:         pot = ADRES;
  1660  001298  CFC3 F002          	movff	4035,___xxtofl@val	;volatile
  1661  00129C  CFC4 F003          	movff	4036,___xxtofl@val+1	;volatile
  1662  0012A0  6A04               	clrf	(___xxtofl@val+2)^0,c
  1663  0012A2  6A05               	clrf	(___xxtofl@val+3)^0,c
  1664  0012A4  0E00               	movlw	0
  1665  0012A6  ECA7  F011         	call	___xxtofl
  1666  0012AA  C002  F060         	movff	?___xxtofl,_pot
  1667  0012AE  C003  F061         	movff	?___xxtofl+1,_pot+1
  1668  0012B2  C004  F062         	movff	?___xxtofl+2,_pot+2
  1669  0012B6  C005  F063         	movff	?___xxtofl+3,_pot+3
  1670  0012BA                     
  1671                           ;main.c: 572:         v = ADRES;
  1672  0012BA  CFC3 F057          	movff	4035,_v	;volatile
  1673  0012BE  CFC4 F058          	movff	4036,_v+1	;volatile
  1674  0012C2                     
  1675                           ;main.c: 573:         potenciometro = pot*100/1023;
  1676  0012C2  0E00               	movlw	0
  1677  0012C4  6E06               	movwf	___flmul@a^0,c
  1678  0012C6  0E00               	movlw	0
  1679  0012C8  6E07               	movwf	(___flmul@a+1)^0,c
  1680  0012CA  0EC8               	movlw	200
  1681  0012CC  6E08               	movwf	(___flmul@a+2)^0,c
  1682  0012CE  0E42               	movlw	66
  1683  0012D0  6E09               	movwf	(___flmul@a+3)^0,c
  1684  0012D2  C060  F002         	movff	_pot,___flmul@b
  1685  0012D6  C061  F003         	movff	_pot+1,___flmul@b+1
  1686  0012DA  C062  F004         	movff	_pot+2,___flmul@b+2
  1687  0012DE  C063  F005         	movff	_pot+3,___flmul@b+3
  1688  0012E2  ECD0  F009         	call	___flmul	;wreg free
  1689  0012E6  C002  F01B         	movff	?___flmul,___fldiv@b
  1690  0012EA  C003  F01C         	movff	?___flmul+1,___fldiv@b+1
  1691  0012EE  C004  F01D         	movff	?___flmul+2,___fldiv@b+2
  1692  0012F2  C005  F01E         	movff	?___flmul+3,___fldiv@b+3
  1693  0012F6  0E00               	movlw	0
  1694  0012F8  6E1F               	movwf	___fldiv@a^0,c
  1695  0012FA  0EC0               	movlw	192
  1696  0012FC  6E20               	movwf	(___fldiv@a+1)^0,c
  1697  0012FE  0E7F               	movlw	127
  1698  001300  6E21               	movwf	(___fldiv@a+2)^0,c
  1699  001302  0E44               	movlw	68
  1700  001304  6E22               	movwf	(___fldiv@a+3)^0,c
  1701  001306  ECE5  F00B         	call	___fldiv	;wreg free
  1702  00130A  C01B  F064         	movff	?___fldiv,_potenciometro
  1703  00130E  C01C  F065         	movff	?___fldiv+1,_potenciometro+1
  1704  001312  C01D  F066         	movff	?___fldiv+2,_potenciometro+2
  1705  001316  C01E  F067         	movff	?___fldiv+3,_potenciometro+3
  1706  00131A                     
  1707                           ;main.c: 574:         sprintf(Potencio,"%d ",(int)((70-(int)potenciometro))*100/70);
  1708  00131A  0E82               	movlw	low _Potencio
  1709  00131C  6E1A               	movwf	sprintf@sp^0,c
  1710  00131E  0E00               	movlw	high _Potencio
  1711  001320  6E1B               	movwf	(sprintf@sp+1)^0,c
  1712  001322  0E8B               	movlw	low STR_34
  1713  001324  6E1C               	movwf	sprintf@f^0,c
  1714  001326  0E08               	movlw	high STR_34
  1715  001328  6E1D               	movwf	(sprintf@f+1)^0,c
  1716  00132A  C064  F002         	movff	_potenciometro,___fltol@f1
  1717  00132E  C065  F003         	movff	_potenciometro+1,___fltol@f1+1
  1718  001332  C066  F004         	movff	_potenciometro+2,___fltol@f1+2
  1719  001336  C067  F005         	movff	_potenciometro+3,___fltol@f1+3
  1720  00133A  ECBF  F013         	call	___fltol	;wreg free
  1721  00133E  5002               	movf	?___fltol^0,w,c
  1722  001340  0846               	sublw	70
  1723  001342  6E0C               	movwf	___wmul@multiplier^0,c
  1724  001344  5003               	movf	(?___fltol+1)^0,w,c
  1725  001346  A0D8               	btfss	status,0,c
  1726  001348  2AE8               	incf	wreg,f,c
  1727  00134A  0800               	sublw	0
  1728  00134C  6E0D               	movwf	(___wmul@multiplier+1)^0,c
  1729  00134E  0E00               	movlw	0
  1730  001350  6E0F               	movwf	(___wmul@multiplicand+1)^0,c
  1731  001352  0E64               	movlw	100
  1732  001354  6E0E               	movwf	___wmul@multiplicand^0,c
  1733  001356  ECF5  F017         	call	___wmul	;wreg free
  1734  00135A  C00C  F012         	movff	?___wmul,___awdiv@dividend
  1735  00135E  C00D  F013         	movff	?___wmul+1,___awdiv@dividend+1
  1736  001362  0E00               	movlw	0
  1737  001364  6E15               	movwf	(___awdiv@divisor+1)^0,c
  1738  001366  0E46               	movlw	70
  1739  001368  6E14               	movwf	___awdiv@divisor^0,c
  1740  00136A  ECB9  F014         	call	___awdiv	;wreg free
  1741  00136E  C012  F01E         	movff	?___awdiv,?_sprintf+4
  1742  001372  C013  F01F         	movff	?___awdiv+1,?_sprintf+5
  1743  001376  ECCD  F010         	call	_sprintf	;wreg free
  1744  00137A                     
  1745                           ;main.c: 575:         LCD_Goto(13,2);
  1746  00137A  0E02               	movlw	2
  1747  00137C  6E08               	movwf	LCD_Goto@row^0,c
  1748  00137E  0E0D               	movlw	13
  1749  001380  EC36  F016         	call	_LCD_Goto
  1750  001384                     
  1751                           ;main.c: 576:         LCD_Print(Potencio);
  1752  001384  0E82               	movlw	low _Potencio
  1753  001386  6E06               	movwf	LCD_Print@LCD_Str^0,c
  1754  001388  0E00               	movlw	high _Potencio
  1755  00138A  6E07               	movwf	(LCD_Print@LCD_Str+1)^0,c
  1756  00138C  EC1B  F015         	call	_LCD_Print	;wreg free
  1757  001390                     
  1758                           ;main.c: 577:         ADCON0bits.ADON = 0;
  1759  001390  90C2               	bcf	194,0,c	;volatile
  1760  001392                     
  1761                           ;main.c: 578:         _delay((unsigned long)((20)*(20000000/4000000.0)));
  1762  001392  0E21               	movlw	33
  1763  001394                     u4587:
  1764  001394  2EE8               	decfsz	wreg,f,c
  1765  001396  D7FE               	bra	u4587
  1766  001398  F000               	nop	
  1767  00139A  EFB5  F007         	goto	l3517
  1768  00139E  0012               	return		;funcret
  1769  0013A0                     __end_of_manual:
  1770                           	opt callstack 0
  1771                           
  1772 ;; *************** function ___awdiv *****************
  1773 ;; Defined at:
  1774 ;;		line 7 in file "C:\Program Files (x86)\Microchip\xc8\v2.10\pic\sources\c90\common\awdiv.c"
  1775 ;; Parameters:    Size  Location     Type
  1776 ;;  dividend        2   17[COMRAM] int 
  1777 ;;  divisor         2   19[COMRAM] int 
  1778 ;; Auto vars:     Size  Location     Type
  1779 ;;  quotient        2   23[COMRAM] int 
  1780 ;;  sign            1   22[COMRAM] unsigned char 
  1781 ;;  counter         1   21[COMRAM] unsigned char 
  1782 ;; Return value:  Size  Location     Type
  1783 ;;                  2   17[COMRAM] int 
  1784 ;; Registers used:
  1785 ;;		wreg, status,2, status,0
  1786 ;; Tracked objects:
  1787 ;;		On entry : 0/0
  1788 ;;		On exit  : 0/0
  1789 ;;		Unchanged: 0/0
  1790 ;; Data sizes:     COMRAM   BANK0   BANK1   BANK2   BANK3   BANK4   BANK5   BANK6   BANK7
  1791 ;;      Params:         4       0       0       0       0       0       0       0       0
  1792 ;;      Locals:         4       0       0       0       0       0       0       0       0
  1793 ;;      Temps:          0       0       0       0       0       0       0       0       0
  1794 ;;      Totals:         8       0       0       0       0       0       0       0       0
  1795 ;;Total ram usage:        8 bytes
  1796 ;; Hardware stack levels used:    1
  1797 ;; Hardware stack levels required when called:    1
  1798 ;; This function calls:
  1799 ;;		Nothing
  1800 ;; This function is called by:
  1801 ;;		_manual
  1802 ;;		_pid
  1803 ;; This function uses a non-reentrant model
  1804 ;;
  1805                           
  1806                           	psect	text3
  1807  002972                     __ptext3:
  1808                           	opt callstack 0
  1809  002972                     ___awdiv:
  1810                           	opt callstack 27
  1811  002972  0E00               	movlw	0
  1812  002974  6E17               	movwf	___awdiv@sign^0,c
  1813  002976  BE15               	btfsc	(___awdiv@divisor+1)^0,7,c
  1814  002978  EFC2  F014         	goto	u3070
  1815  00297C  EFC0  F014         	goto	u3071
  1816  002980                     u3071:
  1817  002980  EFC8  F014         	goto	l3287
  1818  002984                     u3070:
  1819  002984  6C14               	negf	___awdiv@divisor^0,c
  1820  002986  1E15               	comf	(___awdiv@divisor+1)^0,f,c
  1821  002988  B0D8               	btfsc	status,0,c
  1822  00298A  2A15               	incf	(___awdiv@divisor+1)^0,f,c
  1823  00298C  0E01               	movlw	1
  1824  00298E  6E17               	movwf	___awdiv@sign^0,c
  1825  002990                     l3287:
  1826  002990  BE13               	btfsc	(___awdiv@dividend+1)^0,7,c
  1827  002992  EFCF  F014         	goto	u3080
  1828  002996  EFCD  F014         	goto	u3081
  1829  00299A                     u3081:
  1830  00299A  EFD5  F014         	goto	l3293
  1831  00299E                     u3080:
  1832  00299E  6C12               	negf	___awdiv@dividend^0,c
  1833  0029A0  1E13               	comf	(___awdiv@dividend+1)^0,f,c
  1834  0029A2  B0D8               	btfsc	status,0,c
  1835  0029A4  2A13               	incf	(___awdiv@dividend+1)^0,f,c
  1836  0029A6  0E01               	movlw	1
  1837  0029A8  1A17               	xorwf	___awdiv@sign^0,f,c
  1838  0029AA                     l3293:
  1839  0029AA  0E00               	movlw	0
  1840  0029AC  6E19               	movwf	(___awdiv@quotient+1)^0,c
  1841  0029AE  0E00               	movlw	0
  1842  0029B0  6E18               	movwf	___awdiv@quotient^0,c
  1843  0029B2  5014               	movf	___awdiv@divisor^0,w,c
  1844  0029B4  1015               	iorwf	(___awdiv@divisor+1)^0,w,c
  1845  0029B6  B4D8               	btfsc	status,2,c
  1846  0029B8  EFE0  F014         	goto	u3091
  1847  0029BC  EFE2  F014         	goto	u3090
  1848  0029C0                     u3091:
  1849  0029C0  EF0A  F015         	goto	l3315
  1850  0029C4                     u3090:
  1851  0029C4  0E01               	movlw	1
  1852  0029C6  6E16               	movwf	___awdiv@counter^0,c
  1853  0029C8  EFEA  F014         	goto	l3301
  1854  0029CC                     l3299:
  1855  0029CC  90D8               	bcf	status,0,c
  1856  0029CE  3614               	rlcf	___awdiv@divisor^0,f,c
  1857  0029D0  3615               	rlcf	(___awdiv@divisor+1)^0,f,c
  1858  0029D2  2A16               	incf	___awdiv@counter^0,f,c
  1859  0029D4                     l3301:
  1860  0029D4  AE15               	btfss	(___awdiv@divisor+1)^0,7,c
  1861  0029D6  EFEF  F014         	goto	u3101
  1862  0029DA  EFF1  F014         	goto	u3100
  1863  0029DE                     u3101:
  1864  0029DE  EFE6  F014         	goto	l3299
  1865  0029E2                     u3100:
  1866  0029E2                     l3303:
  1867  0029E2  90D8               	bcf	status,0,c
  1868  0029E4  3618               	rlcf	___awdiv@quotient^0,f,c
  1869  0029E6  3619               	rlcf	(___awdiv@quotient+1)^0,f,c
  1870  0029E8  5014               	movf	___awdiv@divisor^0,w,c
  1871  0029EA  5C12               	subwf	___awdiv@dividend^0,w,c
  1872  0029EC  5015               	movf	(___awdiv@divisor+1)^0,w,c
  1873  0029EE  5813               	subwfb	(___awdiv@dividend+1)^0,w,c
  1874  0029F0  A0D8               	btfss	status,0,c
  1875  0029F2  EFFD  F014         	goto	u3111
  1876  0029F6  EFFF  F014         	goto	u3110
  1877  0029FA                     u3111:
  1878  0029FA  EF04  F015         	goto	l3311
  1879  0029FE                     u3110:
  1880  0029FE  5014               	movf	___awdiv@divisor^0,w,c
  1881  002A00  5E12               	subwf	___awdiv@dividend^0,f,c
  1882  002A02  5015               	movf	(___awdiv@divisor+1)^0,w,c
  1883  002A04  5A13               	subwfb	(___awdiv@dividend+1)^0,f,c
  1884  002A06  8018               	bsf	___awdiv@quotient^0,0,c
  1885  002A08                     l3311:
  1886  002A08  90D8               	bcf	status,0,c
  1887  002A0A  3215               	rrcf	(___awdiv@divisor+1)^0,f,c
  1888  002A0C  3214               	rrcf	___awdiv@divisor^0,f,c
  1889  002A0E  2E16               	decfsz	___awdiv@counter^0,f,c
  1890  002A10  EFF1  F014         	goto	l3303
  1891  002A14                     l3315:
  1892  002A14  5017               	movf	___awdiv@sign^0,w,c
  1893  002A16  B4D8               	btfsc	status,2,c
  1894  002A18  EF10  F015         	goto	u3121
  1895  002A1C  EF12  F015         	goto	u3120
  1896  002A20                     u3121:
  1897  002A20  EF16  F015         	goto	l3319
  1898  002A24                     u3120:
  1899  002A24  6C18               	negf	___awdiv@quotient^0,c
  1900  002A26  1E19               	comf	(___awdiv@quotient+1)^0,f,c
  1901  002A28  B0D8               	btfsc	status,0,c
  1902  002A2A  2A19               	incf	(___awdiv@quotient+1)^0,f,c
  1903  002A2C                     l3319:
  1904  002A2C  C018  F012         	movff	___awdiv@quotient,?___awdiv
  1905  002A30  C019  F013         	movff	___awdiv@quotient+1,?___awdiv+1
  1906  002A34  0012               	return		;funcret
  1907  002A36                     __end_of___awdiv:
  1908                           	opt callstack 0
  1909                           
  1910 ;; *************** function _automatic *****************
  1911 ;; Defined at:
  1912 ;;		line 439 in file "main.c"
  1913 ;; Parameters:    Size  Location     Type
  1914 ;;		None
  1915 ;; Auto vars:     Size  Location     Type
  1916 ;;		None
  1917 ;; Return value:  Size  Location     Type
  1918 ;;                  1    wreg      void 
  1919 ;; Registers used:
  1920 ;;		wreg, fsr0l, fsr0h, fsr2l, fsr2h, status,2, status,0, tblptrl, tblptrh, tblptru, prodl, prodh, cstack
  1921 ;; Tracked objects:
  1922 ;;		On entry : 0/0
  1923 ;;		On exit  : 0/0
  1924 ;;		Unchanged: 0/0
  1925 ;; Data sizes:     COMRAM   BANK0   BANK1   BANK2   BANK3   BANK4   BANK5   BANK6   BANK7
  1926 ;;      Params:         0       0       0       0       0       0       0       0       0
  1927 ;;      Locals:         0       0       0       0       0       0       0       0       0
  1928 ;;      Temps:          1       0       0       0       0       0       0       0       0
  1929 ;;      Totals:         1       0       0       0       0       0       0       0       0
  1930 ;;Total ram usage:        1 bytes
  1931 ;; Hardware stack levels used:    1
  1932 ;; Hardware stack levels required when called:    6
  1933 ;; This function calls:
  1934 ;;		_LCD_Goto
  1935 ;;		_LCD_Print
  1936 ;;		___fldiv
  1937 ;;		___flmul
  1938 ;;		___fltol
  1939 ;;		___wmul
  1940 ;;		___xxtofl
  1941 ;;		_atol
  1942 ;;		_keyfind
  1943 ;;		_memset
  1944 ;;		_sprintf
  1945 ;; This function is called by:
  1946 ;;		_modo
  1947 ;; This function uses a non-reentrant model
  1948 ;;
  1949                           
  1950                           	psect	text4
  1951  001B64                     __ptext4:
  1952                           	opt callstack 0
  1953  001B64                     _automatic:
  1954                           	opt callstack 23
  1955  001B64                     
  1956                           ;main.c: 440:     LCD_Goto(1,1);
  1957  001B64  0E01               	movlw	1
  1958  001B66  6E08               	movwf	LCD_Goto@row^0,c
  1959  001B68  0E01               	movlw	1
  1960  001B6A  EC36  F016         	call	_LCD_Goto
  1961  001B6E                     
  1962                           ;main.c: 441:     LCD_Print("SETPOINT");
  1963  001B6E  0E67               	movlw	low STR_27
  1964  001B70  6E06               	movwf	LCD_Print@LCD_Str^0,c
  1965  001B72  0E08               	movlw	high STR_27
  1966  001B74  6E07               	movwf	(LCD_Print@LCD_Str+1)^0,c
  1967  001B76  EC1B  F015         	call	_LCD_Print	;wreg free
  1968  001B7A                     
  1969                           ;main.c: 442:     LCD_Goto(10,1);
  1970  001B7A  0E01               	movlw	1
  1971  001B7C  6E08               	movwf	LCD_Goto@row^0,c
  1972  001B7E  0E0A               	movlw	10
  1973  001B80  EC36  F016         	call	_LCD_Goto
  1974  001B84                     l3419:
  1975                           
  1976                           ;main.c: 444:         tecla = keyfind();
  1977  001B84  EC5F  F00F         	call	_keyfind	;wreg free
  1978  001B88  6E4B               	movwf	_tecla^0,c
  1979  001B8A                     
  1980                           ;main.c: 445:         _delay((unsigned long)((30)*(20000000/4000.0)));
  1981  001B8A  0EC3               	movlw	195
  1982  001B8C  6E34               	movwf	??_automatic^0,c
  1983  001B8E  0ECD               	movlw	205
  1984  001B90                     u4597:
  1985  001B90  2EE8               	decfsz	wreg,f,c
  1986  001B92  D7FE               	bra	u4597
  1987  001B94  2E34               	decfsz	??_automatic^0,f,c
  1988  001B96  D7FC               	bra	u4597
  1989  001B98  F000               	nop	
  1990  001B9A                     
  1991                           ;main.c: 446:         if(tecla!=' '){
  1992  001B9A  0E20               	movlw	32
  1993  001B9C  184B               	xorwf	_tecla^0,w,c
  1994  001B9E  B4D8               	btfsc	status,2,c
  1995  001BA0  EFD4  F00D         	goto	u3301
  1996  001BA4  EFD6  F00D         	goto	u3300
  1997  001BA8                     u3301:
  1998  001BA8  EFC2  F00D         	goto	l3419
  1999  001BAC                     u3300:
  2000  001BAC                     
  2001                           ;main.c: 447:             if(tecla!='A' && tecla!='B' && tecla!='C' && tecla!='D' && tec
      +                          la!='E'){
  2002  001BAC  0E41               	movlw	65
  2003  001BAE  184B               	xorwf	_tecla^0,w,c
  2004  001BB0  B4D8               	btfsc	status,2,c
  2005  001BB2  EFDD  F00D         	goto	u3311
  2006  001BB6  EFDF  F00D         	goto	u3310
  2007  001BBA                     u3311:
  2008  001BBA  EF0D  F00E         	goto	l3439
  2009  001BBE                     u3310:
  2010  001BBE  0E42               	movlw	66
  2011  001BC0  184B               	xorwf	_tecla^0,w,c
  2012  001BC2  B4D8               	btfsc	status,2,c
  2013  001BC4  EFE6  F00D         	goto	u3321
  2014  001BC8  EFE8  F00D         	goto	u3320
  2015  001BCC                     u3321:
  2016  001BCC  EF0D  F00E         	goto	l3439
  2017  001BD0                     u3320:
  2018  001BD0  0E43               	movlw	67
  2019  001BD2  184B               	xorwf	_tecla^0,w,c
  2020  001BD4  B4D8               	btfsc	status,2,c
  2021  001BD6  EFEF  F00D         	goto	u3331
  2022  001BDA  EFF1  F00D         	goto	u3330
  2023  001BDE                     u3331:
  2024  001BDE  EF0D  F00E         	goto	l3439
  2025  001BE2                     u3330:
  2026  001BE2  0E44               	movlw	68
  2027  001BE4  184B               	xorwf	_tecla^0,w,c
  2028  001BE6  B4D8               	btfsc	status,2,c
  2029  001BE8  EFF8  F00D         	goto	u3341
  2030  001BEC  EFFA  F00D         	goto	u3340
  2031  001BF0                     u3341:
  2032  001BF0  EF0D  F00E         	goto	l3439
  2033  001BF4                     u3340:
  2034  001BF4  0E45               	movlw	69
  2035  001BF6  184B               	xorwf	_tecla^0,w,c
  2036  001BF8  B4D8               	btfsc	status,2,c
  2037  001BFA  EF01  F00E         	goto	u3351
  2038  001BFE  EF03  F00E         	goto	u3350
  2039  001C02                     u3351:
  2040  001C02  EF0D  F00E         	goto	l3439
  2041  001C06                     u3350:
  2042  001C06                     
  2043                           ;main.c: 448:                 sp[insp]=tecla;
  2044  001C06  0E51               	movlw	low _sp
  2045  001C08  2443               	addwf	_insp^0,w,c
  2046  001C0A  6ED9               	movwf	fsr2l,c
  2047  001C0C  0E00               	movlw	high _sp
  2048  001C0E  2044               	addwfc	(_insp+1)^0,w,c
  2049  001C10  6EDA               	movwf	fsr2h,c
  2050  001C12  C04B  FFDF         	movff	_tecla,indf2
  2051  001C16                     
  2052                           ;main.c: 449:                 insp++;
  2053  001C16  4A43               	infsnz	_insp^0,f,c
  2054  001C18  2A44               	incf	(_insp+1)^0,f,c
  2055  001C1A                     l3439:
  2056                           
  2057                           ;main.c: 451:             if(tecla=='E'){
  2058  001C1A  0E45               	movlw	69
  2059  001C1C  184B               	xorwf	_tecla^0,w,c
  2060  001C1E  A4D8               	btfss	status,2,c
  2061  001C20  EF14  F00E         	goto	u3361
  2062  001C24  EF16  F00E         	goto	u3360
  2063  001C28                     u3361:
  2064  001C28  EFC2  F00D         	goto	l3419
  2065  001C2C                     u3360:
  2066  001C2C                     
  2067                           ;main.c: 452:                 SetPoint = atol(sp);
  2068  001C2C  0E51               	movlw	low _sp
  2069  001C2E  6E0E               	movwf	atol@s^0,c
  2070  001C30  0E00               	movlw	high _sp
  2071  001C32  6E0F               	movwf	(atol@s+1)^0,c
  2072  001C34  EC22  F013         	call	_atol	;wreg free
  2073  001C38  C00E  F070         	movff	?_atol,_SetPoint
  2074  001C3C  C00F  F071         	movff	?_atol+1,_SetPoint+1
  2075  001C40  C010  F072         	movff	?_atol+2,_SetPoint+2
  2076  001C44  C011  F073         	movff	?_atol+3,_SetPoint+3
  2077  001C48                     
  2078                           ;main.c: 453:                 LCD_Goto(1,2);
  2079  001C48  0E02               	movlw	2
  2080  001C4A  6E08               	movwf	LCD_Goto@row^0,c
  2081  001C4C  0E01               	movlw	1
  2082  001C4E  EC36  F016         	call	_LCD_Goto
  2083  001C52                     
  2084                           ;main.c: 454:                 LCD_Print("TEMP.");
  2085  001C52  0E80               	movlw	low STR_28
  2086  001C54  6E06               	movwf	LCD_Print@LCD_Str^0,c
  2087  001C56  0E08               	movlw	high STR_28
  2088  001C58  6E07               	movwf	(LCD_Print@LCD_Str+1)^0,c
  2089  001C5A  EC1B  F015         	call	_LCD_Print	;wreg free
  2090  001C5E                     
  2091                           ;main.c: 455:                 INT2IE = 1;
  2092  001C5E  88F0               	bsf	4080,4,c	;volatile
  2093  001C60                     l3449:
  2094                           
  2095                           ;main.c: 460:                     ADCON0 = 0x04;
  2096  001C60  0E04               	movlw	4
  2097  001C62  6EC2               	movwf	194,c	;volatile
  2098  001C64                     
  2099                           ;main.c: 461:                     ADCON0bits.ADON = 1;
  2100  001C64  80C2               	bsf	194,0,c	;volatile
  2101  001C66                     
  2102                           ;main.c: 462:                     _delay((unsigned long)((20)*(20000000/4000000.0)));
  2103  001C66  0E21               	movlw	33
  2104  001C68                     u4607:
  2105  001C68  2EE8               	decfsz	wreg,f,c
  2106  001C6A  D7FE               	bra	u4607
  2107  001C6C  F000               	nop	
  2108  001C6E                     
  2109                           ;main.c: 463:                     ADCON0bits.GO = 1;
  2110  001C6E  82C2               	bsf	194,1,c	;volatile
  2111  001C70                     l223:
  2112  001C70  B2C2               	btfsc	194,1,c	;volatile
  2113  001C72  EF3D  F00E         	goto	u3371
  2114  001C76  EF3F  F00E         	goto	u3370
  2115  001C7A                     u3371:
  2116  001C7A  EF38  F00E         	goto	l223
  2117  001C7E                     u3370:
  2118  001C7E                     
  2119                           ;main.c: 465:                     celsius = ADRES;
  2120  001C7E  CFC3 F002          	movff	4035,___xxtofl@val	;volatile
  2121  001C82  CFC4 F003          	movff	4036,___xxtofl@val+1	;volatile
  2122  001C86  6A04               	clrf	(___xxtofl@val+2)^0,c
  2123  001C88  6A05               	clrf	(___xxtofl@val+3)^0,c
  2124  001C8A  0E00               	movlw	0
  2125  001C8C  ECA7  F011         	call	___xxtofl
  2126  001C90  C002  F035         	movff	?___xxtofl,_celsius
  2127  001C94  C003  F036         	movff	?___xxtofl+1,_celsius+1
  2128  001C98  C004  F037         	movff	?___xxtofl+2,_celsius+2
  2129  001C9C  C005  F038         	movff	?___xxtofl+3,_celsius+3
  2130  001CA0                     
  2131                           ;main.c: 466:                     celsius = (celsius*500);
  2132  001CA0  C035  F002         	movff	_celsius,___flmul@b
  2133  001CA4  C036  F003         	movff	_celsius+1,___flmul@b+1
  2134  001CA8  C037  F004         	movff	_celsius+2,___flmul@b+2
  2135  001CAC  C038  F005         	movff	_celsius+3,___flmul@b+3
  2136  001CB0  0E00               	movlw	0
  2137  001CB2  6E06               	movwf	___flmul@a^0,c
  2138  001CB4  0E00               	movlw	0
  2139  001CB6  6E07               	movwf	(___flmul@a+1)^0,c
  2140  001CB8  0EFA               	movlw	250
  2141  001CBA  6E08               	movwf	(___flmul@a+2)^0,c
  2142  001CBC  0E43               	movlw	67
  2143  001CBE  6E09               	movwf	(___flmul@a+3)^0,c
  2144  001CC0  ECD0  F009         	call	___flmul	;wreg free
  2145  001CC4  C002  F035         	movff	?___flmul,_celsius
  2146  001CC8  C003  F036         	movff	?___flmul+1,_celsius+1
  2147  001CCC  C004  F037         	movff	?___flmul+2,_celsius+2
  2148  001CD0  C005  F038         	movff	?___flmul+3,_celsius+3
  2149  001CD4                     
  2150                           ;main.c: 467:                     celsius = celsius/1024;
  2151  001CD4  C035  F01B         	movff	_celsius,___fldiv@b
  2152  001CD8  C036  F01C         	movff	_celsius+1,___fldiv@b+1
  2153  001CDC  C037  F01D         	movff	_celsius+2,___fldiv@b+2
  2154  001CE0  C038  F01E         	movff	_celsius+3,___fldiv@b+3
  2155  001CE4  0E00               	movlw	0
  2156  001CE6  6E1F               	movwf	___fldiv@a^0,c
  2157  001CE8  0E00               	movlw	0
  2158  001CEA  6E20               	movwf	(___fldiv@a+1)^0,c
  2159  001CEC  0E80               	movlw	128
  2160  001CEE  6E21               	movwf	(___fldiv@a+2)^0,c
  2161  001CF0  0E44               	movlw	68
  2162  001CF2  6E22               	movwf	(___fldiv@a+3)^0,c
  2163  001CF4  ECE5  F00B         	call	___fldiv	;wreg free
  2164  001CF8  C01B  F035         	movff	?___fldiv,_celsius
  2165  001CFC  C01C  F036         	movff	?___fldiv+1,_celsius+1
  2166  001D00  C01D  F037         	movff	?___fldiv+2,_celsius+2
  2167  001D04  C01E  F038         	movff	?___fldiv+3,_celsius+3
  2168  001D08                     
  2169                           ;main.c: 468:                     ADCON0bits.ADON = 0;
  2170  001D08  90C2               	bcf	194,0,c	;volatile
  2171  001D0A                     
  2172                           ;main.c: 470:                     ADCON0 = 0x04;
  2173  001D0A  0E04               	movlw	4
  2174  001D0C  6EC2               	movwf	194,c	;volatile
  2175  001D0E                     
  2176                           ;main.c: 471:                     ADCON0bits.ADON = 1;
  2177  001D0E  80C2               	bsf	194,0,c	;volatile
  2178  001D10                     
  2179                           ;main.c: 472:                     _delay((unsigned long)((20)*(20000000/4000000.0)));
  2180  001D10  0E21               	movlw	33
  2181  001D12                     u4617:
  2182  001D12  2EE8               	decfsz	wreg,f,c
  2183  001D14  D7FE               	bra	u4617
  2184  001D16  F000               	nop	
  2185  001D18                     
  2186                           ;main.c: 473:                     ADCON0bits.GO = 1;
  2187  001D18  82C2               	bsf	194,1,c	;volatile
  2188  001D1A                     l226:
  2189  001D1A  B2C2               	btfsc	194,1,c	;volatile
  2190  001D1C  EF92  F00E         	goto	u3381
  2191  001D20  EF94  F00E         	goto	u3380
  2192  001D24                     u3381:
  2193  001D24  EF8D  F00E         	goto	l226
  2194  001D28                     u3380:
  2195  001D28                     
  2196                           ;main.c: 475:                     celsius = ADRES;
  2197  001D28  CFC3 F002          	movff	4035,___xxtofl@val	;volatile
  2198  001D2C  CFC4 F003          	movff	4036,___xxtofl@val+1	;volatile
  2199  001D30  6A04               	clrf	(___xxtofl@val+2)^0,c
  2200  001D32  6A05               	clrf	(___xxtofl@val+3)^0,c
  2201  001D34  0E00               	movlw	0
  2202  001D36  ECA7  F011         	call	___xxtofl
  2203  001D3A  C002  F035         	movff	?___xxtofl,_celsius
  2204  001D3E  C003  F036         	movff	?___xxtofl+1,_celsius+1
  2205  001D42  C004  F037         	movff	?___xxtofl+2,_celsius+2
  2206  001D46  C005  F038         	movff	?___xxtofl+3,_celsius+3
  2207  001D4A                     
  2208                           ;main.c: 476:                     celsius = (celsius*500);
  2209  001D4A  C035  F002         	movff	_celsius,___flmul@b
  2210  001D4E  C036  F003         	movff	_celsius+1,___flmul@b+1
  2211  001D52  C037  F004         	movff	_celsius+2,___flmul@b+2
  2212  001D56  C038  F005         	movff	_celsius+3,___flmul@b+3
  2213  001D5A  0E00               	movlw	0
  2214  001D5C  6E06               	movwf	___flmul@a^0,c
  2215  001D5E  0E00               	movlw	0
  2216  001D60  6E07               	movwf	(___flmul@a+1)^0,c
  2217  001D62  0EFA               	movlw	250
  2218  001D64  6E08               	movwf	(___flmul@a+2)^0,c
  2219  001D66  0E43               	movlw	67
  2220  001D68  6E09               	movwf	(___flmul@a+3)^0,c
  2221  001D6A  ECD0  F009         	call	___flmul	;wreg free
  2222  001D6E  C002  F035         	movff	?___flmul,_celsius
  2223  001D72  C003  F036         	movff	?___flmul+1,_celsius+1
  2224  001D76  C004  F037         	movff	?___flmul+2,_celsius+2
  2225  001D7A  C005  F038         	movff	?___flmul+3,_celsius+3
  2226  001D7E                     
  2227                           ;main.c: 477:                     celsius = celsius/1024;
  2228  001D7E  C035  F01B         	movff	_celsius,___fldiv@b
  2229  001D82  C036  F01C         	movff	_celsius+1,___fldiv@b+1
  2230  001D86  C037  F01D         	movff	_celsius+2,___fldiv@b+2
  2231  001D8A  C038  F01E         	movff	_celsius+3,___fldiv@b+3
  2232  001D8E  0E00               	movlw	0
  2233  001D90  6E1F               	movwf	___fldiv@a^0,c
  2234  001D92  0E00               	movlw	0
  2235  001D94  6E20               	movwf	(___fldiv@a+1)^0,c
  2236  001D96  0E80               	movlw	128
  2237  001D98  6E21               	movwf	(___fldiv@a+2)^0,c
  2238  001D9A  0E44               	movlw	68
  2239  001D9C  6E22               	movwf	(___fldiv@a+3)^0,c
  2240  001D9E  ECE5  F00B         	call	___fldiv	;wreg free
  2241  001DA2  C01B  F035         	movff	?___fldiv,_celsius
  2242  001DA6  C01C  F036         	movff	?___fldiv+1,_celsius+1
  2243  001DAA  C01D  F037         	movff	?___fldiv+2,_celsius+2
  2244  001DAE  C01E  F038         	movff	?___fldiv+3,_celsius+3
  2245  001DB2                     
  2246                           ;main.c: 478:                     sprintf(Temperatura,"%d C",(int)celsius);
  2247  001DB2  0E8C               	movlw	low _Temperatura
  2248  001DB4  6E1A               	movwf	sprintf@sp^0,c
  2249  001DB6  0E00               	movlw	high _Temperatura
  2250  001DB8  6E1B               	movwf	(sprintf@sp+1)^0,c
  2251  001DBA  0E86               	movlw	low STR_29
  2252  001DBC  6E1C               	movwf	sprintf@f^0,c
  2253  001DBE  0E08               	movlw	high STR_29
  2254  001DC0  6E1D               	movwf	(sprintf@f+1)^0,c
  2255  001DC2  C035  F002         	movff	_celsius,___fltol@f1
  2256  001DC6  C036  F003         	movff	_celsius+1,___fltol@f1+1
  2257  001DCA  C037  F004         	movff	_celsius+2,___fltol@f1+2
  2258  001DCE  C038  F005         	movff	_celsius+3,___fltol@f1+3
  2259  001DD2  ECBF  F013         	call	___fltol	;wreg free
  2260  001DD6  C002  F01E         	movff	?___fltol,?_sprintf+4
  2261  001DDA  C003  F01F         	movff	?___fltol+1,?_sprintf+5
  2262  001DDE  ECCD  F010         	call	_sprintf	;wreg free
  2263  001DE2                     
  2264                           ;main.c: 479:                     LCD_Goto (7,2);
  2265  001DE2  0E02               	movlw	2
  2266  001DE4  6E08               	movwf	LCD_Goto@row^0,c
  2267  001DE6  0E07               	movlw	7
  2268  001DE8  EC36  F016         	call	_LCD_Goto
  2269  001DEC                     
  2270                           ;main.c: 480:                     LCD_Print(Temperatura);
  2271  001DEC  0E8C               	movlw	low _Temperatura
  2272  001DEE  6E06               	movwf	LCD_Print@LCD_Str^0,c
  2273  001DF0  0E00               	movlw	high _Temperatura
  2274  001DF2  6E07               	movwf	(LCD_Print@LCD_Str+1)^0,c
  2275  001DF4  EC1B  F015         	call	_LCD_Print	;wreg free
  2276  001DF8                     
  2277                           ;main.c: 481:                     ADCON0bits.ADON = 0;
  2278  001DF8  90C2               	bcf	194,0,c	;volatile
  2279  001DFA                     
  2280                           ;main.c: 483:                     Tem_Act = (int)celsius;
  2281  001DFA  C035  F002         	movff	_celsius,___fltol@f1
  2282  001DFE  C036  F003         	movff	_celsius+1,___fltol@f1+1
  2283  001E02  C037  F004         	movff	_celsius+2,___fltol@f1+2
  2284  001E06  C038  F005         	movff	_celsius+3,___fltol@f1+3
  2285  001E0A  ECBF  F013         	call	___fltol	;wreg free
  2286  001E0E  C002  F041         	movff	?___fltol,_Tem_Act
  2287  001E12  C003  F042         	movff	?___fltol+1,_Tem_Act+1
  2288  001E16                     
  2289                           ;main.c: 486:                     error = (SetPoint-Tem_Act);
  2290  001E16  5041               	movf	_Tem_Act^0,w,c
  2291  001E18  0100               	movlb	0	; () banked
  2292  001E1A  5D70               	subwf	_SetPoint& (0+255),w,b
  2293  001E1C  6E3F               	movwf	_error^0,c
  2294  001E1E  5042               	movf	(_Tem_Act+1)^0,w,c
  2295  001E20  5971               	subwfb	(_SetPoint+1)& (0+255),w,b
  2296  001E22  6E40               	movwf	(_error+1)^0,c
  2297  001E24                     
  2298                           ; BSR set to: 0
  2299                           ;main.c: 487:                     error = (error*1023);
  2300  001E24  C03F  F00C         	movff	_error,___wmul@multiplier
  2301  001E28  C040  F00D         	movff	_error+1,___wmul@multiplier+1
  2302  001E2C  0E03               	movlw	3
  2303  001E2E  6E0F               	movwf	(___wmul@multiplicand+1)^0,c
  2304  001E30  680E               	setf	___wmul@multiplicand^0,c
  2305  001E32  ECF5  F017         	call	___wmul	;wreg free
  2306  001E36  C00C  F03F         	movff	?___wmul,_error
  2307  001E3A  C00D  F040         	movff	?___wmul+1,_error+1
  2308  001E3E                     
  2309                           ;main.c: 488:                     error = (2130 - error);
  2310  001E3E  503F               	movf	_error^0,w,c
  2311  001E40  0852               	sublw	82
  2312  001E42  6E3F               	movwf	_error^0,c
  2313  001E44  5040               	movf	(_error+1)^0,w,c
  2314  001E46  A0D8               	btfss	status,0,c
  2315  001E48  2AE8               	incf	wreg,f,c
  2316  001E4A  0808               	sublw	8
  2317  001E4C  6E40               	movwf	(_error+1)^0,c
  2318  001E4E                     
  2319                           ;main.c: 490:                     if(error > 2130){
  2320  001E4E  BE40               	btfsc	(_error+1)^0,7,c
  2321  001E50  EF33  F00F         	goto	u3391
  2322  001E54  0E53               	movlw	83
  2323  001E56  5C3F               	subwf	_error^0,w,c
  2324  001E58  0E08               	movlw	8
  2325  001E5A  5840               	subwfb	(_error+1)^0,w,c
  2326  001E5C  A0D8               	btfss	status,0,c
  2327  001E5E  EF33  F00F         	goto	u3391
  2328  001E62  EF35  F00F         	goto	u3390
  2329  001E66                     u3391:
  2330  001E66  EF3B  F00F         	goto	l3499
  2331  001E6A                     u3390:
  2332  001E6A                     
  2333                           ;main.c: 491:                         error = 2130;
  2334  001E6A  0E08               	movlw	8
  2335  001E6C  6E40               	movwf	(_error+1)^0,c
  2336  001E6E  0E52               	movlw	82
  2337  001E70  6E3F               	movwf	_error^0,c
  2338                           
  2339                           ;main.c: 492:                     }
  2340  001E72  EF46  F00F         	goto	l3503
  2341  001E76                     l3499:
  2342  001E76  BE40               	btfsc	(_error+1)^0,7,c
  2343  001E78  EF42  F00F         	goto	u3400
  2344  001E7C  EF40  F00F         	goto	u3401
  2345  001E80                     u3401:
  2346  001E80  EF46  F00F         	goto	l3503
  2347  001E84                     u3400:
  2348  001E84                     
  2349                           ;main.c: 494:                         error = 0;
  2350  001E84  0E00               	movlw	0
  2351  001E86  6E40               	movwf	(_error+1)^0,c
  2352  001E88  0E00               	movlw	0
  2353  001E8A  6E3F               	movwf	_error^0,c
  2354  001E8C                     l3503:
  2355                           
  2356                           ;main.c: 498:                     v = error;
  2357  001E8C  C03F  F057         	movff	_error,_v
  2358  001E90  C040  F058         	movff	_error+1,_v+1
  2359  001E94                     
  2360                           ;main.c: 501:                     _delay((unsigned long)((100)*(20000000/4000000.0)));
  2361  001E94  0EA6               	movlw	166
  2362  001E96                     u4627:
  2363  001E96  2EE8               	decfsz	wreg,f,c
  2364  001E98  D7FE               	bra	u4627
  2365  001E9A  D000               	nop2	
  2366  001E9C                     
  2367                           ;main.c: 502:                     memset (Temperatura,0,10);
  2368  001E9C  0E8C               	movlw	low _Temperatura
  2369  001E9E  6E02               	movwf	memset@p1^0,c
  2370  001EA0  0E00               	movlw	high _Temperatura
  2371  001EA2  6E03               	movwf	(memset@p1+1)^0,c
  2372  001EA4  0E00               	movlw	0
  2373  001EA6  6E05               	movwf	(memset@c+1)^0,c
  2374  001EA8  0E00               	movlw	0
  2375  001EAA  6E04               	movwf	memset@c^0,c
  2376  001EAC  0E00               	movlw	0
  2377  001EAE  6E07               	movwf	(memset@n+1)^0,c
  2378  001EB0  0E0A               	movlw	10
  2379  001EB2  6E06               	movwf	memset@n^0,c
  2380  001EB4  EC66  F017         	call	_memset	;wreg free
  2381  001EB8  EF30  F00E         	goto	l3449
  2382  001EBC  0012               	return		;funcret
  2383  001EBE                     __end_of_automatic:
  2384                           	opt callstack 0
  2385                           
  2386 ;; *************** function _sprintf *****************
  2387 ;; Defined at:
  2388 ;;		line 505 in file "C:\Program Files (x86)\Microchip\xc8\v2.10\pic\sources\c90\common\doprnt.c"
  2389 ;; Parameters:    Size  Location     Type
  2390 ;;  sp              2   25[COMRAM] PTR unsigned char 
  2391 ;;		 -> Potencio(10), Temperatura(10), 
  2392 ;;  f               2   27[COMRAM] PTR const unsigned char 
  2393 ;;		 -> STR_35(4), STR_34(4), STR_33(5), STR_32(5), 
  2394 ;;		 -> STR_29(5), 
  2395 ;; Auto vars:     Size  Location     Type
  2396 ;;  tmpval          4    0        struct .
  2397 ;;  cp              3    0        PTR const unsigned char 
  2398 ;;  val             2   37[COMRAM] unsigned int 
  2399 ;;  ap              2   33[COMRAM] PTR void [1]
  2400 ;;		 -> ?_sprintf(2), 
  2401 ;;  len             2    0        unsigned int 
  2402 ;;  c               1   39[COMRAM] unsigned char 
  2403 ;;  prec            1   36[COMRAM] char 
  2404 ;;  flag            1   35[COMRAM] unsigned char 
  2405 ;; Return value:  Size  Location     Type
  2406 ;;                  2   25[COMRAM] int 
  2407 ;; Registers used:
  2408 ;;		wreg, fsr2l, fsr2h, status,2, status,0, tblptrl, tblptrh, tblptru, prodl, prodh, cstack
  2409 ;; Tracked objects:
  2410 ;;		On entry : 0/0
  2411 ;;		On exit  : 0/0
  2412 ;;		Unchanged: 0/0
  2413 ;; Data sizes:     COMRAM   BANK0   BANK1   BANK2   BANK3   BANK4   BANK5   BANK6   BANK7
  2414 ;;      Params:         6       0       0       0       0       0       0       0       0
  2415 ;;      Locals:         7       0       0       0       0       0       0       0       0
  2416 ;;      Temps:          2       0       0       0       0       0       0       0       0
  2417 ;;      Totals:        15       0       0       0       0       0       0       0       0
  2418 ;;Total ram usage:       15 bytes
  2419 ;; Hardware stack levels used:    1
  2420 ;; Hardware stack levels required when called:    2
  2421 ;; This function calls:
  2422 ;;		___lwdiv
  2423 ;;		___lwmod
  2424 ;; This function is called by:
  2425 ;;		_automatic
  2426 ;;		_manual
  2427 ;; This function uses a non-reentrant model
  2428 ;;
  2429                           
  2430                           	psect	text5
  2431  00219A                     __ptext5:
  2432                           	opt callstack 0
  2433  00219A                     _sprintf:
  2434                           	opt callstack 26
  2435  00219A                     
  2436                           ;C:\Program Files (x86)\Microchip\xc8\v2.10\pic\sources\c90\common\doprnt.c: 505: sprint
      +                          f(char * sp, const char * f, ...);C:\Program Files (x86)\Microchip\xc8\v2.10\pic\sources
      +                          \c90\common\doprnt.c: 506: {;C:\Program Files (x86)\Microchip\xc8\v2.10\pic\sources\c90\
      +                          common\doprnt.c: 507:  va_list ap;;C:\Program Files (x86)\Microchip\xc8\v2.10\pic\source
      +                          s\c90\common\doprnt.c: 512:  char c;;C:\Program Files (x86)\Microchip\xc8\v2.10\pic\sour
      +                          ces\c90\common\doprnt.c: 521:  signed char prec;;C:\Program Files (x86)\Microchip\xc8\v2
      +                          .10\pic\sources\c90\common\doprnt.c: 525:  unsigned char flag;
  2437  00219A  0E1E               	movlw	low (?_sprintf+4)
  2438  00219C  6E22               	movwf	sprintf@ap^0,c
  2439  00219E  0E00               	movlw	high (?_sprintf+4)
  2440  0021A0  6E23               	movwf	(sprintf@ap+1)^0,c
  2441                           
  2442                           ;C:\Program Files (x86)\Microchip\xc8\v2.10\pic\sources\c90\common\doprnt.c: 553:  while
      +                          ((c = *f++)) {
  2443  0021A2  EF8F  F011         	goto	l2995
  2444  0021A6                     l2943:
  2445                           
  2446                           ;C:\Program Files (x86)\Microchip\xc8\v2.10\pic\sources\c90\common\doprnt.c: 555:   if(c
      +                           != '%')
  2447  0021A6  0E25               	movlw	37
  2448  0021A8  1828               	xorwf	sprintf@c^0,w,c
  2449  0021AA  B4D8               	btfsc	status,2,c
  2450  0021AC  EFDA  F010         	goto	u2581
  2451  0021B0  EFDC  F010         	goto	u2580
  2452  0021B4                     u2581:
  2453  0021B4  EFE6  F010         	goto	l2949
  2454  0021B8                     u2580:
  2455  0021B8                     
  2456                           ;C:\Program Files (x86)\Microchip\xc8\v2.10\pic\sources\c90\common\doprnt.c: 557:   {;C:
      +                          \Program Files (x86)\Microchip\xc8\v2.10\pic\sources\c90\common\doprnt.c: 558:    ((*sp+
      +                          + = (c)));
  2457  0021B8  C01A  FFD9         	movff	sprintf@sp,fsr2l
  2458  0021BC  C01B  FFDA         	movff	sprintf@sp+1,fsr2h
  2459  0021C0  C028  FFDF         	movff	sprintf@c,indf2
  2460  0021C4  4A1A               	infsnz	sprintf@sp^0,f,c
  2461  0021C6  2A1B               	incf	(sprintf@sp+1)^0,f,c
  2462                           
  2463                           ;C:\Program Files (x86)\Microchip\xc8\v2.10\pic\sources\c90\common\doprnt.c: 559:    con
      +                          tinue;
  2464  0021C8  EF8F  F011         	goto	l2995
  2465  0021CC                     l2949:
  2466                           
  2467                           ;C:\Program Files (x86)\Microchip\xc8\v2.10\pic\sources\c90\common\doprnt.c: 565:   flag
      +                           = 0;
  2468  0021CC  0E00               	movlw	0
  2469  0021CE  6E24               	movwf	sprintf@flag^0,c
  2470  0021D0  C01C  FFF6         	movff	sprintf@f,tblptrl
  2471  0021D4  C01D  FFF7         	movff	sprintf@f+1,tblptrh
  2472  0021D8  4A1C               	infsnz	sprintf@f^0,f,c
  2473  0021DA  2A1D               	incf	(sprintf@f+1)^0,f,c
  2474  0021DC                     	if	0	;tblptru may be non-zero
  2475  0021DC                     	endif
  2476  0021DC                     	if	0	;tblptru may be non-zero
  2477  0021DC                     	endif
  2478  0021DC  0008               	tblrd		*
  2479  0021DE  CFF5 F028          	movff	tablat,sprintf@c
  2480  0021E2  5028               	movf	sprintf@c^0,w,c
  2481  0021E4  6E20               	movwf	??_sprintf^0,c
  2482  0021E6  6A21               	clrf	(??_sprintf+1)^0,c
  2483                           
  2484                           ; Switch on 2 bytes has been partitioned into a top level switch of size 1, and 1 sub-sw
      +                          itches
  2485                           ; Switch size 1, requested type "simple"
  2486                           ; Number of cases is 1, Range of values is 0 to 0
  2487                           ; switch strategies available:
  2488                           ; Name         Instructions Cycles
  2489                           ; simple_byte            4     3 (average)
  2490                           ;	Chosen strategy is simple_byte
  2491  0021E8  5021               	movf	(??_sprintf+1)^0,w,c
  2492  0021EA  0A00               	xorlw	0	; case 0
  2493  0021EC  B4D8               	btfsc	status,2,c
  2494  0021EE  EFFB  F010         	goto	l4361
  2495  0021F2  EF8F  F011         	goto	l2995
  2496  0021F6                     l4361:
  2497                           
  2498                           ; Switch size 1, requested type "simple"
  2499                           ; Number of cases is 3, Range of values is 0 to 105
  2500                           ; switch strategies available:
  2501                           ; Name         Instructions Cycles
  2502                           ; simple_byte           10     6 (average)
  2503                           ;	Chosen strategy is simple_byte
  2504  0021F6  5020               	movf	??_sprintf^0,w,c
  2505  0021F8  0A00               	xorlw	0	; case 0
  2506  0021FA  B4D8               	btfsc	status,2,c
  2507  0021FC  EFA0  F011         	goto	l2997
  2508  002200  0A64               	xorlw	100	; case 100
  2509  002202  B4D8               	btfsc	status,2,c
  2510  002204  EF0A  F011         	goto	l2955
  2511  002208  0A0D               	xorlw	13	; case 105
  2512  00220A  B4D8               	btfsc	status,2,c
  2513  00220C  EF0A  F011         	goto	l2955
  2514  002210  EF8F  F011         	goto	l2995
  2515  002214                     l2955:
  2516                           
  2517                           ;C:\Program Files (x86)\Microchip\xc8\v2.10\pic\sources\c90\common\doprnt.c: 1279:   {;C
      +                          :\Program Files (x86)\Microchip\xc8\v2.10\pic\sources\c90\common\doprnt.c: 1285:     val
      +                           = (unsigned int)(*(int *)__va_arg((*(int **)ap), (int)0));
  2518  002214  C022  FFD9         	movff	sprintf@ap,fsr2l
  2519  002218  C023  FFDA         	movff	sprintf@ap+1,fsr2h
  2520  00221C  CFDE F026          	movff	postinc2,sprintf@val
  2521  002220  CFDD F027          	movff	postdec2,sprintf@val+1
  2522  002224  0E02               	movlw	2
  2523  002226  2622               	addwf	sprintf@ap^0,f,c
  2524  002228  0E00               	movlw	0
  2525  00222A  2223               	addwfc	(sprintf@ap+1)^0,f,c
  2526  00222C                     
  2527                           ;C:\Program Files (x86)\Microchip\xc8\v2.10\pic\sources\c90\common\doprnt.c: 1287:    if
      +                          ((int)val < 0) {
  2528  00222C  BE27               	btfsc	(sprintf@val+1)^0,7,c
  2529  00222E  EF1D  F011         	goto	u2590
  2530  002232  EF1B  F011         	goto	u2591
  2531  002236                     u2591:
  2532  002236  EF23  F011         	goto	l2965
  2533  00223A                     u2590:
  2534  00223A                     
  2535                           ;C:\Program Files (x86)\Microchip\xc8\v2.10\pic\sources\c90\common\doprnt.c: 1288:     f
      +                          lag |= 0x03;
  2536  00223A  0E03               	movlw	3
  2537  00223C  1224               	iorwf	sprintf@flag^0,f,c
  2538  00223E                     
  2539                           ;C:\Program Files (x86)\Microchip\xc8\v2.10\pic\sources\c90\common\doprnt.c: 1289:     v
      +                          al = -val;
  2540  00223E  6C26               	negf	sprintf@val^0,c
  2541  002240  1E27               	comf	(sprintf@val+1)^0,f,c
  2542  002242  B0D8               	btfsc	status,0,c
  2543  002244  2A27               	incf	(sprintf@val+1)^0,f,c
  2544  002246                     l2965:
  2545                           
  2546                           ;C:\Program Files (x86)\Microchip\xc8\v2.10\pic\sources\c90\common\doprnt.c: 1292:   };C
      +                          :\Program Files (x86)\Microchip\xc8\v2.10\pic\sources\c90\common\doprnt.c: 1331:    for(
      +                          c = 1 ; c != sizeof dpowers/sizeof dpowers[0] ; c++)
  2547  002246  0E01               	movlw	1
  2548  002248  6E28               	movwf	sprintf@c^0,c
  2549  00224A                     l2971:
  2550                           
  2551                           ;C:\Program Files (x86)\Microchip\xc8\v2.10\pic\sources\c90\common\doprnt.c: 1332:     i
      +                          f(val < dpowers[c])
  2552  00224A  5028               	movf	sprintf@c^0,w,c
  2553  00224C  0D02               	mullw	2
  2554  00224E  0E01               	movlw	low _dpowers
  2555  002250  24F3               	addwf	243,w,c
  2556  002252  6EF6               	movwf	tblptrl,c
  2557  002254  0E08               	movlw	high _dpowers
  2558  002256  20F4               	addwfc	244,w,c
  2559  002258  6EF7               	movwf	tblptrh,c
  2560  00225A                     	if	0	;There are less than 3 active tblptr bytes
  2561  00225A                     	endif
  2562  00225A  0009               	tblrd		*+
  2563  00225C  50F5               	movf	tablat,w,c
  2564  00225E  5C26               	subwf	sprintf@val^0,w,c
  2565  002260  0009               	tblrd		*+
  2566  002262  50F5               	movf	tablat,w,c
  2567  002264  5827               	subwfb	(sprintf@val+1)^0,w,c
  2568  002266  B0D8               	btfsc	status,0,c
  2569  002268  EF38  F011         	goto	u2601
  2570  00226C  EF3A  F011         	goto	u2600
  2571  002270                     u2601:
  2572  002270  EF3C  F011         	goto	l2975
  2573  002274                     u2600:
  2574  002274  EF46  F011         	goto	l2979
  2575  002278                     l2975:
  2576  002278  2A28               	incf	sprintf@c^0,f,c
  2577  00227A  0E05               	movlw	5
  2578  00227C  1828               	xorwf	sprintf@c^0,w,c
  2579  00227E  A4D8               	btfss	status,2,c
  2580  002280  EF44  F011         	goto	u2611
  2581  002284  EF46  F011         	goto	u2610
  2582  002288                     u2611:
  2583  002288  EF25  F011         	goto	l2971
  2584  00228C                     u2610:
  2585  00228C                     l2979:
  2586                           
  2587                           ;C:\Program Files (x86)\Microchip\xc8\v2.10\pic\sources\c90\common\doprnt.c: 1448:   {;C
      +                          :\Program Files (x86)\Microchip\xc8\v2.10\pic\sources\c90\common\doprnt.c: 1464:    if(f
      +                          lag & 0x03)
  2588  00228C  C024  F020         	movff	sprintf@flag,??_sprintf
  2589  002290  0E03               	movlw	3
  2590  002292  1620               	andwf	??_sprintf^0,f,c
  2591  002294  B4D8               	btfsc	status,2,c
  2592  002296  EF4F  F011         	goto	u2621
  2593  00229A  EF51  F011         	goto	u2620
  2594  00229E                     u2621:
  2595  00229E  EF59  F011         	goto	l2985
  2596  0022A2                     u2620:
  2597  0022A2                     
  2598                           ;C:\Program Files (x86)\Microchip\xc8\v2.10\pic\sources\c90\common\doprnt.c: 1465:     (
      +                          (*sp++ = ('-')));
  2599  0022A2  C01A  FFD9         	movff	sprintf@sp,fsr2l
  2600  0022A6  C01B  FFDA         	movff	sprintf@sp+1,fsr2h
  2601  0022AA  0E2D               	movlw	45
  2602  0022AC  6EDF               	movwf	indf2,c
  2603  0022AE  4A1A               	infsnz	sprintf@sp^0,f,c
  2604  0022B0  2A1B               	incf	(sprintf@sp+1)^0,f,c
  2605  0022B2                     l2985:
  2606                           
  2607                           ;C:\Program Files (x86)\Microchip\xc8\v2.10\pic\sources\c90\common\doprnt.c: 1495:   };C
      +                          :\Program Files (x86)\Microchip\xc8\v2.10\pic\sources\c90\common\doprnt.c: 1498:   prec 
      +                          = c;
  2608  0022B2  C028  F025         	movff	sprintf@c,sprintf@prec
  2609                           
  2610                           ;C:\Program Files (x86)\Microchip\xc8\v2.10\pic\sources\c90\common\doprnt.c: 1500:   whi
      +                          le(prec--) {
  2611  0022B6  EF86  F011         	goto	l2993
  2612  0022BA                     l2987:
  2613                           
  2614                           ;C:\Program Files (x86)\Microchip\xc8\v2.10\pic\sources\c90\common\doprnt.c: 1504:    {;
      +                          C:\Program Files (x86)\Microchip\xc8\v2.10\pic\sources\c90\common\doprnt.c: 1515:     c 
      +                          = (val / dpowers[(unsigned char)prec]) % 10 + '0';
  2615  0022BA  5025               	movf	sprintf@prec^0,w,c
  2616  0022BC  0D02               	mullw	2
  2617  0022BE  0E01               	movlw	low _dpowers
  2618  0022C0  24F3               	addwf	243,w,c
  2619  0022C2  6EF6               	movwf	tblptrl,c
  2620  0022C4  0E08               	movlw	high _dpowers
  2621  0022C6  20F4               	addwfc	244,w,c
  2622  0022C8  6EF7               	movwf	tblptrh,c
  2623  0022CA                     	if	0	;There are less than 3 active tblptr bytes
  2624  0022CA                     	endif
  2625  0022CA  0009               	tblrd		*+
  2626  0022CC  CFF5 F004          	movff	tablat,___lwdiv@divisor
  2627  0022D0  000A               	tblrd		*-
  2628  0022D2  CFF5 F005          	movff	tablat,___lwdiv@divisor+1
  2629  0022D6  C026  F002         	movff	sprintf@val,___lwdiv@dividend
  2630  0022DA  C027  F003         	movff	sprintf@val+1,___lwdiv@dividend+1
  2631  0022DE  ECC7  F015         	call	___lwdiv	;wreg free
  2632  0022E2  C002  F009         	movff	?___lwdiv,___lwmod@dividend
  2633  0022E6  C003  F00A         	movff	?___lwdiv+1,___lwmod@dividend+1
  2634  0022EA  0E00               	movlw	0
  2635  0022EC  6E0C               	movwf	(___lwmod@divisor+1)^0,c
  2636  0022EE  0E0A               	movlw	10
  2637  0022F0  6E0B               	movwf	___lwmod@divisor^0,c
  2638  0022F2  EC9F  F016         	call	___lwmod	;wreg free
  2639  0022F6  5009               	movf	?___lwmod^0,w,c
  2640  0022F8  0F30               	addlw	48
  2641  0022FA  6E28               	movwf	sprintf@c^0,c
  2642  0022FC                     
  2643                           ;C:\Program Files (x86)\Microchip\xc8\v2.10\pic\sources\c90\common\doprnt.c: 1549:    };
      +                          C:\Program Files (x86)\Microchip\xc8\v2.10\pic\sources\c90\common\doprnt.c: 1550:    ((*
      +                          sp++ = (c)));
  2644  0022FC  C01A  FFD9         	movff	sprintf@sp,fsr2l
  2645  002300  C01B  FFDA         	movff	sprintf@sp+1,fsr2h
  2646  002304  C028  FFDF         	movff	sprintf@c,indf2
  2647  002308  4A1A               	infsnz	sprintf@sp^0,f,c
  2648  00230A  2A1B               	incf	(sprintf@sp+1)^0,f,c
  2649  00230C                     l2993:
  2650                           
  2651                           ;C:\Program Files (x86)\Microchip\xc8\v2.10\pic\sources\c90\common\doprnt.c: 1500:   whi
      +                          le(prec--) {
  2652  00230C  0625               	decf	sprintf@prec^0,f,c
  2653  00230E  2825               	incf	sprintf@prec^0,w,c
  2654  002310  A4D8               	btfss	status,2,c
  2655  002312  EF8D  F011         	goto	u2631
  2656  002316  EF8F  F011         	goto	u2630
  2657  00231A                     u2631:
  2658  00231A  EF5D  F011         	goto	l2987
  2659  00231E                     u2630:
  2660  00231E                     l2995:
  2661                           
  2662                           ;C:\Program Files (x86)\Microchip\xc8\v2.10\pic\sources\c90\common\doprnt.c: 553:  while
      +                          ((c = *f++)) {
  2663  00231E  C01C  FFF6         	movff	sprintf@f,tblptrl
  2664  002322  C01D  FFF7         	movff	sprintf@f+1,tblptrh
  2665  002326  4A1C               	infsnz	sprintf@f^0,f,c
  2666  002328  2A1D               	incf	(sprintf@f+1)^0,f,c
  2667  00232A                     	if	0	;tblptru may be non-zero
  2668  00232A                     	endif
  2669  00232A                     	if	0	;tblptru may be non-zero
  2670  00232A                     	endif
  2671  00232A  0008               	tblrd		*
  2672  00232C  CFF5 F028          	movff	tablat,sprintf@c
  2673  002330  5028               	movf	sprintf@c^0,w,c
  2674  002332  A4D8               	btfss	status,2,c
  2675  002334  EF9E  F011         	goto	u2641
  2676  002338  EFA0  F011         	goto	u2640
  2677  00233C                     u2641:
  2678  00233C  EFD3  F010         	goto	l2943
  2679  002340                     u2640:
  2680  002340                     l2997:
  2681                           
  2682                           ;C:\Program Files (x86)\Microchip\xc8\v2.10\pic\sources\c90\common\doprnt.c: 1564:  *sp 
      +                          = 0;
  2683  002340  C01A  FFD9         	movff	sprintf@sp,fsr2l
  2684  002344  C01B  FFDA         	movff	sprintf@sp+1,fsr2h
  2685  002348  0E00               	movlw	0
  2686  00234A  6EDF               	movwf	indf2,c
  2687  00234C  0012               	return		;funcret
  2688  00234E                     __end_of_sprintf:
  2689                           	opt callstack 0
  2690                           
  2691 ;; *************** function ___lwmod *****************
  2692 ;; Defined at:
  2693 ;;		line 7 in file "C:\Program Files (x86)\Microchip\xc8\v2.10\pic\sources\c90\common\lwmod.c"
  2694 ;; Parameters:    Size  Location     Type
  2695 ;;  dividend        2    8[COMRAM] unsigned int 
  2696 ;;  divisor         2   10[COMRAM] unsigned int 
  2697 ;; Auto vars:     Size  Location     Type
  2698 ;;  counter         1   12[COMRAM] unsigned char 
  2699 ;; Return value:  Size  Location     Type
  2700 ;;                  2    8[COMRAM] unsigned int 
  2701 ;; Registers used:
  2702 ;;		wreg, status,2, status,0
  2703 ;; Tracked objects:
  2704 ;;		On entry : 0/0
  2705 ;;		On exit  : 0/0
  2706 ;;		Unchanged: 0/0
  2707 ;; Data sizes:     COMRAM   BANK0   BANK1   BANK2   BANK3   BANK4   BANK5   BANK6   BANK7
  2708 ;;      Params:         4       0       0       0       0       0       0       0       0
  2709 ;;      Locals:         1       0       0       0       0       0       0       0       0
  2710 ;;      Temps:          0       0       0       0       0       0       0       0       0
  2711 ;;      Totals:         5       0       0       0       0       0       0       0       0
  2712 ;;Total ram usage:        5 bytes
  2713 ;; Hardware stack levels used:    1
  2714 ;; Hardware stack levels required when called:    1
  2715 ;; This function calls:
  2716 ;;		Nothing
  2717 ;; This function is called by:
  2718 ;;		_sprintf
  2719 ;; This function uses a non-reentrant model
  2720 ;;
  2721                           
  2722                           	psect	text6
  2723  002D3E                     __ptext6:
  2724                           	opt callstack 0
  2725  002D3E                     ___lwmod:
  2726                           	opt callstack 26
  2727  002D3E  500B               	movf	___lwmod@divisor^0,w,c
  2728  002D40  100C               	iorwf	(___lwmod@divisor+1)^0,w,c
  2729  002D42  B4D8               	btfsc	status,2,c
  2730  002D44  EFA6  F016         	goto	u2211
  2731  002D48  EFA8  F016         	goto	u2210
  2732  002D4C                     u2211:
  2733  002D4C  EFCC  F016         	goto	l958
  2734  002D50                     u2210:
  2735  002D50  0E01               	movlw	1
  2736  002D52  6E0D               	movwf	___lwmod@counter^0,c
  2737  002D54  EFB0  F016         	goto	l2725
  2738  002D58                     l2723:
  2739  002D58  90D8               	bcf	status,0,c
  2740  002D5A  360B               	rlcf	___lwmod@divisor^0,f,c
  2741  002D5C  360C               	rlcf	(___lwmod@divisor+1)^0,f,c
  2742  002D5E  2A0D               	incf	___lwmod@counter^0,f,c
  2743  002D60                     l2725:
  2744  002D60  AE0C               	btfss	(___lwmod@divisor+1)^0,7,c
  2745  002D62  EFB5  F016         	goto	u2221
  2746  002D66  EFB7  F016         	goto	u2220
  2747  002D6A                     u2221:
  2748  002D6A  EFAC  F016         	goto	l2723
  2749  002D6E                     u2220:
  2750  002D6E                     l2727:
  2751  002D6E  500B               	movf	___lwmod@divisor^0,w,c
  2752  002D70  5C09               	subwf	___lwmod@dividend^0,w,c
  2753  002D72  500C               	movf	(___lwmod@divisor+1)^0,w,c
  2754  002D74  580A               	subwfb	(___lwmod@dividend+1)^0,w,c
  2755  002D76  A0D8               	btfss	status,0,c
  2756  002D78  EFC0  F016         	goto	u2231
  2757  002D7C  EFC2  F016         	goto	u2230
  2758  002D80                     u2231:
  2759  002D80  EFC6  F016         	goto	l2731
  2760  002D84                     u2230:
  2761  002D84  500B               	movf	___lwmod@divisor^0,w,c
  2762  002D86  5E09               	subwf	___lwmod@dividend^0,f,c
  2763  002D88  500C               	movf	(___lwmod@divisor+1)^0,w,c
  2764  002D8A  5A0A               	subwfb	(___lwmod@dividend+1)^0,f,c
  2765  002D8C                     l2731:
  2766  002D8C  90D8               	bcf	status,0,c
  2767  002D8E  320C               	rrcf	(___lwmod@divisor+1)^0,f,c
  2768  002D90  320B               	rrcf	___lwmod@divisor^0,f,c
  2769  002D92  2E0D               	decfsz	___lwmod@counter^0,f,c
  2770  002D94  EFB7  F016         	goto	l2727
  2771  002D98                     l958:
  2772  002D98  C009  F009         	movff	___lwmod@dividend,?___lwmod
  2773  002D9C  C00A  F00A         	movff	___lwmod@dividend+1,?___lwmod+1
  2774  002DA0  0012               	return		;funcret
  2775  002DA2                     __end_of___lwmod:
  2776                           	opt callstack 0
  2777                           
  2778 ;; *************** function ___lwdiv *****************
  2779 ;; Defined at:
  2780 ;;		line 7 in file "C:\Program Files (x86)\Microchip\xc8\v2.10\pic\sources\c90\common\lwdiv.c"
  2781 ;; Parameters:    Size  Location     Type
  2782 ;;  dividend        2    1[COMRAM] unsigned int 
  2783 ;;  divisor         2    3[COMRAM] unsigned int 
  2784 ;; Auto vars:     Size  Location     Type
  2785 ;;  quotient        2    5[COMRAM] unsigned int 
  2786 ;;  counter         1    7[COMRAM] unsigned char 
  2787 ;; Return value:  Size  Location     Type
  2788 ;;                  2    1[COMRAM] unsigned int 
  2789 ;; Registers used:
  2790 ;;		wreg, status,2, status,0
  2791 ;; Tracked objects:
  2792 ;;		On entry : 0/0
  2793 ;;		On exit  : 0/0
  2794 ;;		Unchanged: 0/0
  2795 ;; Data sizes:     COMRAM   BANK0   BANK1   BANK2   BANK3   BANK4   BANK5   BANK6   BANK7
  2796 ;;      Params:         4       0       0       0       0       0       0       0       0
  2797 ;;      Locals:         3       0       0       0       0       0       0       0       0
  2798 ;;      Temps:          0       0       0       0       0       0       0       0       0
  2799 ;;      Totals:         7       0       0       0       0       0       0       0       0
  2800 ;;Total ram usage:        7 bytes
  2801 ;; Hardware stack levels used:    1
  2802 ;; Hardware stack levels required when called:    1
  2803 ;; This function calls:
  2804 ;;		Nothing
  2805 ;; This function is called by:
  2806 ;;		_sprintf
  2807 ;; This function uses a non-reentrant model
  2808 ;;
  2809                           
  2810                           	psect	text7
  2811  002B8E                     __ptext7:
  2812                           	opt callstack 0
  2813  002B8E                     ___lwdiv:
  2814                           	opt callstack 26
  2815  002B8E  0E00               	movlw	0
  2816  002B90  6E07               	movwf	(___lwdiv@quotient+1)^0,c
  2817  002B92  0E00               	movlw	0
  2818  002B94  6E06               	movwf	___lwdiv@quotient^0,c
  2819  002B96  5004               	movf	___lwdiv@divisor^0,w,c
  2820  002B98  1005               	iorwf	(___lwdiv@divisor+1)^0,w,c
  2821  002B9A  B4D8               	btfsc	status,2,c
  2822  002B9C  EFD2  F015         	goto	u2181
  2823  002BA0  EFD4  F015         	goto	u2180
  2824  002BA4                     u2181:
  2825  002BA4  EFFC  F015         	goto	l948
  2826  002BA8                     u2180:
  2827  002BA8  0E01               	movlw	1
  2828  002BAA  6E08               	movwf	___lwdiv@counter^0,c
  2829  002BAC  EFDC  F015         	goto	l2705
  2830  002BB0                     l2703:
  2831  002BB0  90D8               	bcf	status,0,c
  2832  002BB2  3604               	rlcf	___lwdiv@divisor^0,f,c
  2833  002BB4  3605               	rlcf	(___lwdiv@divisor+1)^0,f,c
  2834  002BB6  2A08               	incf	___lwdiv@counter^0,f,c
  2835  002BB8                     l2705:
  2836  002BB8  AE05               	btfss	(___lwdiv@divisor+1)^0,7,c
  2837  002BBA  EFE1  F015         	goto	u2191
  2838  002BBE  EFE3  F015         	goto	u2190
  2839  002BC2                     u2191:
  2840  002BC2  EFD8  F015         	goto	l2703
  2841  002BC6                     u2190:
  2842  002BC6                     l2707:
  2843  002BC6  90D8               	bcf	status,0,c
  2844  002BC8  3606               	rlcf	___lwdiv@quotient^0,f,c
  2845  002BCA  3607               	rlcf	(___lwdiv@quotient+1)^0,f,c
  2846  002BCC  5004               	movf	___lwdiv@divisor^0,w,c
  2847  002BCE  5C02               	subwf	___lwdiv@dividend^0,w,c
  2848  002BD0  5005               	movf	(___lwdiv@divisor+1)^0,w,c
  2849  002BD2  5803               	subwfb	(___lwdiv@dividend+1)^0,w,c
  2850  002BD4  A0D8               	btfss	status,0,c
  2851  002BD6  EFEF  F015         	goto	u2201
  2852  002BDA  EFF1  F015         	goto	u2200
  2853  002BDE                     u2201:
  2854  002BDE  EFF6  F015         	goto	l2715
  2855  002BE2                     u2200:
  2856  002BE2  5004               	movf	___lwdiv@divisor^0,w,c
  2857  002BE4  5E02               	subwf	___lwdiv@dividend^0,f,c
  2858  002BE6  5005               	movf	(___lwdiv@divisor+1)^0,w,c
  2859  002BE8  5A03               	subwfb	(___lwdiv@dividend+1)^0,f,c
  2860  002BEA  8006               	bsf	___lwdiv@quotient^0,0,c
  2861  002BEC                     l2715:
  2862  002BEC  90D8               	bcf	status,0,c
  2863  002BEE  3205               	rrcf	(___lwdiv@divisor+1)^0,f,c
  2864  002BF0  3204               	rrcf	___lwdiv@divisor^0,f,c
  2865  002BF2  2E08               	decfsz	___lwdiv@counter^0,f,c
  2866  002BF4  EFE3  F015         	goto	l2707
  2867  002BF8                     l948:
  2868  002BF8  C006  F002         	movff	___lwdiv@quotient,?___lwdiv
  2869  002BFC  C007  F003         	movff	___lwdiv@quotient+1,?___lwdiv+1
  2870  002C00  0012               	return		;funcret
  2871  002C02                     __end_of___lwdiv:
  2872                           	opt callstack 0
  2873                           
  2874 ;; *************** function _atol *****************
  2875 ;; Defined at:
  2876 ;;		line 5 in file "C:\Program Files (x86)\Microchip\xc8\v2.10\pic\sources\c90\common\atol.c"
  2877 ;; Parameters:    Size  Location     Type
  2878 ;;  s               2   13[COMRAM] PTR const unsigned char 
  2879 ;;		 -> sp(2), 
  2880 ;; Auto vars:     Size  Location     Type
  2881 ;;  a               4   22[COMRAM] long 
  2882 ;;  c               1   26[COMRAM] unsigned char 
  2883 ;;  sign            1   21[COMRAM] unsigned char 
  2884 ;; Return value:  Size  Location     Type
  2885 ;;                  4   13[COMRAM] long 
  2886 ;; Registers used:
  2887 ;;		wreg, fsr2l, fsr2h, status,2, status,0, cstack
  2888 ;; Tracked objects:
  2889 ;;		On entry : 0/0
  2890 ;;		On exit  : 0/0
  2891 ;;		Unchanged: 0/0
  2892 ;; Data sizes:     COMRAM   BANK0   BANK1   BANK2   BANK3   BANK4   BANK5   BANK6   BANK7
  2893 ;;      Params:         4       0       0       0       0       0       0       0       0
  2894 ;;      Locals:         6       0       0       0       0       0       0       0       0
  2895 ;;      Temps:          4       0       0       0       0       0       0       0       0
  2896 ;;      Totals:        14       0       0       0       0       0       0       0       0
  2897 ;;Total ram usage:       14 bytes
  2898 ;; Hardware stack levels used:    1
  2899 ;; Hardware stack levels required when called:    2
  2900 ;; This function calls:
  2901 ;;		___lmul
  2902 ;;		_isdigit
  2903 ;; This function is called by:
  2904 ;;		_automatic
  2905 ;; This function uses a non-reentrant model
  2906 ;;
  2907                           
  2908                           	psect	text8
  2909  002644                     __ptext8:
  2910                           	opt callstack 0
  2911  002644                     _atol:
  2912                           	opt callstack 26
  2913  002644                     l1133:
  2914  002644  C00E  FFD9         	movff	atol@s,fsr2l
  2915  002648  C00F  FFDA         	movff	atol@s+1,fsr2h
  2916  00264C  50DF               	movf	indf2,w,c
  2917  00264E  6E1B               	movwf	atol@c^0,c
  2918  002650  4A0E               	infsnz	atol@s^0,f,c
  2919  002652  2A0F               	incf	(atol@s+1)^0,f,c
  2920  002654  0E20               	movlw	32
  2921  002656  181B               	xorwf	atol@c^0,w,c
  2922  002658  B4D8               	btfsc	status,2,c
  2923  00265A  EF31  F013         	goto	u2521
  2924  00265E  EF33  F013         	goto	u2520
  2925  002662                     u2521:
  2926  002662  EF22  F013         	goto	l1133
  2927  002666                     u2520:
  2928  002666  0E09               	movlw	9
  2929  002668  181B               	xorwf	atol@c^0,w,c
  2930  00266A  B4D8               	btfsc	status,2,c
  2931  00266C  EF3A  F013         	goto	u2531
  2932  002670  EF3C  F013         	goto	u2530
  2933  002674                     u2531:
  2934  002674  EF22  F013         	goto	l1133
  2935  002678                     u2530:
  2936  002678  0E00               	movlw	0
  2937  00267A  6E17               	movwf	atol@a^0,c
  2938  00267C  0E00               	movlw	0
  2939  00267E  6E18               	movwf	(atol@a+1)^0,c
  2940  002680  0E00               	movlw	0
  2941  002682  6E19               	movwf	(atol@a+2)^0,c
  2942  002684  0E00               	movlw	0
  2943  002686  6E1A               	movwf	(atol@a+3)^0,c
  2944  002688  0E00               	movlw	0
  2945  00268A  6E16               	movwf	atol@sign^0,c
  2946  00268C  0E2D               	movlw	45
  2947  00268E  181B               	xorwf	atol@c^0,w,c
  2948  002690  A4D8               	btfss	status,2,c
  2949  002692  EF4D  F013         	goto	u2541
  2950  002696  EF4F  F013         	goto	u2540
  2951  00269A                     u2541:
  2952  00269A  EF5A  F013         	goto	l2921
  2953  00269E                     u2540:
  2954  00269E  2A16               	incf	atol@sign^0,f,c
  2955  0026A0                     l2917:
  2956  0026A0  C00E  FFD9         	movff	atol@s,fsr2l
  2957  0026A4  C00F  FFDA         	movff	atol@s+1,fsr2h
  2958  0026A8  50DF               	movf	indf2,w,c
  2959  0026AA  6E1B               	movwf	atol@c^0,c
  2960  0026AC  4A0E               	infsnz	atol@s^0,f,c
  2961  0026AE  2A0F               	incf	(atol@s+1)^0,f,c
  2962  0026B0  EF89  F013         	goto	l2933
  2963  0026B4                     l2921:
  2964  0026B4  0E2B               	movlw	43
  2965  0026B6  181B               	xorwf	atol@c^0,w,c
  2966  0026B8  A4D8               	btfss	status,2,c
  2967  0026BA  EF61  F013         	goto	u2551
  2968  0026BE  EF63  F013         	goto	u2550
  2969  0026C2                     u2551:
  2970  0026C2  EF89  F013         	goto	l2933
  2971  0026C6                     u2550:
  2972  0026C6  EF50  F013         	goto	l2917
  2973  0026CA                     l2927:
  2974  0026CA  C017  F002         	movff	atol@a,___lmul@multiplier
  2975  0026CE  C018  F003         	movff	atol@a+1,___lmul@multiplier+1
  2976  0026D2  C019  F004         	movff	atol@a+2,___lmul@multiplier+2
  2977  0026D6  C01A  F005         	movff	atol@a+3,___lmul@multiplier+3
  2978  0026DA  0E0A               	movlw	10
  2979  0026DC  6E06               	movwf	___lmul@multiplicand^0,c
  2980  0026DE  0E00               	movlw	0
  2981  0026E0  6E07               	movwf	(___lmul@multiplicand+1)^0,c
  2982  0026E2  0E00               	movlw	0
  2983  0026E4  6E08               	movwf	(___lmul@multiplicand+2)^0,c
  2984  0026E6  0E00               	movlw	0
  2985  0026E8  6E09               	movwf	(___lmul@multiplicand+3)^0,c
  2986  0026EA  EC01  F016         	call	___lmul	;wreg free
  2987  0026EE  C01B  F012         	movff	atol@c,??_atol
  2988  0026F2  0ED0               	movlw	208
  2989  0026F4  2612               	addwf	??_atol^0,f,c
  2990  0026F6  5012               	movf	??_atol^0,w,c
  2991  0026F8  2402               	addwf	?___lmul^0,w,c
  2992  0026FA  6E17               	movwf	atol@a^0,c
  2993  0026FC  0E00               	movlw	0
  2994  0026FE  2003               	addwfc	(?___lmul+1)^0,w,c
  2995  002700  6E18               	movwf	(atol@a+1)^0,c
  2996  002702  0E00               	movlw	0
  2997  002704  2004               	addwfc	(?___lmul+2)^0,w,c
  2998  002706  6E19               	movwf	(atol@a+2)^0,c
  2999  002708  0E00               	movlw	0
  3000  00270A  2005               	addwfc	(?___lmul+3)^0,w,c
  3001  00270C  6E1A               	movwf	(atol@a+3)^0,c
  3002  00270E  EF50  F013         	goto	l2917
  3003  002712                     l2933:
  3004  002712  501B               	movf	atol@c^0,w,c
  3005  002714  EC9E  F017         	call	_isdigit
  3006  002718  B0D8               	btfsc	status,0,c
  3007  00271A  EF91  F013         	goto	u2561
  3008  00271E  EF93  F013         	goto	u2560
  3009  002722                     u2561:
  3010  002722  EF65  F013         	goto	l2927
  3011  002726                     u2560:
  3012  002726  5016               	movf	atol@sign^0,w,c
  3013  002728  B4D8               	btfsc	status,2,c
  3014  00272A  EF99  F013         	goto	u2571
  3015  00272E  EF9B  F013         	goto	u2570
  3016  002732                     u2571:
  3017  002732  EFB6  F013         	goto	l1141
  3018  002736                     u2570:
  3019  002736  C017  F012         	movff	atol@a,??_atol
  3020  00273A  C018  F013         	movff	atol@a+1,??_atol+1
  3021  00273E  C019  F014         	movff	atol@a+2,??_atol+2
  3022  002742  C01A  F015         	movff	atol@a+3,??_atol+3
  3023  002746  1E12               	comf	??_atol^0,f,c
  3024  002748  1E13               	comf	(??_atol+1)^0,f,c
  3025  00274A  1E14               	comf	(??_atol+2)^0,f,c
  3026  00274C  1E15               	comf	(??_atol+3)^0,f,c
  3027  00274E  2A12               	incf	??_atol^0,f,c
  3028  002750  0E00               	movlw	0
  3029  002752  2213               	addwfc	(??_atol+1)^0,f,c
  3030  002754  2214               	addwfc	(??_atol+2)^0,f,c
  3031  002756  2215               	addwfc	(??_atol+3)^0,f,c
  3032  002758  C012  F00E         	movff	??_atol,?_atol
  3033  00275C  C013  F00F         	movff	??_atol+1,?_atol+1
  3034  002760  C014  F010         	movff	??_atol+2,?_atol+2
  3035  002764  C015  F011         	movff	??_atol+3,?_atol+3
  3036  002768  EFBE  F013         	goto	l1142
  3037  00276C                     l1141:
  3038  00276C  C017  F00E         	movff	atol@a,?_atol
  3039  002770  C018  F00F         	movff	atol@a+1,?_atol+1
  3040  002774  C019  F010         	movff	atol@a+2,?_atol+2
  3041  002778  C01A  F011         	movff	atol@a+3,?_atol+3
  3042  00277C                     l1142:
  3043  00277C  0012               	return		;funcret
  3044  00277E                     __end_of_atol:
  3045                           	opt callstack 0
  3046                           
  3047 ;; *************** function _isdigit *****************
  3048 ;; Defined at:
  3049 ;;		line 8 in file "C:\Program Files (x86)\Microchip\xc8\v2.10\pic\sources\c90\common\isdigit.c"
  3050 ;; Parameters:    Size  Location     Type
  3051 ;;  c               1    wreg     unsigned char 
  3052 ;; Auto vars:     Size  Location     Type
  3053 ;;  c               1    3[COMRAM] unsigned char 
  3054 ;; Return value:  Size  Location     Type
  3055 ;;		None               void
  3056 ;; Registers used:
  3057 ;;		wreg, status,2, status,0
  3058 ;; Tracked objects:
  3059 ;;		On entry : 0/0
  3060 ;;		On exit  : 0/0
  3061 ;;		Unchanged: 0/0
  3062 ;; Data sizes:     COMRAM   BANK0   BANK1   BANK2   BANK3   BANK4   BANK5   BANK6   BANK7
  3063 ;;      Params:         0       0       0       0       0       0       0       0       0
  3064 ;;      Locals:         2       0       0       0       0       0       0       0       0
  3065 ;;      Temps:          1       0       0       0       0       0       0       0       0
  3066 ;;      Totals:         3       0       0       0       0       0       0       0       0
  3067 ;;Total ram usage:        3 bytes
  3068 ;; Hardware stack levels used:    1
  3069 ;; Hardware stack levels required when called:    1
  3070 ;; This function calls:
  3071 ;;		Nothing
  3072 ;; This function is called by:
  3073 ;;		_atol
  3074 ;; This function uses a non-reentrant model
  3075 ;;
  3076                           
  3077                           	psect	text9
  3078  002F3C                     __ptext9:
  3079                           	opt callstack 0
  3080  002F3C                     _isdigit:
  3081                           	opt callstack 26
  3082                           
  3083                           ;incstack = 0
  3084                           ;isdigit@c stored from wreg
  3085  002F3C  6E04               	movwf	isdigit@c^0,c
  3086  002F3E  0E00               	movlw	0
  3087  002F40  6E03               	movwf	_isdigit$905^0,c
  3088  002F42  0E3A               	movlw	58
  3089  002F44  6004               	cpfslt	isdigit@c^0,c
  3090  002F46  EFA7  F017         	goto	u2241
  3091  002F4A  EFA9  F017         	goto	u2240
  3092  002F4E                     u2241:
  3093  002F4E  EFB3  F017         	goto	l2743
  3094  002F52                     u2240:
  3095  002F52  0E2F               	movlw	47
  3096  002F54  6404               	cpfsgt	isdigit@c^0,c
  3097  002F56  EFAF  F017         	goto	u2251
  3098  002F5A  EFB1  F017         	goto	u2250
  3099  002F5E                     u2251:
  3100  002F5E  EFB3  F017         	goto	l2743
  3101  002F62                     u2250:
  3102  002F62  0E01               	movlw	1
  3103  002F64  6E03               	movwf	_isdigit$905^0,c
  3104  002F66                     l2743:
  3105  002F66  C003  F002         	movff	_isdigit$905,??_isdigit
  3106  002F6A  3002               	rrcf	??_isdigit^0,w,c
  3107  002F6C  0012               	return		;funcret
  3108  002F6E                     __end_of_isdigit:
  3109                           	opt callstack 0
  3110                           
  3111 ;; *************** function ___lmul *****************
  3112 ;; Defined at:
  3113 ;;		line 15 in file "C:\Program Files (x86)\Microchip\xc8\v2.10\pic\sources\c90\common\Umul32.c"
  3114 ;; Parameters:    Size  Location     Type
  3115 ;;  multiplier      4    1[COMRAM] unsigned long 
  3116 ;;  multiplicand    4    5[COMRAM] unsigned long 
  3117 ;; Auto vars:     Size  Location     Type
  3118 ;;  product         4    9[COMRAM] unsigned long 
  3119 ;; Return value:  Size  Location     Type
  3120 ;;                  4    1[COMRAM] unsigned long 
  3121 ;; Registers used:
  3122 ;;		wreg, status,2, status,0
  3123 ;; Tracked objects:
  3124 ;;		On entry : 0/0
  3125 ;;		On exit  : 0/0
  3126 ;;		Unchanged: 0/0
  3127 ;; Data sizes:     COMRAM   BANK0   BANK1   BANK2   BANK3   BANK4   BANK5   BANK6   BANK7
  3128 ;;      Params:         8       0       0       0       0       0       0       0       0
  3129 ;;      Locals:         4       0       0       0       0       0       0       0       0
  3130 ;;      Temps:          0       0       0       0       0       0       0       0       0
  3131 ;;      Totals:        12       0       0       0       0       0       0       0       0
  3132 ;;Total ram usage:       12 bytes
  3133 ;; Hardware stack levels used:    1
  3134 ;; Hardware stack levels required when called:    1
  3135 ;; This function calls:
  3136 ;;		Nothing
  3137 ;; This function is called by:
  3138 ;;		_atol
  3139 ;; This function uses a non-reentrant model
  3140 ;;
  3141                           
  3142                           	psect	text10
  3143  002C02                     __ptext10:
  3144                           	opt callstack 0
  3145  002C02                     ___lmul:
  3146                           	opt callstack 26
  3147  002C02  0E00               	movlw	0
  3148  002C04  6E0A               	movwf	___lmul@product^0,c
  3149  002C06  0E00               	movlw	0
  3150  002C08  6E0B               	movwf	(___lmul@product+1)^0,c
  3151  002C0A  0E00               	movlw	0
  3152  002C0C  6E0C               	movwf	(___lmul@product+2)^0,c
  3153  002C0E  0E00               	movlw	0
  3154  002C10  6E0D               	movwf	(___lmul@product+3)^0,c
  3155  002C12                     l2689:
  3156  002C12  A002               	btfss	___lmul@multiplier^0,0,c
  3157  002C14  EF0E  F016         	goto	u2161
  3158  002C18  EF10  F016         	goto	u2160
  3159  002C1C                     u2161:
  3160  002C1C  EF18  F016         	goto	l2693
  3161  002C20                     u2160:
  3162  002C20  5006               	movf	___lmul@multiplicand^0,w,c
  3163  002C22  260A               	addwf	___lmul@product^0,f,c
  3164  002C24  5007               	movf	(___lmul@multiplicand+1)^0,w,c
  3165  002C26  220B               	addwfc	(___lmul@product+1)^0,f,c
  3166  002C28  5008               	movf	(___lmul@multiplicand+2)^0,w,c
  3167  002C2A  220C               	addwfc	(___lmul@product+2)^0,f,c
  3168  002C2C  5009               	movf	(___lmul@multiplicand+3)^0,w,c
  3169  002C2E  220D               	addwfc	(___lmul@product+3)^0,f,c
  3170  002C30                     l2693:
  3171  002C30  90D8               	bcf	status,0,c
  3172  002C32  3606               	rlcf	___lmul@multiplicand^0,f,c
  3173  002C34  3607               	rlcf	(___lmul@multiplicand+1)^0,f,c
  3174  002C36  3608               	rlcf	(___lmul@multiplicand+2)^0,f,c
  3175  002C38  3609               	rlcf	(___lmul@multiplicand+3)^0,f,c
  3176  002C3A  90D8               	bcf	status,0,c
  3177  002C3C  3205               	rrcf	(___lmul@multiplier+3)^0,f,c
  3178  002C3E  3204               	rrcf	(___lmul@multiplier+2)^0,f,c
  3179  002C40  3203               	rrcf	(___lmul@multiplier+1)^0,f,c
  3180  002C42  3202               	rrcf	___lmul@multiplier^0,f,c
  3181  002C44  5002               	movf	___lmul@multiplier^0,w,c
  3182  002C46  1003               	iorwf	(___lmul@multiplier+1)^0,w,c
  3183  002C48  1004               	iorwf	(___lmul@multiplier+2)^0,w,c
  3184  002C4A  1005               	iorwf	(___lmul@multiplier+3)^0,w,c
  3185  002C4C  A4D8               	btfss	status,2,c
  3186  002C4E  EF2B  F016         	goto	u2171
  3187  002C52  EF2D  F016         	goto	u2170
  3188  002C56                     u2171:
  3189  002C56  EF09  F016         	goto	l2689
  3190  002C5A                     u2170:
  3191  002C5A  C00A  F002         	movff	___lmul@product,?___lmul
  3192  002C5E  C00B  F003         	movff	___lmul@product+1,?___lmul+1
  3193  002C62  C00C  F004         	movff	___lmul@product+2,?___lmul+2
  3194  002C66  C00D  F005         	movff	___lmul@product+3,?___lmul+3
  3195  002C6A  0012               	return		;funcret
  3196  002C6C                     __end_of___lmul:
  3197                           	opt callstack 0
  3198                           
  3199 ;; *************** function ___xxtofl *****************
  3200 ;; Defined at:
  3201 ;;		line 10 in file "C:\Program Files (x86)\Microchip\xc8\v2.10\pic\sources\c90\common\xxtofl.c"
  3202 ;; Parameters:    Size  Location     Type
  3203 ;;  sign            1    wreg     unsigned char 
  3204 ;;  val             4    1[COMRAM] long 
  3205 ;; Auto vars:     Size  Location     Type
  3206 ;;  sign            1    9[COMRAM] unsigned char 
  3207 ;;  arg             4   11[COMRAM] unsigned long 
  3208 ;;  exp             1   10[COMRAM] unsigned char 
  3209 ;; Return value:  Size  Location     Type
  3210 ;;                  4    1[COMRAM] unsigned char 
  3211 ;; Registers used:
  3212 ;;		wreg, status,2, status,0
  3213 ;; Tracked objects:
  3214 ;;		On entry : 0/0
  3215 ;;		On exit  : 0/0
  3216 ;;		Unchanged: 0/0
  3217 ;; Data sizes:     COMRAM   BANK0   BANK1   BANK2   BANK3   BANK4   BANK5   BANK6   BANK7
  3218 ;;      Params:         4       0       0       0       0       0       0       0       0
  3219 ;;      Locals:         6       0       0       0       0       0       0       0       0
  3220 ;;      Temps:          4       0       0       0       0       0       0       0       0
  3221 ;;      Totals:        14       0       0       0       0       0       0       0       0
  3222 ;;Total ram usage:       14 bytes
  3223 ;; Hardware stack levels used:    1
  3224 ;; Hardware stack levels required when called:    1
  3225 ;; This function calls:
  3226 ;;		Nothing
  3227 ;; This function is called by:
  3228 ;;		_automatic
  3229 ;;		_manual
  3230 ;;		_pid
  3231 ;; This function uses a non-reentrant model
  3232 ;;
  3233                           
  3234                           	psect	text11
  3235  00234E                     __ptext11:
  3236                           	opt callstack 0
  3237  00234E                     ___xxtofl:
  3238                           	opt callstack 27
  3239                           
  3240                           ;incstack = 0
  3241                           ;___xxtofl@sign stored from wreg
  3242  00234E  6E0A               	movwf	___xxtofl@sign^0,c
  3243  002350  500A               	movf	___xxtofl@sign^0,w,c
  3244  002352  B4D8               	btfsc	status,2,c
  3245  002354  EFAE  F011         	goto	u3201
  3246  002358  EFB0  F011         	goto	u3200
  3247  00235C                     u3201:
  3248  00235C  EFD2  F011         	goto	l1112
  3249  002360                     u3200:
  3250  002360  BE05               	btfsc	(___xxtofl@val+3)^0,7,c
  3251  002362  EFB7  F011         	goto	u3210
  3252  002366  EFB5  F011         	goto	u3211
  3253  00236A                     u3211:
  3254  00236A  EFD2  F011         	goto	l1112
  3255  00236E                     u3210:
  3256  00236E  C002  F006         	movff	___xxtofl@val,??___xxtofl
  3257  002372  C003  F007         	movff	___xxtofl@val+1,??___xxtofl+1
  3258  002376  C004  F008         	movff	___xxtofl@val+2,??___xxtofl+2
  3259  00237A  C005  F009         	movff	___xxtofl@val+3,??___xxtofl+3
  3260  00237E  1E06               	comf	??___xxtofl^0,f,c
  3261  002380  1E07               	comf	(??___xxtofl+1)^0,f,c
  3262  002382  1E08               	comf	(??___xxtofl+2)^0,f,c
  3263  002384  1E09               	comf	(??___xxtofl+3)^0,f,c
  3264  002386  2A06               	incf	??___xxtofl^0,f,c
  3265  002388  0E00               	movlw	0
  3266  00238A  2207               	addwfc	(??___xxtofl+1)^0,f,c
  3267  00238C  2208               	addwfc	(??___xxtofl+2)^0,f,c
  3268  00238E  2209               	addwfc	(??___xxtofl+3)^0,f,c
  3269  002390  C006  F00C         	movff	??___xxtofl,___xxtofl@arg
  3270  002394  C007  F00D         	movff	??___xxtofl+1,___xxtofl@arg+1
  3271  002398  C008  F00E         	movff	??___xxtofl+2,___xxtofl@arg+2
  3272  00239C  C009  F00F         	movff	??___xxtofl+3,___xxtofl@arg+3
  3273  0023A0  EFDA  F011         	goto	l3373
  3274  0023A4                     l1112:
  3275  0023A4  C002  F00C         	movff	___xxtofl@val,___xxtofl@arg
  3276  0023A8  C003  F00D         	movff	___xxtofl@val+1,___xxtofl@arg+1
  3277  0023AC  C004  F00E         	movff	___xxtofl@val+2,___xxtofl@arg+2
  3278  0023B0  C005  F00F         	movff	___xxtofl@val+3,___xxtofl@arg+3
  3279  0023B4                     l3373:
  3280  0023B4  5002               	movf	___xxtofl@val^0,w,c
  3281  0023B6  1003               	iorwf	(___xxtofl@val+1)^0,w,c
  3282  0023B8  1004               	iorwf	(___xxtofl@val+2)^0,w,c
  3283  0023BA  1005               	iorwf	(___xxtofl@val+3)^0,w,c
  3284  0023BC  A4D8               	btfss	status,2,c
  3285  0023BE  EFE3  F011         	goto	u3221
  3286  0023C2  EFE5  F011         	goto	u3220
  3287  0023C6                     u3221:
  3288  0023C6  EFEF  F011         	goto	l3379
  3289  0023CA                     u3220:
  3290  0023CA  0E00               	movlw	0
  3291  0023CC  6E02               	movwf	?___xxtofl^0,c
  3292  0023CE  0E00               	movlw	0
  3293  0023D0  6E03               	movwf	(?___xxtofl+1)^0,c
  3294  0023D2  0E00               	movlw	0
  3295  0023D4  6E04               	movwf	(?___xxtofl+2)^0,c
  3296  0023D6  0E00               	movlw	0
  3297  0023D8  6E05               	movwf	(?___xxtofl+3)^0,c
  3298  0023DA  EF80  F012         	goto	l1115
  3299  0023DE                     l3379:
  3300  0023DE  0E96               	movlw	150
  3301  0023E0  6E0B               	movwf	___xxtofl@exp^0,c
  3302  0023E2  EFF9  F011         	goto	l3383
  3303  0023E6                     l3381:
  3304  0023E6  2A0B               	incf	___xxtofl@exp^0,f,c
  3305  0023E8  90D8               	bcf	status,0,c
  3306  0023EA  320F               	rrcf	(___xxtofl@arg+3)^0,f,c
  3307  0023EC  320E               	rrcf	(___xxtofl@arg+2)^0,f,c
  3308  0023EE  320D               	rrcf	(___xxtofl@arg+1)^0,f,c
  3309  0023F0  320C               	rrcf	___xxtofl@arg^0,f,c
  3310  0023F2                     l3383:
  3311  0023F2  0E00               	movlw	0
  3312  0023F4  140C               	andwf	___xxtofl@arg^0,w,c
  3313  0023F6  6E06               	movwf	??___xxtofl^0,c
  3314  0023F8  0E00               	movlw	0
  3315  0023FA  140D               	andwf	(___xxtofl@arg+1)^0,w,c
  3316  0023FC  6E07               	movwf	(??___xxtofl+1)^0,c
  3317  0023FE  0E00               	movlw	0
  3318  002400  140E               	andwf	(___xxtofl@arg+2)^0,w,c
  3319  002402  6E08               	movwf	(??___xxtofl+2)^0,c
  3320  002404  0EFE               	movlw	254
  3321  002406  140F               	andwf	(___xxtofl@arg+3)^0,w,c
  3322  002408  6E09               	movwf	(??___xxtofl+3)^0,c
  3323  00240A  5006               	movf	??___xxtofl^0,w,c
  3324  00240C  1007               	iorwf	(??___xxtofl+1)^0,w,c
  3325  00240E  1008               	iorwf	(??___xxtofl+2)^0,w,c
  3326  002410  1009               	iorwf	(??___xxtofl+3)^0,w,c
  3327  002412  A4D8               	btfss	status,2,c
  3328  002414  EF0E  F012         	goto	u3231
  3329  002418  EF10  F012         	goto	u3230
  3330  00241C                     u3231:
  3331  00241C  EFF3  F011         	goto	l3381
  3332  002420                     u3230:
  3333  002420  EF1E  F012         	goto	l1119
  3334  002424                     l3385:
  3335  002424  2A0B               	incf	___xxtofl@exp^0,f,c
  3336  002426  0E01               	movlw	1
  3337  002428  260C               	addwf	___xxtofl@arg^0,f,c
  3338  00242A  0E00               	movlw	0
  3339  00242C  220D               	addwfc	(___xxtofl@arg+1)^0,f,c
  3340  00242E  220E               	addwfc	(___xxtofl@arg+2)^0,f,c
  3341  002430  220F               	addwfc	(___xxtofl@arg+3)^0,f,c
  3342  002432  90D8               	bcf	status,0,c
  3343  002434  320F               	rrcf	(___xxtofl@arg+3)^0,f,c
  3344  002436  320E               	rrcf	(___xxtofl@arg+2)^0,f,c
  3345  002438  320D               	rrcf	(___xxtofl@arg+1)^0,f,c
  3346  00243A  320C               	rrcf	___xxtofl@arg^0,f,c
  3347  00243C                     l1119:
  3348  00243C  0E00               	movlw	0
  3349  00243E  140C               	andwf	___xxtofl@arg^0,w,c
  3350  002440  6E06               	movwf	??___xxtofl^0,c
  3351  002442  0E00               	movlw	0
  3352  002444  140D               	andwf	(___xxtofl@arg+1)^0,w,c
  3353  002446  6E07               	movwf	(??___xxtofl+1)^0,c
  3354  002448  0E00               	movlw	0
  3355  00244A  140E               	andwf	(___xxtofl@arg+2)^0,w,c
  3356  00244C  6E08               	movwf	(??___xxtofl+2)^0,c
  3357  00244E  0EFF               	movlw	255
  3358  002450  140F               	andwf	(___xxtofl@arg+3)^0,w,c
  3359  002452  6E09               	movwf	(??___xxtofl+3)^0,c
  3360  002454  5006               	movf	??___xxtofl^0,w,c
  3361  002456  1007               	iorwf	(??___xxtofl+1)^0,w,c
  3362  002458  1008               	iorwf	(??___xxtofl+2)^0,w,c
  3363  00245A  1009               	iorwf	(??___xxtofl+3)^0,w,c
  3364  00245C  A4D8               	btfss	status,2,c
  3365  00245E  EF33  F012         	goto	u3241
  3366  002462  EF35  F012         	goto	u3240
  3367  002466                     u3241:
  3368  002466  EF12  F012         	goto	l3385
  3369  00246A                     u3240:
  3370  00246A  EF3D  F012         	goto	l3393
  3371  00246E                     l3391:
  3372  00246E  060B               	decf	___xxtofl@exp^0,f,c
  3373  002470  90D8               	bcf	status,0,c
  3374  002472  360C               	rlcf	___xxtofl@arg^0,f,c
  3375  002474  360D               	rlcf	(___xxtofl@arg+1)^0,f,c
  3376  002476  360E               	rlcf	(___xxtofl@arg+2)^0,f,c
  3377  002478  360F               	rlcf	(___xxtofl@arg+3)^0,f,c
  3378  00247A                     l3393:
  3379  00247A  BE0E               	btfsc	(___xxtofl@arg+2)^0,7,c
  3380  00247C  EF42  F012         	goto	u3251
  3381  002480  EF44  F012         	goto	u3250
  3382  002484                     u3251:
  3383  002484  EF4C  F012         	goto	l1126
  3384  002488                     u3250:
  3385  002488  0E02               	movlw	2
  3386  00248A  600B               	cpfslt	___xxtofl@exp^0,c
  3387  00248C  EF4A  F012         	goto	u3261
  3388  002490  EF4C  F012         	goto	u3260
  3389  002494                     u3261:
  3390  002494  EF37  F012         	goto	l3391
  3391  002498                     u3260:
  3392  002498                     l1126:
  3393  002498  B00B               	btfsc	___xxtofl@exp^0,0,c
  3394  00249A  EF51  F012         	goto	u3271
  3395  00249E  EF53  F012         	goto	u3270
  3396  0024A2                     u3271:
  3397  0024A2  EF54  F012         	goto	l3399
  3398  0024A6                     u3270:
  3399  0024A6  9E0E               	bcf	(___xxtofl@arg+2)^0,7,c
  3400  0024A8                     l3399:
  3401  0024A8  90D8               	bcf	status,0,c
  3402  0024AA  320B               	rrcf	___xxtofl@exp^0,f,c
  3403  0024AC  C00B  F006         	movff	___xxtofl@exp,??___xxtofl
  3404  0024B0  6A07               	clrf	(??___xxtofl+1)^0,c
  3405  0024B2  6A08               	clrf	(??___xxtofl+2)^0,c
  3406  0024B4  6A09               	clrf	(??___xxtofl+3)^0,c
  3407  0024B6  C006  F009         	movff	??___xxtofl,??___xxtofl+3
  3408  0024BA  6A08               	clrf	(??___xxtofl+2)^0,c
  3409  0024BC  6A07               	clrf	(??___xxtofl+1)^0,c
  3410  0024BE  6A06               	clrf	??___xxtofl^0,c
  3411  0024C0  5006               	movf	??___xxtofl^0,w,c
  3412  0024C2  120C               	iorwf	___xxtofl@arg^0,f,c
  3413  0024C4  5007               	movf	(??___xxtofl+1)^0,w,c
  3414  0024C6  120D               	iorwf	(___xxtofl@arg+1)^0,f,c
  3415  0024C8  5008               	movf	(??___xxtofl+2)^0,w,c
  3416  0024CA  120E               	iorwf	(___xxtofl@arg+2)^0,f,c
  3417  0024CC  5009               	movf	(??___xxtofl+3)^0,w,c
  3418  0024CE  120F               	iorwf	(___xxtofl@arg+3)^0,f,c
  3419  0024D0  500A               	movf	___xxtofl@sign^0,w,c
  3420  0024D2  B4D8               	btfsc	status,2,c
  3421  0024D4  EF6E  F012         	goto	u3281
  3422  0024D8  EF70  F012         	goto	u3280
  3423  0024DC                     u3281:
  3424  0024DC  EF78  F012         	goto	l3409
  3425  0024E0                     u3280:
  3426  0024E0  BE05               	btfsc	(___xxtofl@val+3)^0,7,c
  3427  0024E2  EF77  F012         	goto	u3290
  3428  0024E6  EF75  F012         	goto	u3291
  3429  0024EA                     u3291:
  3430  0024EA  EF78  F012         	goto	l3409
  3431  0024EE                     u3290:
  3432  0024EE  8E0F               	bsf	(___xxtofl@arg+3)^0,7,c
  3433  0024F0                     l3409:
  3434  0024F0  C00C  F002         	movff	___xxtofl@arg,?___xxtofl
  3435  0024F4  C00D  F003         	movff	___xxtofl@arg+1,?___xxtofl+1
  3436  0024F8  C00E  F004         	movff	___xxtofl@arg+2,?___xxtofl+2
  3437  0024FC  C00F  F005         	movff	___xxtofl@arg+3,?___xxtofl+3
  3438  002500                     l1115:
  3439  002500  0012               	return		;funcret
  3440  002502                     __end_of___xxtofl:
  3441                           	opt callstack 0
  3442                           
  3443 ;; *************** function ___wmul *****************
  3444 ;; Defined at:
  3445 ;;		line 15 in file "C:\Program Files (x86)\Microchip\xc8\v2.10\pic\sources\c90\common\Umul16.c"
  3446 ;; Parameters:    Size  Location     Type
  3447 ;;  multiplier      2   11[COMRAM] unsigned int 
  3448 ;;  multiplicand    2   13[COMRAM] unsigned int 
  3449 ;; Auto vars:     Size  Location     Type
  3450 ;;  product         2   15[COMRAM] unsigned int 
  3451 ;; Return value:  Size  Location     Type
  3452 ;;                  2   11[COMRAM] unsigned int 
  3453 ;; Registers used:
  3454 ;;		wreg, status,2, status,0, prodl, prodh
  3455 ;; Tracked objects:
  3456 ;;		On entry : 0/0
  3457 ;;		On exit  : 0/0
  3458 ;;		Unchanged: 0/0
  3459 ;; Data sizes:     COMRAM   BANK0   BANK1   BANK2   BANK3   BANK4   BANK5   BANK6   BANK7
  3460 ;;      Params:         4       0       0       0       0       0       0       0       0
  3461 ;;      Locals:         2       0       0       0       0       0       0       0       0
  3462 ;;      Temps:          0       0       0       0       0       0       0       0       0
  3463 ;;      Totals:         6       0       0       0       0       0       0       0       0
  3464 ;;Total ram usage:        6 bytes
  3465 ;; Hardware stack levels used:    1
  3466 ;; Hardware stack levels required when called:    1
  3467 ;; This function calls:
  3468 ;;		Nothing
  3469 ;; This function is called by:
  3470 ;;		_automatic
  3471 ;;		_manual
  3472 ;;		_pid
  3473 ;; This function uses a non-reentrant model
  3474 ;;
  3475                           
  3476                           	psect	text12
  3477  002FEA                     __ptext12:
  3478                           	opt callstack 0
  3479  002FEA                     ___wmul:
  3480                           	opt callstack 27
  3481  002FEA  500C               	movf	___wmul@multiplier^0,w,c
  3482  002FEC  020E               	mulwf	___wmul@multiplicand^0,c
  3483  002FEE  CFF3 F010          	movff	prodl,___wmul@product
  3484  002FF2  CFF4 F011          	movff	prodh,___wmul@product+1
  3485  002FF6  500C               	movf	___wmul@multiplier^0,w,c
  3486  002FF8  020F               	mulwf	(___wmul@multiplicand+1)^0,c
  3487  002FFA  50F3               	movf	243,w,c
  3488  002FFC  2611               	addwf	(___wmul@product+1)^0,f,c
  3489  002FFE  500D               	movf	(___wmul@multiplier+1)^0,w,c
  3490  003000  020E               	mulwf	___wmul@multiplicand^0,c
  3491  003002  50F3               	movf	243,w,c
  3492  003004  2611               	addwf	(___wmul@product+1)^0,f,c
  3493  003006  C010  F00C         	movff	___wmul@product,?___wmul
  3494  00300A  C011  F00D         	movff	___wmul@product+1,?___wmul+1
  3495  00300E  0012               	return		;funcret
  3496  003010                     __end_of___wmul:
  3497                           	opt callstack 0
  3498                           
  3499 ;; *************** function ___fltol *****************
  3500 ;; Defined at:
  3501 ;;		line 43 in file "C:\Program Files (x86)\Microchip\xc8\v2.10\pic\sources\c90\common\fltol.c"
  3502 ;; Parameters:    Size  Location     Type
  3503 ;;  f1              4    1[COMRAM] unsigned int 
  3504 ;; Auto vars:     Size  Location     Type
  3505 ;;  exp1            1   10[COMRAM] unsigned char 
  3506 ;;  sign1           1    9[COMRAM] unsigned char 
  3507 ;; Return value:  Size  Location     Type
  3508 ;;                  4    1[COMRAM] long 
  3509 ;; Registers used:
  3510 ;;		wreg, status,2, status,0
  3511 ;; Tracked objects:
  3512 ;;		On entry : 0/0
  3513 ;;		On exit  : 0/0
  3514 ;;		Unchanged: 0/0
  3515 ;; Data sizes:     COMRAM   BANK0   BANK1   BANK2   BANK3   BANK4   BANK5   BANK6   BANK7
  3516 ;;      Params:         4       0       0       0       0       0       0       0       0
  3517 ;;      Locals:         2       0       0       0       0       0       0       0       0
  3518 ;;      Temps:          4       0       0       0       0       0       0       0       0
  3519 ;;      Totals:        10       0       0       0       0       0       0       0       0
  3520 ;;Total ram usage:       10 bytes
  3521 ;; Hardware stack levels used:    1
  3522 ;; Hardware stack levels required when called:    1
  3523 ;; This function calls:
  3524 ;;		Nothing
  3525 ;; This function is called by:
  3526 ;;		_automatic
  3527 ;;		_manual
  3528 ;;		_pid
  3529 ;; This function uses a non-reentrant model
  3530 ;;
  3531                           
  3532                           	psect	text13
  3533  00277E                     __ptext13:
  3534                           	opt callstack 0
  3535  00277E                     ___fltol:
  3536                           	opt callstack 27
  3537  00277E  3404               	rlcf	(___fltol@f1+2)^0,w,c
  3538  002780  3405               	rlcf	(___fltol@f1+3)^0,w,c
  3539  002782  6E0B               	movwf	___fltol@exp1^0,c
  3540  002784  500B               	movf	___fltol@exp1^0,w,c
  3541  002786  A4D8               	btfss	status,2,c
  3542  002788  EFC8  F013         	goto	u3131
  3543  00278C  EFCA  F013         	goto	u3130
  3544  002790                     u3131:
  3545  002790  EFD4  F013         	goto	l3329
  3546  002794                     u3130:
  3547  002794                     l3325:
  3548  002794  0E00               	movlw	0
  3549  002796  6E02               	movwf	?___fltol^0,c
  3550  002798  0E00               	movlw	0
  3551  00279A  6E03               	movwf	(?___fltol+1)^0,c
  3552  00279C  0E00               	movlw	0
  3553  00279E  6E04               	movwf	(?___fltol+2)^0,c
  3554  0027A0  0E00               	movlw	0
  3555  0027A2  6E05               	movwf	(?___fltol+3)^0,c
  3556  0027A4  EF41  F014         	goto	l758
  3557  0027A8                     l3329:
  3558  0027A8  C002  F006         	movff	___fltol@f1,??___fltol
  3559  0027AC  C003  F007         	movff	___fltol@f1+1,??___fltol+1
  3560  0027B0  C004  F008         	movff	___fltol@f1+2,??___fltol+2
  3561  0027B4  C005  F009         	movff	___fltol@f1+3,??___fltol+3
  3562  0027B8  0E20               	movlw	32
  3563  0027BA  EFE4  F013         	goto	u3140
  3564  0027BE                     u3145:
  3565  0027BE  90D8               	bcf	status,0,c
  3566  0027C0  3209               	rrcf	(??___fltol+3)^0,f,c
  3567  0027C2  3208               	rrcf	(??___fltol+2)^0,f,c
  3568  0027C4  3207               	rrcf	(??___fltol+1)^0,f,c
  3569  0027C6  3206               	rrcf	??___fltol^0,f,c
  3570  0027C8                     u3140:
  3571  0027C8  2EE8               	decfsz	wreg,f,c
  3572  0027CA  EFDF  F013         	goto	u3145
  3573  0027CE  5006               	movf	??___fltol^0,w,c
  3574  0027D0  6E0A               	movwf	___fltol@sign1^0,c
  3575  0027D2  8E04               	bsf	(___fltol@f1+2)^0,7,c
  3576  0027D4  0EFF               	movlw	255
  3577  0027D6  1602               	andwf	___fltol@f1^0,f,c
  3578  0027D8  0EFF               	movlw	255
  3579  0027DA  1603               	andwf	(___fltol@f1+1)^0,f,c
  3580  0027DC  0EFF               	movlw	255
  3581  0027DE  1604               	andwf	(___fltol@f1+2)^0,f,c
  3582  0027E0  0E00               	movlw	0
  3583  0027E2  1605               	andwf	(___fltol@f1+3)^0,f,c
  3584  0027E4  0E96               	movlw	150
  3585  0027E6  5E0B               	subwf	___fltol@exp1^0,f,c
  3586  0027E8  BE0B               	btfsc	___fltol@exp1^0,7,c
  3587  0027EA  EFFB  F013         	goto	u3150
  3588  0027EE  EFF9  F013         	goto	u3151
  3589  0027F2                     u3151:
  3590  0027F2  EF11  F014         	goto	l3349
  3591  0027F6                     u3150:
  3592  0027F6  500B               	movf	___fltol@exp1^0,w,c
  3593  0027F8  0A80               	xorlw	128
  3594  0027FA  0F97               	addlw	151
  3595  0027FC  B0D8               	btfsc	status,0,c
  3596  0027FE  EF03  F014         	goto	u3161
  3597  002802  EF05  F014         	goto	u3160
  3598  002806                     u3161:
  3599  002806  EF07  F014         	goto	l3345
  3600  00280A                     u3160:
  3601  00280A  EFCA  F013         	goto	l3325
  3602  00280E                     l3345:
  3603  00280E  90D8               	bcf	status,0,c
  3604  002810  3205               	rrcf	(___fltol@f1+3)^0,f,c
  3605  002812  3204               	rrcf	(___fltol@f1+2)^0,f,c
  3606  002814  3203               	rrcf	(___fltol@f1+1)^0,f,c
  3607  002816  3202               	rrcf	___fltol@f1^0,f,c
  3608  002818  3E0B               	incfsz	___fltol@exp1^0,f,c
  3609  00281A  EF07  F014         	goto	l3345
  3610  00281E  EF29  F014         	goto	l3359
  3611  002822                     l3349:
  3612  002822  0E1F               	movlw	31
  3613  002824  640B               	cpfsgt	___fltol@exp1^0,c
  3614  002826  EF17  F014         	goto	u3171
  3615  00282A  EF19  F014         	goto	u3170
  3616  00282E                     u3171:
  3617  00282E  EF21  F014         	goto	l3357
  3618  002832                     u3170:
  3619  002832  EFCA  F013         	goto	l3325
  3620  002836                     l3355:
  3621  002836  90D8               	bcf	status,0,c
  3622  002838  3602               	rlcf	___fltol@f1^0,f,c
  3623  00283A  3603               	rlcf	(___fltol@f1+1)^0,f,c
  3624  00283C  3604               	rlcf	(___fltol@f1+2)^0,f,c
  3625  00283E  3605               	rlcf	(___fltol@f1+3)^0,f,c
  3626  002840  060B               	decf	___fltol@exp1^0,f,c
  3627  002842                     l3357:
  3628  002842  500B               	movf	___fltol@exp1^0,w,c
  3629  002844  A4D8               	btfss	status,2,c
  3630  002846  EF27  F014         	goto	u3181
  3631  00284A  EF29  F014         	goto	u3180
  3632  00284E                     u3181:
  3633  00284E  EF1B  F014         	goto	l3355
  3634  002852                     u3180:
  3635  002852                     l3359:
  3636  002852  500A               	movf	___fltol@sign1^0,w,c
  3637  002854  B4D8               	btfsc	status,2,c
  3638  002856  EF2F  F014         	goto	u3191
  3639  00285A  EF31  F014         	goto	u3190
  3640  00285E                     u3191:
  3641  00285E  EF39  F014         	goto	l3363
  3642  002862                     u3190:
  3643  002862  1E05               	comf	(___fltol@f1+3)^0,f,c
  3644  002864  1E04               	comf	(___fltol@f1+2)^0,f,c
  3645  002866  1E03               	comf	(___fltol@f1+1)^0,f,c
  3646  002868  6C02               	negf	___fltol@f1^0,c
  3647  00286A  0E00               	movlw	0
  3648  00286C  2203               	addwfc	(___fltol@f1+1)^0,f,c
  3649  00286E  2204               	addwfc	(___fltol@f1+2)^0,f,c
  3650  002870  2205               	addwfc	(___fltol@f1+3)^0,f,c
  3651  002872                     l3363:
  3652  002872  C002  F002         	movff	___fltol@f1,?___fltol
  3653  002876  C003  F003         	movff	___fltol@f1+1,?___fltol+1
  3654  00287A  C004  F004         	movff	___fltol@f1+2,?___fltol+2
  3655  00287E  C005  F005         	movff	___fltol@f1+3,?___fltol+3
  3656  002882                     l758:
  3657  002882  0012               	return		;funcret
  3658  002884                     __end_of___fltol:
  3659                           	opt callstack 0
  3660                           
  3661 ;; *************** function ___flmul *****************
  3662 ;; Defined at:
  3663 ;;		line 8 in file "C:\Program Files (x86)\Microchip\xc8\v2.10\pic\sources\c90\common\sprcmul.c"
  3664 ;; Parameters:    Size  Location     Type
  3665 ;;  b               4    1[COMRAM] long 
  3666 ;;  a               4    5[COMRAM] long 
  3667 ;; Auto vars:     Size  Location     Type
  3668 ;;  prod            4   20[COMRAM] struct .
  3669 ;;  grs             4   14[COMRAM] unsigned long 
  3670 ;;  temp            2   24[COMRAM] struct .
  3671 ;;  bexp            1   19[COMRAM] unsigned char 
  3672 ;;  aexp            1   18[COMRAM] unsigned char 
  3673 ;;  sign            1   13[COMRAM] unsigned char 
  3674 ;; Return value:  Size  Location     Type
  3675 ;;                  4    1[COMRAM] unsigned char 
  3676 ;; Registers used:
  3677 ;;		wreg, status,2, status,0, prodl, prodh
  3678 ;; Tracked objects:
  3679 ;;		On entry : 0/0
  3680 ;;		On exit  : 0/0
  3681 ;;		Unchanged: 0/0
  3682 ;; Data sizes:     COMRAM   BANK0   BANK1   BANK2   BANK3   BANK4   BANK5   BANK6   BANK7
  3683 ;;      Params:         8       0       0       0       0       0       0       0       0
  3684 ;;      Locals:        13       0       0       0       0       0       0       0       0
  3685 ;;      Temps:          4       0       0       0       0       0       0       0       0
  3686 ;;      Totals:        25       0       0       0       0       0       0       0       0
  3687 ;;Total ram usage:       25 bytes
  3688 ;; Hardware stack levels used:    1
  3689 ;; Hardware stack levels required when called:    1
  3690 ;; This function calls:
  3691 ;;		Nothing
  3692 ;; This function is called by:
  3693 ;;		_automatic
  3694 ;;		_manual
  3695 ;;		_pid
  3696 ;; This function uses a non-reentrant model
  3697 ;;
  3698                           
  3699                           	psect	text14
  3700  0013A0                     __ptext14:
  3701                           	opt callstack 0
  3702  0013A0                     ___flmul:
  3703                           	opt callstack 27
  3704  0013A0  5005               	movf	(___flmul@b+3)^0,w,c
  3705  0013A2  0B80               	andlw	128
  3706  0013A4  6E0E               	movwf	___flmul@sign^0,c
  3707  0013A6  5005               	movf	(___flmul@b+3)^0,w,c
  3708  0013A8  2405               	addwf	(___flmul@b+3)^0,w,c
  3709  0013AA  6E14               	movwf	___flmul@bexp^0,c
  3710  0013AC  AE04               	btfss	(___flmul@b+2)^0,7,c
  3711  0013AE  EFDB  F009         	goto	u2881
  3712  0013B2  EFDD  F009         	goto	u2880
  3713  0013B6                     u2881:
  3714  0013B6  EFDE  F009         	goto	l3155
  3715  0013BA                     u2880:
  3716  0013BA  8014               	bsf	___flmul@bexp^0,0,c
  3717  0013BC                     l3155:
  3718  0013BC  5014               	movf	___flmul@bexp^0,w,c
  3719  0013BE  B4D8               	btfsc	status,2,c
  3720  0013C0  EFE4  F009         	goto	u2891
  3721  0013C4  EFE6  F009         	goto	u2890
  3722  0013C8                     u2891:
  3723  0013C8  EFF9  F009         	goto	l3163
  3724  0013CC                     u2890:
  3725  0013CC  2814               	incf	___flmul@bexp^0,w,c
  3726  0013CE  A4D8               	btfss	status,2,c
  3727  0013D0  EFEC  F009         	goto	u2901
  3728  0013D4  EFEE  F009         	goto	u2900
  3729  0013D8                     u2901:
  3730  0013D8  EFF6  F009         	goto	l3161
  3731  0013DC                     u2900:
  3732  0013DC  0E00               	movlw	0
  3733  0013DE  6E02               	movwf	___flmul@b^0,c
  3734  0013E0  0E00               	movlw	0
  3735  0013E2  6E03               	movwf	(___flmul@b+1)^0,c
  3736  0013E4  0E00               	movlw	0
  3737  0013E6  6E04               	movwf	(___flmul@b+2)^0,c
  3738  0013E8  0E00               	movlw	0
  3739  0013EA  6E05               	movwf	(___flmul@b+3)^0,c
  3740  0013EC                     l3161:
  3741  0013EC  8E04               	bsf	(___flmul@b+2)^0,7,c
  3742  0013EE  EF01  F00A         	goto	l3165
  3743  0013F2                     l3163:
  3744  0013F2  0E00               	movlw	0
  3745  0013F4  6E02               	movwf	___flmul@b^0,c
  3746  0013F6  0E00               	movlw	0
  3747  0013F8  6E03               	movwf	(___flmul@b+1)^0,c
  3748  0013FA  0E00               	movlw	0
  3749  0013FC  6E04               	movwf	(___flmul@b+2)^0,c
  3750  0013FE  0E00               	movlw	0
  3751  001400  6E05               	movwf	(___flmul@b+3)^0,c
  3752  001402                     l3165:
  3753  001402  5009               	movf	(___flmul@a+3)^0,w,c
  3754  001404  0B80               	andlw	128
  3755  001406  1A0E               	xorwf	___flmul@sign^0,f,c
  3756  001408  5009               	movf	(___flmul@a+3)^0,w,c
  3757  00140A  2409               	addwf	(___flmul@a+3)^0,w,c
  3758  00140C  6E13               	movwf	___flmul@aexp^0,c
  3759  00140E  AE08               	btfss	(___flmul@a+2)^0,7,c
  3760  001410  EF0C  F00A         	goto	u2911
  3761  001414  EF0E  F00A         	goto	u2910
  3762  001418                     u2911:
  3763  001418  EF0F  F00A         	goto	l3173
  3764  00141C                     u2910:
  3765  00141C  8013               	bsf	___flmul@aexp^0,0,c
  3766  00141E                     l3173:
  3767  00141E  5013               	movf	___flmul@aexp^0,w,c
  3768  001420  B4D8               	btfsc	status,2,c
  3769  001422  EF15  F00A         	goto	u2921
  3770  001426  EF17  F00A         	goto	u2920
  3771  00142A                     u2921:
  3772  00142A  EF2A  F00A         	goto	l3181
  3773  00142E                     u2920:
  3774  00142E  2813               	incf	___flmul@aexp^0,w,c
  3775  001430  A4D8               	btfss	status,2,c
  3776  001432  EF1D  F00A         	goto	u2931
  3777  001436  EF1F  F00A         	goto	u2930
  3778  00143A                     u2931:
  3779  00143A  EF27  F00A         	goto	l3179
  3780  00143E                     u2930:
  3781  00143E  0E00               	movlw	0
  3782  001440  6E06               	movwf	___flmul@a^0,c
  3783  001442  0E00               	movlw	0
  3784  001444  6E07               	movwf	(___flmul@a+1)^0,c
  3785  001446  0E00               	movlw	0
  3786  001448  6E08               	movwf	(___flmul@a+2)^0,c
  3787  00144A  0E00               	movlw	0
  3788  00144C  6E09               	movwf	(___flmul@a+3)^0,c
  3789  00144E                     l3179:
  3790  00144E  8E08               	bsf	(___flmul@a+2)^0,7,c
  3791  001450  EF32  F00A         	goto	l1071
  3792  001454                     l3181:
  3793  001454  0E00               	movlw	0
  3794  001456  6E06               	movwf	___flmul@a^0,c
  3795  001458  0E00               	movlw	0
  3796  00145A  6E07               	movwf	(___flmul@a+1)^0,c
  3797  00145C  0E00               	movlw	0
  3798  00145E  6E08               	movwf	(___flmul@a+2)^0,c
  3799  001460  0E00               	movlw	0
  3800  001462  6E09               	movwf	(___flmul@a+3)^0,c
  3801  001464                     l1071:
  3802  001464  5013               	movf	___flmul@aexp^0,w,c
  3803  001466  B4D8               	btfsc	status,2,c
  3804  001468  EF38  F00A         	goto	u2941
  3805  00146C  EF3A  F00A         	goto	u2940
  3806  001470                     u2941:
  3807  001470  EF42  F00A         	goto	l3185
  3808  001474                     u2940:
  3809  001474  5014               	movf	___flmul@bexp^0,w,c
  3810  001476  A4D8               	btfss	status,2,c
  3811  001478  EF40  F00A         	goto	u2951
  3812  00147C  EF42  F00A         	goto	u2950
  3813  001480                     u2951:
  3814  001480  EF4C  F00A         	goto	l3189
  3815  001484                     u2950:
  3816  001484                     l3185:
  3817  001484  0E00               	movlw	0
  3818  001486  6E02               	movwf	?___flmul^0,c
  3819  001488  0E00               	movlw	0
  3820  00148A  6E03               	movwf	(?___flmul+1)^0,c
  3821  00148C  0E00               	movlw	0
  3822  00148E  6E04               	movwf	(?___flmul+2)^0,c
  3823  001490  0E00               	movlw	0
  3824  001492  6E05               	movwf	(?___flmul+3)^0,c
  3825  001494  EFE4  F00B         	goto	l1075
  3826  001498                     l3189:
  3827  001498  5008               	movf	(___flmul@a+2)^0,w,c
  3828  00149A  0202               	mulwf	___flmul@b^0,c
  3829  00149C  CFF3 F019          	movff	prodl,___flmul@temp
  3830  0014A0  CFF4 F01A          	movff	prodh,___flmul@temp+1
  3831  0014A4  5019               	movf	___flmul@temp^0,w,c
  3832  0014A6  6E0F               	movwf	___flmul@grs^0,c
  3833  0014A8  6A10               	clrf	(___flmul@grs+1)^0,c
  3834  0014AA  6A11               	clrf	(___flmul@grs+2)^0,c
  3835  0014AC  6A12               	clrf	(___flmul@grs+3)^0,c
  3836  0014AE  501A               	movf	(___flmul@temp+1)^0,w,c
  3837  0014B0  6E15               	movwf	___flmul@prod^0,c
  3838  0014B2  6A16               	clrf	(___flmul@prod+1)^0,c
  3839  0014B4  6A17               	clrf	(___flmul@prod+2)^0,c
  3840  0014B6  6A18               	clrf	(___flmul@prod+3)^0,c
  3841  0014B8  5007               	movf	(___flmul@a+1)^0,w,c
  3842  0014BA  0203               	mulwf	(___flmul@b+1)^0,c
  3843  0014BC  CFF3 F019          	movff	prodl,___flmul@temp
  3844  0014C0  CFF4 F01A          	movff	prodh,___flmul@temp+1
  3845  0014C4  5019               	movf	___flmul@temp^0,w,c
  3846  0014C6  260F               	addwf	___flmul@grs^0,f,c
  3847  0014C8  0E00               	movlw	0
  3848  0014CA  2210               	addwfc	(___flmul@grs+1)^0,f,c
  3849  0014CC  2211               	addwfc	(___flmul@grs+2)^0,f,c
  3850  0014CE  2212               	addwfc	(___flmul@grs+3)^0,f,c
  3851  0014D0  501A               	movf	(___flmul@temp+1)^0,w,c
  3852  0014D2  2615               	addwf	___flmul@prod^0,f,c
  3853  0014D4  0E00               	movlw	0
  3854  0014D6  2216               	addwfc	(___flmul@prod+1)^0,f,c
  3855  0014D8  2217               	addwfc	(___flmul@prod+2)^0,f,c
  3856  0014DA  2218               	addwfc	(___flmul@prod+3)^0,f,c
  3857  0014DC  5006               	movf	___flmul@a^0,w,c
  3858  0014DE  0204               	mulwf	(___flmul@b+2)^0,c
  3859  0014E0  CFF3 F019          	movff	prodl,___flmul@temp
  3860  0014E4  CFF4 F01A          	movff	prodh,___flmul@temp+1
  3861  0014E8  5019               	movf	___flmul@temp^0,w,c
  3862  0014EA  260F               	addwf	___flmul@grs^0,f,c
  3863  0014EC  0E00               	movlw	0
  3864  0014EE  2210               	addwfc	(___flmul@grs+1)^0,f,c
  3865  0014F0  2211               	addwfc	(___flmul@grs+2)^0,f,c
  3866  0014F2  2212               	addwfc	(___flmul@grs+3)^0,f,c
  3867  0014F4  501A               	movf	(___flmul@temp+1)^0,w,c
  3868  0014F6  2615               	addwf	___flmul@prod^0,f,c
  3869  0014F8  0E00               	movlw	0
  3870  0014FA  2216               	addwfc	(___flmul@prod+1)^0,f,c
  3871  0014FC  2217               	addwfc	(___flmul@prod+2)^0,f,c
  3872  0014FE  2218               	addwfc	(___flmul@prod+3)^0,f,c
  3873  001500  C011  F012         	movff	___flmul@grs+2,___flmul@grs+3
  3874  001504  C010  F011         	movff	___flmul@grs+1,___flmul@grs+2
  3875  001508  C00F  F010         	movff	___flmul@grs,___flmul@grs+1
  3876  00150C  6A0F               	clrf	___flmul@grs^0,c
  3877  00150E  5006               	movf	___flmul@a^0,w,c
  3878  001510  0203               	mulwf	(___flmul@b+1)^0,c
  3879  001512  CFF3 F019          	movff	prodl,___flmul@temp
  3880  001516  CFF4 F01A          	movff	prodh,___flmul@temp+1
  3881  00151A  5019               	movf	___flmul@temp^0,w,c
  3882  00151C  260F               	addwf	___flmul@grs^0,f,c
  3883  00151E  501A               	movf	(___flmul@temp+1)^0,w,c
  3884  001520  2210               	addwfc	(___flmul@grs+1)^0,f,c
  3885  001522  0E00               	movlw	0
  3886  001524  2211               	addwfc	(___flmul@grs+2)^0,f,c
  3887  001526  0E00               	movlw	0
  3888  001528  2212               	addwfc	(___flmul@grs+3)^0,f,c
  3889  00152A  5007               	movf	(___flmul@a+1)^0,w,c
  3890  00152C  0202               	mulwf	___flmul@b^0,c
  3891  00152E  CFF3 F019          	movff	prodl,___flmul@temp
  3892  001532  CFF4 F01A          	movff	prodh,___flmul@temp+1
  3893  001536  5019               	movf	___flmul@temp^0,w,c
  3894  001538  260F               	addwf	___flmul@grs^0,f,c
  3895  00153A  501A               	movf	(___flmul@temp+1)^0,w,c
  3896  00153C  2210               	addwfc	(___flmul@grs+1)^0,f,c
  3897  00153E  0E00               	movlw	0
  3898  001540  2211               	addwfc	(___flmul@grs+2)^0,f,c
  3899  001542  0E00               	movlw	0
  3900  001544  2212               	addwfc	(___flmul@grs+3)^0,f,c
  3901  001546  C011  F012         	movff	___flmul@grs+2,___flmul@grs+3
  3902  00154A  C010  F011         	movff	___flmul@grs+1,___flmul@grs+2
  3903  00154E  C00F  F010         	movff	___flmul@grs,___flmul@grs+1
  3904  001552  6A0F               	clrf	___flmul@grs^0,c
  3905  001554  5006               	movf	___flmul@a^0,w,c
  3906  001556  0202               	mulwf	___flmul@b^0,c
  3907  001558  CFF3 F019          	movff	prodl,___flmul@temp
  3908  00155C  CFF4 F01A          	movff	prodh,___flmul@temp+1
  3909  001560  5019               	movf	___flmul@temp^0,w,c
  3910  001562  260F               	addwf	___flmul@grs^0,f,c
  3911  001564  501A               	movf	(___flmul@temp+1)^0,w,c
  3912  001566  2210               	addwfc	(___flmul@grs+1)^0,f,c
  3913  001568  0E00               	movlw	0
  3914  00156A  2211               	addwfc	(___flmul@grs+2)^0,f,c
  3915  00156C  0E00               	movlw	0
  3916  00156E  2212               	addwfc	(___flmul@grs+3)^0,f,c
  3917  001570  5008               	movf	(___flmul@a+2)^0,w,c
  3918  001572  0203               	mulwf	(___flmul@b+1)^0,c
  3919  001574  CFF3 F019          	movff	prodl,___flmul@temp
  3920  001578  CFF4 F01A          	movff	prodh,___flmul@temp+1
  3921  00157C  5019               	movf	___flmul@temp^0,w,c
  3922  00157E  2615               	addwf	___flmul@prod^0,f,c
  3923  001580  501A               	movf	(___flmul@temp+1)^0,w,c
  3924  001582  2216               	addwfc	(___flmul@prod+1)^0,f,c
  3925  001584  0E00               	movlw	0
  3926  001586  2217               	addwfc	(___flmul@prod+2)^0,f,c
  3927  001588  0E00               	movlw	0
  3928  00158A  2218               	addwfc	(___flmul@prod+3)^0,f,c
  3929  00158C  5007               	movf	(___flmul@a+1)^0,w,c
  3930  00158E  0204               	mulwf	(___flmul@b+2)^0,c
  3931  001590  CFF3 F019          	movff	prodl,___flmul@temp
  3932  001594  CFF4 F01A          	movff	prodh,___flmul@temp+1
  3933  001598  5019               	movf	___flmul@temp^0,w,c
  3934  00159A  2615               	addwf	___flmul@prod^0,f,c
  3935  00159C  501A               	movf	(___flmul@temp+1)^0,w,c
  3936  00159E  2216               	addwfc	(___flmul@prod+1)^0,f,c
  3937  0015A0  0E00               	movlw	0
  3938  0015A2  2217               	addwfc	(___flmul@prod+2)^0,f,c
  3939  0015A4  0E00               	movlw	0
  3940  0015A6  2218               	addwfc	(___flmul@prod+3)^0,f,c
  3941  0015A8  5008               	movf	(___flmul@a+2)^0,w,c
  3942  0015AA  0204               	mulwf	(___flmul@b+2)^0,c
  3943  0015AC  CFF3 F019          	movff	prodl,___flmul@temp
  3944  0015B0  CFF4 F01A          	movff	prodh,___flmul@temp+1
  3945  0015B4  5019               	movf	___flmul@temp^0,w,c
  3946  0015B6  6E0A               	movwf	??___flmul^0,c
  3947  0015B8  501A               	movf	(___flmul@temp+1)^0,w,c
  3948  0015BA  6E0B               	movwf	(??___flmul+1)^0,c
  3949  0015BC  6A0C               	clrf	(??___flmul+2)^0,c
  3950  0015BE  6A0D               	clrf	(??___flmul+3)^0,c
  3951  0015C0  C00C  F00D         	movff	??___flmul+2,??___flmul+3
  3952  0015C4  C00B  F00C         	movff	??___flmul+1,??___flmul+2
  3953  0015C8  C00A  F00B         	movff	??___flmul,??___flmul+1
  3954  0015CC  6A0A               	clrf	??___flmul^0,c
  3955  0015CE  500A               	movf	??___flmul^0,w,c
  3956  0015D0  2615               	addwf	___flmul@prod^0,f,c
  3957  0015D2  500B               	movf	(??___flmul+1)^0,w,c
  3958  0015D4  2216               	addwfc	(___flmul@prod+1)^0,f,c
  3959  0015D6  500C               	movf	(??___flmul+2)^0,w,c
  3960  0015D8  2217               	addwfc	(___flmul@prod+2)^0,f,c
  3961  0015DA  500D               	movf	(??___flmul+3)^0,w,c
  3962  0015DC  2218               	addwfc	(___flmul@prod+3)^0,f,c
  3963  0015DE  C00F  F00A         	movff	___flmul@grs,??___flmul
  3964  0015E2  C010  F00B         	movff	___flmul@grs+1,??___flmul+1
  3965  0015E6  C011  F00C         	movff	___flmul@grs+2,??___flmul+2
  3966  0015EA  C012  F00D         	movff	___flmul@grs+3,??___flmul+3
  3967  0015EE  0E19               	movlw	25
  3968  0015F0  EFFF  F00A         	goto	u2960
  3969  0015F4                     u2965:
  3970  0015F4  90D8               	bcf	status,0,c
  3971  0015F6  320D               	rrcf	(??___flmul+3)^0,f,c
  3972  0015F8  320C               	rrcf	(??___flmul+2)^0,f,c
  3973  0015FA  320B               	rrcf	(??___flmul+1)^0,f,c
  3974  0015FC  320A               	rrcf	??___flmul^0,f,c
  3975  0015FE                     u2960:
  3976  0015FE  2EE8               	decfsz	wreg,f,c
  3977  001600  EFFA  F00A         	goto	u2965
  3978  001604  500A               	movf	??___flmul^0,w,c
  3979  001606  2615               	addwf	___flmul@prod^0,f,c
  3980  001608  500B               	movf	(??___flmul+1)^0,w,c
  3981  00160A  2216               	addwfc	(___flmul@prod+1)^0,f,c
  3982  00160C  500C               	movf	(??___flmul+2)^0,w,c
  3983  00160E  2217               	addwfc	(___flmul@prod+2)^0,f,c
  3984  001610  500D               	movf	(??___flmul+3)^0,w,c
  3985  001612  2218               	addwfc	(___flmul@prod+3)^0,f,c
  3986  001614  C011  F012         	movff	___flmul@grs+2,___flmul@grs+3
  3987  001618  C010  F011         	movff	___flmul@grs+1,___flmul@grs+2
  3988  00161C  C00F  F010         	movff	___flmul@grs,___flmul@grs+1
  3989  001620  6A0F               	clrf	___flmul@grs^0,c
  3990  001622  5013               	movf	___flmul@aexp^0,w,c
  3991  001624  C014  F00A         	movff	___flmul@bexp,??___flmul
  3992  001628  6A0B               	clrf	(??___flmul+1)^0,c
  3993  00162A  260A               	addwf	??___flmul^0,f,c
  3994  00162C  0E00               	movlw	0
  3995  00162E  220B               	addwfc	(??___flmul+1)^0,f,c
  3996  001630  0E82               	movlw	130
  3997  001632  240A               	addwf	??___flmul^0,w,c
  3998  001634  6E19               	movwf	___flmul@temp^0,c
  3999  001636  0EFF               	movlw	255
  4000  001638  200B               	addwfc	(??___flmul+1)^0,w,c
  4001  00163A  6E1A               	movwf	(___flmul@temp+1)^0,c
  4002  00163C  EF35  F00B         	goto	l3237
  4003  001640                     l3231:
  4004  001640  90D8               	bcf	status,0,c
  4005  001642  3615               	rlcf	___flmul@prod^0,f,c
  4006  001644  3616               	rlcf	(___flmul@prod+1)^0,f,c
  4007  001646  3617               	rlcf	(___flmul@prod+2)^0,f,c
  4008  001648  3618               	rlcf	(___flmul@prod+3)^0,f,c
  4009  00164A  AE12               	btfss	(___flmul@grs+3)^0,7,c
  4010  00164C  EF2A  F00B         	goto	u2971
  4011  001650  EF2C  F00B         	goto	u2970
  4012  001654                     u2971:
  4013  001654  EF2D  F00B         	goto	l1078
  4014  001658                     u2970:
  4015  001658  8015               	bsf	___flmul@prod^0,0,c
  4016  00165A                     l1078:
  4017  00165A  90D8               	bcf	status,0,c
  4018  00165C  360F               	rlcf	___flmul@grs^0,f,c
  4019  00165E  3610               	rlcf	(___flmul@grs+1)^0,f,c
  4020  001660  3611               	rlcf	(___flmul@grs+2)^0,f,c
  4021  001662  3612               	rlcf	(___flmul@grs+3)^0,f,c
  4022  001664  0619               	decf	___flmul@temp^0,f,c
  4023  001666  A0D8               	btfss	status,0,c
  4024  001668  061A               	decf	(___flmul@temp+1)^0,f,c
  4025  00166A                     l3237:
  4026  00166A  AE17               	btfss	(___flmul@prod+2)^0,7,c
  4027  00166C  EF3A  F00B         	goto	u2981
  4028  001670  EF3C  F00B         	goto	u2980
  4029  001674                     u2981:
  4030  001674  EF20  F00B         	goto	l3231
  4031  001678                     u2980:
  4032  001678  0E00               	movlw	0
  4033  00167A  6E13               	movwf	___flmul@aexp^0,c
  4034  00167C  AE12               	btfss	(___flmul@grs+3)^0,7,c
  4035  00167E  EF43  F00B         	goto	u2991
  4036  001682  EF45  F00B         	goto	u2990
  4037  001686                     u2991:
  4038  001686  EF69  F00B         	goto	l1080
  4039  00168A                     u2990:
  4040  00168A  0EFF               	movlw	255
  4041  00168C  140F               	andwf	___flmul@grs^0,w,c
  4042  00168E  6E0A               	movwf	??___flmul^0,c
  4043  001690  0EFF               	movlw	255
  4044  001692  1410               	andwf	(___flmul@grs+1)^0,w,c
  4045  001694  6E0B               	movwf	(??___flmul+1)^0,c
  4046  001696  0EFF               	movlw	255
  4047  001698  1411               	andwf	(___flmul@grs+2)^0,w,c
  4048  00169A  6E0C               	movwf	(??___flmul+2)^0,c
  4049  00169C  0E7F               	movlw	127
  4050  00169E  1412               	andwf	(___flmul@grs+3)^0,w,c
  4051  0016A0  6E0D               	movwf	(??___flmul+3)^0,c
  4052  0016A2  500A               	movf	??___flmul^0,w,c
  4053  0016A4  100B               	iorwf	(??___flmul+1)^0,w,c
  4054  0016A6  100C               	iorwf	(??___flmul+2)^0,w,c
  4055  0016A8  100D               	iorwf	(??___flmul+3)^0,w,c
  4056  0016AA  B4D8               	btfsc	status,2,c
  4057  0016AC  EF5A  F00B         	goto	u3001
  4058  0016B0  EF5C  F00B         	goto	u3000
  4059  0016B4                     u3001:
  4060  0016B4  EF60  F00B         	goto	l1081
  4061  0016B8                     u3000:
  4062  0016B8                     l3245:
  4063  0016B8  0E01               	movlw	1
  4064  0016BA  6E13               	movwf	___flmul@aexp^0,c
  4065  0016BC  EF69  F00B         	goto	l1080
  4066  0016C0                     l1081:
  4067  0016C0  A015               	btfss	___flmul@prod^0,0,c
  4068  0016C2  EF65  F00B         	goto	u3011
  4069  0016C6  EF67  F00B         	goto	u3010
  4070  0016CA                     u3011:
  4071  0016CA  EF69  F00B         	goto	l1080
  4072  0016CE                     u3010:
  4073  0016CE  EF5C  F00B         	goto	l3245
  4074  0016D2                     l1080:
  4075  0016D2  5013               	movf	___flmul@aexp^0,w,c
  4076  0016D4  B4D8               	btfsc	status,2,c
  4077  0016D6  EF6F  F00B         	goto	u3021
  4078  0016DA  EF71  F00B         	goto	u3020
  4079  0016DE                     u3021:
  4080  0016DE  EF95  F00B         	goto	l3257
  4081  0016E2                     u3020:
  4082  0016E2  0E01               	movlw	1
  4083  0016E4  2615               	addwf	___flmul@prod^0,f,c
  4084  0016E6  0E00               	movlw	0
  4085  0016E8  2216               	addwfc	(___flmul@prod+1)^0,f,c
  4086  0016EA  2217               	addwfc	(___flmul@prod+2)^0,f,c
  4087  0016EC  2218               	addwfc	(___flmul@prod+3)^0,f,c
  4088  0016EE  A018               	btfss	(___flmul@prod+3)^0,0,c
  4089  0016F0  EF7C  F00B         	goto	u3031
  4090  0016F4  EF7E  F00B         	goto	u3030
  4091  0016F8                     u3031:
  4092  0016F8  EF95  F00B         	goto	l3257
  4093  0016FC                     u3030:
  4094  0016FC  C015  F00A         	movff	___flmul@prod,??___flmul
  4095  001700  C016  F00B         	movff	___flmul@prod+1,??___flmul+1
  4096  001704  C017  F00C         	movff	___flmul@prod+2,??___flmul+2
  4097  001708  C018  F00D         	movff	___flmul@prod+3,??___flmul+3
  4098  00170C  340D               	rlcf	(??___flmul+3)^0,w,c
  4099  00170E  320D               	rrcf	(??___flmul+3)^0,f,c
  4100  001710  320C               	rrcf	(??___flmul+2)^0,f,c
  4101  001712  320B               	rrcf	(??___flmul+1)^0,f,c
  4102  001714  320A               	rrcf	??___flmul^0,f,c
  4103  001716  C00A  F015         	movff	??___flmul,___flmul@prod
  4104  00171A  C00B  F016         	movff	??___flmul+1,___flmul@prod+1
  4105  00171E  C00C  F017         	movff	??___flmul+2,___flmul@prod+2
  4106  001722  C00D  F018         	movff	??___flmul+3,___flmul@prod+3
  4107  001726  4A19               	infsnz	___flmul@temp^0,f,c
  4108  001728  2A1A               	incf	(___flmul@temp+1)^0,f,c
  4109  00172A                     l3257:
  4110  00172A  BE1A               	btfsc	(___flmul@temp+1)^0,7,c
  4111  00172C  EFA0  F00B         	goto	u3041
  4112  001730  501A               	movf	(___flmul@temp+1)^0,w,c
  4113  001732  E108               	bnz	u3040
  4114  001734  2819               	incf	___flmul@temp^0,w,c
  4115  001736  A0D8               	btfss	status,0,c
  4116  001738  EFA0  F00B         	goto	u3041
  4117  00173C  EFA2  F00B         	goto	u3040
  4118  001740                     u3041:
  4119  001740  EFAC  F00B         	goto	l3261
  4120  001744                     u3040:
  4121  001744  0E00               	movlw	0
  4122  001746  6E15               	movwf	___flmul@prod^0,c
  4123  001748  0E00               	movlw	0
  4124  00174A  6E16               	movwf	(___flmul@prod+1)^0,c
  4125  00174C  0E80               	movlw	128
  4126  00174E  6E17               	movwf	(___flmul@prod+2)^0,c
  4127  001750  0E7F               	movlw	127
  4128  001752  6E18               	movwf	(___flmul@prod+3)^0,c
  4129  001754  EFDA  F00B         	goto	l3273
  4130  001758                     l3261:
  4131  001758  BE1A               	btfsc	(___flmul@temp+1)^0,7,c
  4132  00175A  EFB9  F00B         	goto	u3050
  4133  00175E  501A               	movf	(___flmul@temp+1)^0,w,c
  4134  001760  E106               	bnz	u3051
  4135  001762  0419               	decf	___flmul@temp^0,w,c
  4136  001764  B0D8               	btfsc	status,0,c
  4137  001766  EFB7  F00B         	goto	u3051
  4138  00176A  EFB9  F00B         	goto	u3050
  4139  00176E                     u3051:
  4140  00176E  EFC5  F00B         	goto	l1088
  4141  001772                     u3050:
  4142  001772  0E00               	movlw	0
  4143  001774  6E15               	movwf	___flmul@prod^0,c
  4144  001776  0E00               	movlw	0
  4145  001778  6E16               	movwf	(___flmul@prod+1)^0,c
  4146  00177A  0E00               	movlw	0
  4147  00177C  6E17               	movwf	(___flmul@prod+2)^0,c
  4148  00177E  0E00               	movlw	0
  4149  001780  6E18               	movwf	(___flmul@prod+3)^0,c
  4150  001782  0E00               	movlw	0
  4151  001784  6E0E               	movwf	___flmul@sign^0,c
  4152  001786  EFDA  F00B         	goto	l3273
  4153  00178A                     l1088:
  4154  00178A  C019  F014         	movff	___flmul@temp,___flmul@bexp
  4155  00178E  0EFF               	movlw	255
  4156  001790  1615               	andwf	___flmul@prod^0,f,c
  4157  001792  0EFF               	movlw	255
  4158  001794  1616               	andwf	(___flmul@prod+1)^0,f,c
  4159  001796  0E7F               	movlw	127
  4160  001798  1617               	andwf	(___flmul@prod+2)^0,f,c
  4161  00179A  0E00               	movlw	0
  4162  00179C  1618               	andwf	(___flmul@prod+3)^0,f,c
  4163  00179E  A014               	btfss	___flmul@bexp^0,0,c
  4164  0017A0  EFD4  F00B         	goto	u3061
  4165  0017A4  EFD6  F00B         	goto	u3060
  4166  0017A8                     u3061:
  4167  0017A8  EFD7  F00B         	goto	l3271
  4168  0017AC                     u3060:
  4169  0017AC  8E17               	bsf	(___flmul@prod+2)^0,7,c
  4170  0017AE                     l3271:
  4171  0017AE  90D8               	bcf	status,0,c
  4172  0017B0  3014               	rrcf	___flmul@bexp^0,w,c
  4173  0017B2  6E18               	movwf	(___flmul@prod+3)^0,c
  4174  0017B4                     l3273:
  4175  0017B4  500E               	movf	___flmul@sign^0,w,c
  4176  0017B6  1218               	iorwf	(___flmul@prod+3)^0,f,c
  4177  0017B8  C015  F002         	movff	___flmul@prod,?___flmul
  4178  0017BC  C016  F003         	movff	___flmul@prod+1,?___flmul+1
  4179  0017C0  C017  F004         	movff	___flmul@prod+2,?___flmul+2
  4180  0017C4  C018  F005         	movff	___flmul@prod+3,?___flmul+3
  4181  0017C8                     l1075:
  4182  0017C8  0012               	return		;funcret
  4183  0017CA                     __end_of___flmul:
  4184                           	opt callstack 0
  4185                           
  4186 ;; *************** function ___fldiv *****************
  4187 ;; Defined at:
  4188 ;;		line 11 in file "C:\Program Files (x86)\Microchip\xc8\v2.10\pic\sources\c90\common\sprcdiv.c"
  4189 ;; Parameters:    Size  Location     Type
  4190 ;;  b               4   26[COMRAM] unsigned char 
  4191 ;;  a               4   30[COMRAM] unsigned char 
  4192 ;; Auto vars:     Size  Location     Type
  4193 ;;  grs             4   45[COMRAM] unsigned long 
  4194 ;;  rem             4   38[COMRAM] unsigned long 
  4195 ;;  new_exp         2   43[COMRAM] int 
  4196 ;;  aexp            1   50[COMRAM] unsigned char 
  4197 ;;  bexp            1   49[COMRAM] unsigned char 
  4198 ;;  sign            1   42[COMRAM] unsigned char 
  4199 ;; Return value:  Size  Location     Type
  4200 ;;                  4   26[COMRAM] unsigned char 
  4201 ;; Registers used:
  4202 ;;		wreg, status,2, status,0
  4203 ;; Tracked objects:
  4204 ;;		On entry : 0/0
  4205 ;;		On exit  : 0/0
  4206 ;;		Unchanged: 0/0
  4207 ;; Data sizes:     COMRAM   BANK0   BANK1   BANK2   BANK3   BANK4   BANK5   BANK6   BANK7
  4208 ;;      Params:         8       0       0       0       0       0       0       0       0
  4209 ;;      Locals:        13       0       0       0       0       0       0       0       0
  4210 ;;      Temps:          4       0       0       0       0       0       0       0       0
  4211 ;;      Totals:        25       0       0       0       0       0       0       0       0
  4212 ;;Total ram usage:       25 bytes
  4213 ;; Hardware stack levels used:    1
  4214 ;; Hardware stack levels required when called:    1
  4215 ;; This function calls:
  4216 ;;		Nothing
  4217 ;; This function is called by:
  4218 ;;		_automatic
  4219 ;;		_manual
  4220 ;; This function uses a non-reentrant model
  4221 ;;
  4222                           
  4223                           	psect	text15
  4224  0017CA                     __ptext15:
  4225                           	opt callstack 0
  4226  0017CA                     ___fldiv:
  4227                           	opt callstack 27
  4228  0017CA  501E               	movf	(___fldiv@b+3)^0,w,c
  4229  0017CC  0B80               	andlw	128
  4230  0017CE  6E2B               	movwf	___fldiv@sign^0,c
  4231  0017D0  501E               	movf	(___fldiv@b+3)^0,w,c
  4232  0017D2  241E               	addwf	(___fldiv@b+3)^0,w,c
  4233  0017D4  6E32               	movwf	___fldiv@bexp^0,c
  4234  0017D6  AE1D               	btfss	(___fldiv@b+2)^0,7,c
  4235  0017D8  EFF0  F00B         	goto	u2651
  4236  0017DC  EFF2  F00B         	goto	u2650
  4237  0017E0                     u2651:
  4238  0017E0  EFF3  F00B         	goto	l3017
  4239  0017E4                     u2650:
  4240  0017E4  8032               	bsf	___fldiv@bexp^0,0,c
  4241  0017E6                     l3017:
  4242  0017E6  5032               	movf	___fldiv@bexp^0,w,c
  4243  0017E8  B4D8               	btfsc	status,2,c
  4244  0017EA  EFF9  F00B         	goto	u2661
  4245  0017EE  EFFB  F00B         	goto	u2660
  4246  0017F2                     u2661:
  4247  0017F2  EF10  F00C         	goto	l3027
  4248  0017F6                     u2660:
  4249  0017F6  2832               	incf	___fldiv@bexp^0,w,c
  4250  0017F8  A4D8               	btfss	status,2,c
  4251  0017FA  EF01  F00C         	goto	u2671
  4252  0017FE  EF03  F00C         	goto	u2670
  4253  001802                     u2671:
  4254  001802  EF0B  F00C         	goto	l3023
  4255  001806                     u2670:
  4256  001806  0E00               	movlw	0
  4257  001808  6E1B               	movwf	___fldiv@b^0,c
  4258  00180A  0E00               	movlw	0
  4259  00180C  6E1C               	movwf	(___fldiv@b+1)^0,c
  4260  00180E  0E00               	movlw	0
  4261  001810  6E1D               	movwf	(___fldiv@b+2)^0,c
  4262  001812  0E00               	movlw	0
  4263  001814  6E1E               	movwf	(___fldiv@b+3)^0,c
  4264  001816                     l3023:
  4265  001816  8E1D               	bsf	(___fldiv@b+2)^0,7,c
  4266  001818  0E00               	movlw	0
  4267  00181A  6E1E               	movwf	(___fldiv@b+3)^0,c
  4268  00181C  EF18  F00C         	goto	l3029
  4269  001820                     l3027:
  4270  001820  0E00               	movlw	0
  4271  001822  6E1B               	movwf	___fldiv@b^0,c
  4272  001824  0E00               	movlw	0
  4273  001826  6E1C               	movwf	(___fldiv@b+1)^0,c
  4274  001828  0E00               	movlw	0
  4275  00182A  6E1D               	movwf	(___fldiv@b+2)^0,c
  4276  00182C  0E00               	movlw	0
  4277  00182E  6E1E               	movwf	(___fldiv@b+3)^0,c
  4278  001830                     l3029:
  4279  001830  5022               	movf	(___fldiv@a+3)^0,w,c
  4280  001832  0B80               	andlw	128
  4281  001834  1A2B               	xorwf	___fldiv@sign^0,f,c
  4282  001836  5022               	movf	(___fldiv@a+3)^0,w,c
  4283  001838  2422               	addwf	(___fldiv@a+3)^0,w,c
  4284  00183A  6E33               	movwf	___fldiv@aexp^0,c
  4285  00183C  AE21               	btfss	(___fldiv@a+2)^0,7,c
  4286  00183E  EF23  F00C         	goto	u2681
  4287  001842  EF25  F00C         	goto	u2680
  4288  001846                     u2681:
  4289  001846  EF26  F00C         	goto	l3037
  4290  00184A                     u2680:
  4291  00184A  8033               	bsf	___fldiv@aexp^0,0,c
  4292  00184C                     l3037:
  4293  00184C  5033               	movf	___fldiv@aexp^0,w,c
  4294  00184E  B4D8               	btfsc	status,2,c
  4295  001850  EF2C  F00C         	goto	u2691
  4296  001854  EF2E  F00C         	goto	u2690
  4297  001858                     u2691:
  4298  001858  EF43  F00C         	goto	l3047
  4299  00185C                     u2690:
  4300  00185C  2833               	incf	___fldiv@aexp^0,w,c
  4301  00185E  A4D8               	btfss	status,2,c
  4302  001860  EF34  F00C         	goto	u2701
  4303  001864  EF36  F00C         	goto	u2700
  4304  001868                     u2701:
  4305  001868  EF3E  F00C         	goto	l3043
  4306  00186C                     u2700:
  4307  00186C  0E00               	movlw	0
  4308  00186E  6E1F               	movwf	___fldiv@a^0,c
  4309  001870  0E00               	movlw	0
  4310  001872  6E20               	movwf	(___fldiv@a+1)^0,c
  4311  001874  0E00               	movlw	0
  4312  001876  6E21               	movwf	(___fldiv@a+2)^0,c
  4313  001878  0E00               	movlw	0
  4314  00187A  6E22               	movwf	(___fldiv@a+3)^0,c
  4315  00187C                     l3043:
  4316  00187C  8E21               	bsf	(___fldiv@a+2)^0,7,c
  4317  00187E  0E00               	movlw	0
  4318  001880  6E22               	movwf	(___fldiv@a+3)^0,c
  4319  001882  EF4B  F00C         	goto	l3049
  4320  001886                     l3047:
  4321  001886  0E00               	movlw	0
  4322  001888  6E1F               	movwf	___fldiv@a^0,c
  4323  00188A  0E00               	movlw	0
  4324  00188C  6E20               	movwf	(___fldiv@a+1)^0,c
  4325  00188E  0E00               	movlw	0
  4326  001890  6E21               	movwf	(___fldiv@a+2)^0,c
  4327  001892  0E00               	movlw	0
  4328  001894  6E22               	movwf	(___fldiv@a+3)^0,c
  4329  001896                     l3049:
  4330  001896  501F               	movf	___fldiv@a^0,w,c
  4331  001898  1020               	iorwf	(___fldiv@a+1)^0,w,c
  4332  00189A  1021               	iorwf	(___fldiv@a+2)^0,w,c
  4333  00189C  1022               	iorwf	(___fldiv@a+3)^0,w,c
  4334  00189E  A4D8               	btfss	status,2,c
  4335  0018A0  EF54  F00C         	goto	u2711
  4336  0018A4  EF56  F00C         	goto	u2710
  4337  0018A8                     u2711:
  4338  0018A8  EF6E  F00C         	goto	l3061
  4339  0018AC                     u2710:
  4340  0018AC  0E00               	movlw	0
  4341  0018AE  6E1B               	movwf	___fldiv@b^0,c
  4342  0018B0  0E00               	movlw	0
  4343  0018B2  6E1C               	movwf	(___fldiv@b+1)^0,c
  4344  0018B4  0E00               	movlw	0
  4345  0018B6  6E1D               	movwf	(___fldiv@b+2)^0,c
  4346  0018B8  0E00               	movlw	0
  4347  0018BA  6E1E               	movwf	(___fldiv@b+3)^0,c
  4348  0018BC  0E80               	movlw	128
  4349  0018BE  121D               	iorwf	(___fldiv@b+2)^0,f,c
  4350  0018C0  0E7F               	movlw	127
  4351  0018C2  121E               	iorwf	(___fldiv@b+3)^0,f,c
  4352  0018C4                     l3055:
  4353  0018C4  502B               	movf	___fldiv@sign^0,w,c
  4354  0018C6  121E               	iorwf	(___fldiv@b+3)^0,f,c
  4355  0018C8  C01B  F01B         	movff	___fldiv@b,?___fldiv
  4356  0018CC  C01C  F01C         	movff	___fldiv@b+1,?___fldiv+1
  4357  0018D0  C01D  F01D         	movff	___fldiv@b+2,?___fldiv+2
  4358  0018D4  C01E  F01E         	movff	___fldiv@b+3,?___fldiv+3
  4359  0018D8  EFB1  F00D         	goto	l1039
  4360  0018DC                     l3061:
  4361  0018DC  5032               	movf	___fldiv@bexp^0,w,c
  4362  0018DE  A4D8               	btfss	status,2,c
  4363  0018E0  EF74  F00C         	goto	u2721
  4364  0018E4  EF76  F00C         	goto	u2720
  4365  0018E8                     u2721:
  4366  0018E8  EF80  F00C         	goto	l3069
  4367  0018EC                     u2720:
  4368  0018EC  0E00               	movlw	0
  4369  0018EE  6E1B               	movwf	?___fldiv^0,c
  4370  0018F0  0E00               	movlw	0
  4371  0018F2  6E1C               	movwf	(?___fldiv+1)^0,c
  4372  0018F4  0E00               	movlw	0
  4373  0018F6  6E1D               	movwf	(?___fldiv+2)^0,c
  4374  0018F8  0E00               	movlw	0
  4375  0018FA  6E1E               	movwf	(?___fldiv+3)^0,c
  4376  0018FC  EFB1  F00D         	goto	l1039
  4377  001900                     l3069:
  4378  001900  5033               	movf	___fldiv@aexp^0,w,c
  4379  001902  C032  F023         	movff	___fldiv@bexp,??___fldiv
  4380  001906  6A24               	clrf	(??___fldiv+1)^0,c
  4381  001908  5E23               	subwf	??___fldiv^0,f,c
  4382  00190A  0E00               	movlw	0
  4383  00190C  5A24               	subwfb	(??___fldiv+1)^0,f,c
  4384  00190E  0E7F               	movlw	127
  4385  001910  2423               	addwf	??___fldiv^0,w,c
  4386  001912  6E2C               	movwf	___fldiv@new_exp^0,c
  4387  001914  0E00               	movlw	0
  4388  001916  2024               	addwfc	(??___fldiv+1)^0,w,c
  4389  001918  6E2D               	movwf	(___fldiv@new_exp+1)^0,c
  4390  00191A  C01B  F027         	movff	___fldiv@b,___fldiv@rem
  4391  00191E  C01C  F028         	movff	___fldiv@b+1,___fldiv@rem+1
  4392  001922  C01D  F029         	movff	___fldiv@b+2,___fldiv@rem+2
  4393  001926  C01E  F02A         	movff	___fldiv@b+3,___fldiv@rem+3
  4394  00192A  0E00               	movlw	0
  4395  00192C  6E1B               	movwf	___fldiv@b^0,c
  4396  00192E  0E00               	movlw	0
  4397  001930  6E1C               	movwf	(___fldiv@b+1)^0,c
  4398  001932  0E00               	movlw	0
  4399  001934  6E1D               	movwf	(___fldiv@b+2)^0,c
  4400  001936  0E00               	movlw	0
  4401  001938  6E1E               	movwf	(___fldiv@b+3)^0,c
  4402  00193A  0E00               	movlw	0
  4403  00193C  6E2E               	movwf	___fldiv@grs^0,c
  4404  00193E  0E00               	movlw	0
  4405  001940  6E2F               	movwf	(___fldiv@grs+1)^0,c
  4406  001942  0E00               	movlw	0
  4407  001944  6E30               	movwf	(___fldiv@grs+2)^0,c
  4408  001946  0E00               	movlw	0
  4409  001948  6E31               	movwf	(___fldiv@grs+3)^0,c
  4410  00194A  0E00               	movlw	0
  4411  00194C  6E33               	movwf	___fldiv@aexp^0,c
  4412  00194E  EFE1  F00C         	goto	l1041
  4413  001952                     l3079:
  4414  001952  5033               	movf	___fldiv@aexp^0,w,c
  4415  001954  B4D8               	btfsc	status,2,c
  4416  001956  EFAF  F00C         	goto	u2731
  4417  00195A  EFB1  F00C         	goto	u2730
  4418  00195E                     u2731:
  4419  00195E  EFC8  F00C         	goto	l3087
  4420  001962                     u2730:
  4421  001962  90D8               	bcf	status,0,c
  4422  001964  3627               	rlcf	___fldiv@rem^0,f,c
  4423  001966  3628               	rlcf	(___fldiv@rem+1)^0,f,c
  4424  001968  3629               	rlcf	(___fldiv@rem+2)^0,f,c
  4425  00196A  362A               	rlcf	(___fldiv@rem+3)^0,f,c
  4426  00196C  90D8               	bcf	status,0,c
  4427  00196E  361B               	rlcf	___fldiv@b^0,f,c
  4428  001970  361C               	rlcf	(___fldiv@b+1)^0,f,c
  4429  001972  361D               	rlcf	(___fldiv@b+2)^0,f,c
  4430  001974  361E               	rlcf	(___fldiv@b+3)^0,f,c
  4431  001976  AE31               	btfss	(___fldiv@grs+3)^0,7,c
  4432  001978  EFC0  F00C         	goto	u2741
  4433  00197C  EFC2  F00C         	goto	u2740
  4434  001980                     u2741:
  4435  001980  EFC3  F00C         	goto	l1044
  4436  001984                     u2740:
  4437  001984  801B               	bsf	___fldiv@b^0,0,c
  4438  001986                     l1044:
  4439  001986  90D8               	bcf	status,0,c
  4440  001988  362E               	rlcf	___fldiv@grs^0,f,c
  4441  00198A  362F               	rlcf	(___fldiv@grs+1)^0,f,c
  4442  00198C  3630               	rlcf	(___fldiv@grs+2)^0,f,c
  4443  00198E  3631               	rlcf	(___fldiv@grs+3)^0,f,c
  4444  001990                     l3087:
  4445  001990  501F               	movf	___fldiv@a^0,w,c
  4446  001992  5C27               	subwf	___fldiv@rem^0,w,c
  4447  001994  5020               	movf	(___fldiv@a+1)^0,w,c
  4448  001996  5828               	subwfb	(___fldiv@rem+1)^0,w,c
  4449  001998  5021               	movf	(___fldiv@a+2)^0,w,c
  4450  00199A  5829               	subwfb	(___fldiv@rem+2)^0,w,c
  4451  00199C  5022               	movf	(___fldiv@a+3)^0,w,c
  4452  00199E  582A               	subwfb	(___fldiv@rem+3)^0,w,c
  4453  0019A0  A0D8               	btfss	status,0,c
  4454  0019A2  EFD5  F00C         	goto	u2751
  4455  0019A6  EFD7  F00C         	goto	u2750
  4456  0019AA                     u2751:
  4457  0019AA  EFE0  F00C         	goto	l3093
  4458  0019AE                     u2750:
  4459  0019AE  8C31               	bsf	(___fldiv@grs+3)^0,6,c
  4460  0019B0  501F               	movf	___fldiv@a^0,w,c
  4461  0019B2  5E27               	subwf	___fldiv@rem^0,f,c
  4462  0019B4  5020               	movf	(___fldiv@a+1)^0,w,c
  4463  0019B6  5A28               	subwfb	(___fldiv@rem+1)^0,f,c
  4464  0019B8  5021               	movf	(___fldiv@a+2)^0,w,c
  4465  0019BA  5A29               	subwfb	(___fldiv@rem+2)^0,f,c
  4466  0019BC  5022               	movf	(___fldiv@a+3)^0,w,c
  4467  0019BE  5A2A               	subwfb	(___fldiv@rem+3)^0,f,c
  4468  0019C0                     l3093:
  4469  0019C0  2A33               	incf	___fldiv@aexp^0,f,c
  4470  0019C2                     l1041:
  4471  0019C2  0E19               	movlw	25
  4472  0019C4  6433               	cpfsgt	___fldiv@aexp^0,c
  4473  0019C6  EFE7  F00C         	goto	u2761
  4474  0019CA  EFE9  F00C         	goto	u2760
  4475  0019CE                     u2761:
  4476  0019CE  EFA9  F00C         	goto	l3079
  4477  0019D2                     u2760:
  4478  0019D2  5027               	movf	___fldiv@rem^0,w,c
  4479  0019D4  1028               	iorwf	(___fldiv@rem+1)^0,w,c
  4480  0019D6  1029               	iorwf	(___fldiv@rem+2)^0,w,c
  4481  0019D8  102A               	iorwf	(___fldiv@rem+3)^0,w,c
  4482  0019DA  B4D8               	btfsc	status,2,c
  4483  0019DC  EFF2  F00C         	goto	u2771
  4484  0019E0  EFF4  F00C         	goto	u2770
  4485  0019E4                     u2771:
  4486  0019E4  EF0C  F00D         	goto	l3105
  4487  0019E8                     u2770:
  4488  0019E8  802E               	bsf	___fldiv@grs^0,0,c
  4489  0019EA  EF0C  F00D         	goto	l3105
  4490  0019EE                     l3099:
  4491  0019EE  90D8               	bcf	status,0,c
  4492  0019F0  361B               	rlcf	___fldiv@b^0,f,c
  4493  0019F2  361C               	rlcf	(___fldiv@b+1)^0,f,c
  4494  0019F4  361D               	rlcf	(___fldiv@b+2)^0,f,c
  4495  0019F6  361E               	rlcf	(___fldiv@b+3)^0,f,c
  4496  0019F8  AE31               	btfss	(___fldiv@grs+3)^0,7,c
  4497  0019FA  EF01  F00D         	goto	u2781
  4498  0019FE  EF03  F00D         	goto	u2780
  4499  001A02                     u2781:
  4500  001A02  EF04  F00D         	goto	l1050
  4501  001A06                     u2780:
  4502  001A06  801B               	bsf	___fldiv@b^0,0,c
  4503  001A08                     l1050:
  4504  001A08  90D8               	bcf	status,0,c
  4505  001A0A  362E               	rlcf	___fldiv@grs^0,f,c
  4506  001A0C  362F               	rlcf	(___fldiv@grs+1)^0,f,c
  4507  001A0E  3630               	rlcf	(___fldiv@grs+2)^0,f,c
  4508  001A10  3631               	rlcf	(___fldiv@grs+3)^0,f,c
  4509  001A12  062C               	decf	___fldiv@new_exp^0,f,c
  4510  001A14  A0D8               	btfss	status,0,c
  4511  001A16  062D               	decf	(___fldiv@new_exp+1)^0,f,c
  4512  001A18                     l3105:
  4513  001A18  AE1D               	btfss	(___fldiv@b+2)^0,7,c
  4514  001A1A  EF11  F00D         	goto	u2791
  4515  001A1E  EF13  F00D         	goto	u2790
  4516  001A22                     u2791:
  4517  001A22  EFF7  F00C         	goto	l3099
  4518  001A26                     u2790:
  4519  001A26  0E00               	movlw	0
  4520  001A28  6E33               	movwf	___fldiv@aexp^0,c
  4521  001A2A  AE31               	btfss	(___fldiv@grs+3)^0,7,c
  4522  001A2C  EF1A  F00D         	goto	u2801
  4523  001A30  EF1C  F00D         	goto	u2800
  4524  001A34                     u2801:
  4525  001A34  EF40  F00D         	goto	l1052
  4526  001A38                     u2800:
  4527  001A38  0EFF               	movlw	255
  4528  001A3A  142E               	andwf	___fldiv@grs^0,w,c
  4529  001A3C  6E23               	movwf	??___fldiv^0,c
  4530  001A3E  0EFF               	movlw	255
  4531  001A40  142F               	andwf	(___fldiv@grs+1)^0,w,c
  4532  001A42  6E24               	movwf	(??___fldiv+1)^0,c
  4533  001A44  0EFF               	movlw	255
  4534  001A46  1430               	andwf	(___fldiv@grs+2)^0,w,c
  4535  001A48  6E25               	movwf	(??___fldiv+2)^0,c
  4536  001A4A  0E7F               	movlw	127
  4537  001A4C  1431               	andwf	(___fldiv@grs+3)^0,w,c
  4538  001A4E  6E26               	movwf	(??___fldiv+3)^0,c
  4539  001A50  5023               	movf	??___fldiv^0,w,c
  4540  001A52  1024               	iorwf	(??___fldiv+1)^0,w,c
  4541  001A54  1025               	iorwf	(??___fldiv+2)^0,w,c
  4542  001A56  1026               	iorwf	(??___fldiv+3)^0,w,c
  4543  001A58  B4D8               	btfsc	status,2,c
  4544  001A5A  EF31  F00D         	goto	u2811
  4545  001A5E  EF33  F00D         	goto	u2810
  4546  001A62                     u2811:
  4547  001A62  EF37  F00D         	goto	l1053
  4548  001A66                     u2810:
  4549  001A66                     l3113:
  4550  001A66  0E01               	movlw	1
  4551  001A68  6E33               	movwf	___fldiv@aexp^0,c
  4552  001A6A  EF40  F00D         	goto	l1052
  4553  001A6E                     l1053:
  4554  001A6E  A01B               	btfss	___fldiv@b^0,0,c
  4555  001A70  EF3C  F00D         	goto	u2821
  4556  001A74  EF3E  F00D         	goto	u2820
  4557  001A78                     u2821:
  4558  001A78  EF40  F00D         	goto	l1052
  4559  001A7C                     u2820:
  4560  001A7C  EF33  F00D         	goto	l3113
  4561  001A80                     l1052:
  4562  001A80  5033               	movf	___fldiv@aexp^0,w,c
  4563  001A82  B4D8               	btfsc	status,2,c
  4564  001A84  EF46  F00D         	goto	u2831
  4565  001A88  EF48  F00D         	goto	u2830
  4566  001A8C                     u2831:
  4567  001A8C  EF6C  F00D         	goto	l3125
  4568  001A90                     u2830:
  4569  001A90  0E01               	movlw	1
  4570  001A92  261B               	addwf	___fldiv@b^0,f,c
  4571  001A94  0E00               	movlw	0
  4572  001A96  221C               	addwfc	(___fldiv@b+1)^0,f,c
  4573  001A98  221D               	addwfc	(___fldiv@b+2)^0,f,c
  4574  001A9A  221E               	addwfc	(___fldiv@b+3)^0,f,c
  4575  001A9C  A01E               	btfss	(___fldiv@b+3)^0,0,c
  4576  001A9E  EF53  F00D         	goto	u2841
  4577  001AA2  EF55  F00D         	goto	u2840
  4578  001AA6                     u2841:
  4579  001AA6  EF6C  F00D         	goto	l3125
  4580  001AAA                     u2840:
  4581  001AAA  C01B  F023         	movff	___fldiv@b,??___fldiv
  4582  001AAE  C01C  F024         	movff	___fldiv@b+1,??___fldiv+1
  4583  001AB2  C01D  F025         	movff	___fldiv@b+2,??___fldiv+2
  4584  001AB6  C01E  F026         	movff	___fldiv@b+3,??___fldiv+3
  4585  001ABA  3426               	rlcf	(??___fldiv+3)^0,w,c
  4586  001ABC  3226               	rrcf	(??___fldiv+3)^0,f,c
  4587  001ABE  3225               	rrcf	(??___fldiv+2)^0,f,c
  4588  001AC0  3224               	rrcf	(??___fldiv+1)^0,f,c
  4589  001AC2  3223               	rrcf	??___fldiv^0,f,c
  4590  001AC4  C023  F01B         	movff	??___fldiv,___fldiv@b
  4591  001AC8  C024  F01C         	movff	??___fldiv+1,___fldiv@b+1
  4592  001ACC  C025  F01D         	movff	??___fldiv+2,___fldiv@b+2
  4593  001AD0  C026  F01E         	movff	??___fldiv+3,___fldiv@b+3
  4594  001AD4  4A2C               	infsnz	___fldiv@new_exp^0,f,c
  4595  001AD6  2A2D               	incf	(___fldiv@new_exp+1)^0,f,c
  4596  001AD8                     l3125:
  4597  001AD8  BE2D               	btfsc	(___fldiv@new_exp+1)^0,7,c
  4598  001ADA  EF77  F00D         	goto	u2851
  4599  001ADE  502D               	movf	(___fldiv@new_exp+1)^0,w,c
  4600  001AE0  E108               	bnz	u2850
  4601  001AE2  282C               	incf	___fldiv@new_exp^0,w,c
  4602  001AE4  A0D8               	btfss	status,0,c
  4603  001AE6  EF77  F00D         	goto	u2851
  4604  001AEA  EF79  F00D         	goto	u2850
  4605  001AEE                     u2851:
  4606  001AEE  EF84  F00D         	goto	l3129
  4607  001AF2                     u2850:
  4608  001AF2  0E00               	movlw	0
  4609  001AF4  6E2D               	movwf	(___fldiv@new_exp+1)^0,c
  4610  001AF6  682C               	setf	___fldiv@new_exp^0,c
  4611  001AF8  0E00               	movlw	0
  4612  001AFA  6E1B               	movwf	___fldiv@b^0,c
  4613  001AFC  0E00               	movlw	0
  4614  001AFE  6E1C               	movwf	(___fldiv@b+1)^0,c
  4615  001B00  0E00               	movlw	0
  4616  001B02  6E1D               	movwf	(___fldiv@b+2)^0,c
  4617  001B04  0E00               	movlw	0
  4618  001B06  6E1E               	movwf	(___fldiv@b+3)^0,c
  4619  001B08                     l3129:
  4620  001B08  BE2D               	btfsc	(___fldiv@new_exp+1)^0,7,c
  4621  001B0A  EF91  F00D         	goto	u2860
  4622  001B0E  502D               	movf	(___fldiv@new_exp+1)^0,w,c
  4623  001B10  E106               	bnz	u2861
  4624  001B12  042C               	decf	___fldiv@new_exp^0,w,c
  4625  001B14  B0D8               	btfsc	status,0,c
  4626  001B16  EF8F  F00D         	goto	u2861
  4627  001B1A  EF91  F00D         	goto	u2860
  4628  001B1E                     u2861:
  4629  001B1E  EF9F  F00D         	goto	l3133
  4630  001B22                     u2860:
  4631  001B22  0E00               	movlw	0
  4632  001B24  6E2D               	movwf	(___fldiv@new_exp+1)^0,c
  4633  001B26  0E00               	movlw	0
  4634  001B28  6E2C               	movwf	___fldiv@new_exp^0,c
  4635  001B2A  0E00               	movlw	0
  4636  001B2C  6E1B               	movwf	___fldiv@b^0,c
  4637  001B2E  0E00               	movlw	0
  4638  001B30  6E1C               	movwf	(___fldiv@b+1)^0,c
  4639  001B32  0E00               	movlw	0
  4640  001B34  6E1D               	movwf	(___fldiv@b+2)^0,c
  4641  001B36  0E00               	movlw	0
  4642  001B38  6E1E               	movwf	(___fldiv@b+3)^0,c
  4643  001B3A  0E00               	movlw	0
  4644  001B3C  6E2B               	movwf	___fldiv@sign^0,c
  4645  001B3E                     l3133:
  4646  001B3E  C02C  F032         	movff	___fldiv@new_exp,___fldiv@bexp
  4647  001B42  A032               	btfss	___fldiv@bexp^0,0,c
  4648  001B44  EFA6  F00D         	goto	u2871
  4649  001B48  EFA8  F00D         	goto	u2870
  4650  001B4C                     u2871:
  4651  001B4C  EFAB  F00D         	goto	l3139
  4652  001B50                     u2870:
  4653  001B50  8E1D               	bsf	(___fldiv@b+2)^0,7,c
  4654  001B52  EFAC  F00D         	goto	l3141
  4655  001B56                     l3139:
  4656  001B56  9E1D               	bcf	(___fldiv@b+2)^0,7,c
  4657  001B58                     l3141:
  4658  001B58  90D8               	bcf	status,0,c
  4659  001B5A  3032               	rrcf	___fldiv@bexp^0,w,c
  4660  001B5C  6E1E               	movwf	(___fldiv@b+3)^0,c
  4661  001B5E  EF62  F00C         	goto	l3055
  4662  001B62                     l1039:
  4663  001B62  0012               	return		;funcret
  4664  001B64                     __end_of___fldiv:
  4665                           	opt callstack 0
  4666                           
  4667 ;; *************** function _bienv_cont *****************
  4668 ;; Defined at:
  4669 ;;		line 185 in file "main.c"
  4670 ;; Parameters:    Size  Location     Type
  4671 ;;		None
  4672 ;; Auto vars:     Size  Location     Type
  4673 ;;		None
  4674 ;; Return value:  Size  Location     Type
  4675 ;;                  1    wreg      void 
  4676 ;; Registers used:
  4677 ;;		wreg, fsr0l, fsr0h, fsr2l, fsr2h, status,2, status,0, tblptrl, tblptrh, tblptru, prodl, prodh, cstack
  4678 ;; Tracked objects:
  4679 ;;		On entry : 0/0
  4680 ;;		On exit  : 0/0
  4681 ;;		Unchanged: 0/0
  4682 ;; Data sizes:     COMRAM   BANK0   BANK1   BANK2   BANK3   BANK4   BANK5   BANK6   BANK7
  4683 ;;      Params:         0       0       0       0       0       0       0       0       0
  4684 ;;      Locals:         0       0       0       0       0       0       0       0       0
  4685 ;;      Temps:          2       0       0       0       0       0       0       0       0
  4686 ;;      Totals:         2       0       0       0       0       0       0       0       0
  4687 ;;Total ram usage:        2 bytes
  4688 ;; Hardware stack levels used:    1
  4689 ;; Hardware stack levels required when called:    6
  4690 ;; This function calls:
  4691 ;;		_LCD_Cmd
  4692 ;;		_LCD_Goto
  4693 ;;		_LCD_Print
  4694 ;;		_keyfind
  4695 ;;		_memset
  4696 ;; This function is called by:
  4697 ;;		_main
  4698 ;; This function uses a non-reentrant model
  4699 ;;
  4700                           
  4701                           	psect	text16
  4702  000892                     __ptext16:
  4703                           	opt callstack 0
  4704  000892                     _bienv_cont:
  4705                           	opt callstack 24
  4706  000892                     
  4707                           ;main.c: 186:     LCD_Goto(1,1);
  4708  000892  0E01               	movlw	1
  4709  000894  6E08               	movwf	LCD_Goto@row^0,c
  4710  000896  0E01               	movlw	1
  4711  000898  EC36  F016         	call	_LCD_Goto
  4712  00089C                     
  4713                           ;main.c: 187:     LCD_Print("Bienvenido");
  4714  00089C  0E40               	movlw	low STR_1
  4715  00089E  6E06               	movwf	LCD_Print@LCD_Str^0,c
  4716  0008A0  0E08               	movlw	high STR_1
  4717  0008A2  6E07               	movwf	(LCD_Print@LCD_Str+1)^0,c
  4718  0008A4  EC1B  F015         	call	_LCD_Print	;wreg free
  4719  0008A8                     
  4720                           ;main.c: 188:     _delay((unsigned long)((2000)*(20000000/4000.0)));
  4721  0008A8  0E33               	movlw	51
  4722  0008AA  6E0D               	movwf	(??_bienv_cont+1)^0,c
  4723  0008AC  0EBB               	movlw	187
  4724  0008AE  6E0C               	movwf	??_bienv_cont^0,c
  4725  0008B0  0EE0               	movlw	224
  4726  0008B2                     u4637:
  4727  0008B2  2EE8               	decfsz	wreg,f,c
  4728  0008B4  D7FE               	bra	u4637
  4729  0008B6  2E0C               	decfsz	??_bienv_cont^0,f,c
  4730  0008B8  D7FC               	bra	u4637
  4731  0008BA  2E0D               	decfsz	(??_bienv_cont+1)^0,f,c
  4732  0008BC  D7FA               	bra	u4637
  4733  0008BE                     
  4734                           ;main.c: 189:     LCD_Cmd(0x01);
  4735  0008BE  0E01               	movlw	1
  4736  0008C0  EC20  F017         	call	_LCD_Cmd
  4737  0008C4                     l3675:
  4738                           
  4739                           ;main.c: 192:         LCD_Goto(1,1);
  4740  0008C4  0E01               	movlw	1
  4741  0008C6  6E08               	movwf	LCD_Goto@row^0,c
  4742  0008C8  0E01               	movlw	1
  4743  0008CA  EC36  F016         	call	_LCD_Goto
  4744  0008CE                     
  4745                           ;main.c: 193:         LCD_Print("Ingrese Contra.");
  4746  0008CE  0E0B               	movlw	low STR_2
  4747  0008D0  6E06               	movwf	LCD_Print@LCD_Str^0,c
  4748  0008D2  0E08               	movlw	high STR_2
  4749  0008D4  6E07               	movwf	(LCD_Print@LCD_Str+1)^0,c
  4750  0008D6  EC1B  F015         	call	_LCD_Print	;wreg free
  4751  0008DA                     
  4752                           ;main.c: 194:         LCD_Cmd(0xC0);
  4753  0008DA  0EC0               	movlw	192
  4754  0008DC  EC20  F017         	call	_LCD_Cmd
  4755  0008E0                     
  4756                           ;main.c: 198:         contra = keyfind();
  4757  0008E0  EC5F  F00F         	call	_keyfind	;wreg free
  4758  0008E4  6E59               	movwf	_contra^0,c
  4759  0008E6                     
  4760                           ;main.c: 199:         _delay((unsigned long)((20)*(20000000/4000.0)));
  4761  0008E6  0E82               	movlw	130
  4762  0008E8  6E0C               	movwf	??_bienv_cont^0,c
  4763  0008EA  0EDE               	movlw	222
  4764  0008EC                     u4647:
  4765  0008EC  2EE8               	decfsz	wreg,f,c
  4766  0008EE  D7FE               	bra	u4647
  4767  0008F0  2E0C               	decfsz	??_bienv_cont^0,f,c
  4768  0008F2  D7FC               	bra	u4647
  4769  0008F4                     
  4770                           ;main.c: 201:         if (contra != ' '){
  4771  0008F4  0E20               	movlw	32
  4772  0008F6  1859               	xorwf	_contra^0,w,c
  4773  0008F8  B4D8               	btfsc	status,2,c
  4774  0008FA  EF81  F004         	goto	u3491
  4775  0008FE  EF83  F004         	goto	u3490
  4776  000902                     u3491:
  4777  000902  EF1E  F007         	goto	l3887
  4778  000906                     u3490:
  4779  000906                     
  4780                           ;main.c: 202:             if (contra!='A' && contra!='B' && contra!='C' && contra!='D' &
      +                          & contra!='E'){
  4781  000906  0E41               	movlw	65
  4782  000908  1859               	xorwf	_contra^0,w,c
  4783  00090A  B4D8               	btfsc	status,2,c
  4784  00090C  EF8A  F004         	goto	u3501
  4785  000910  EF8C  F004         	goto	u3500
  4786  000914                     u3501:
  4787  000914  EF1E  F007         	goto	l3887
  4788  000918                     u3500:
  4789  000918  0E42               	movlw	66
  4790  00091A  1859               	xorwf	_contra^0,w,c
  4791  00091C  B4D8               	btfsc	status,2,c
  4792  00091E  EF93  F004         	goto	u3511
  4793  000922  EF95  F004         	goto	u3510
  4794  000926                     u3511:
  4795  000926  EF1E  F007         	goto	l3887
  4796  00092A                     u3510:
  4797  00092A  0E43               	movlw	67
  4798  00092C  1859               	xorwf	_contra^0,w,c
  4799  00092E  B4D8               	btfsc	status,2,c
  4800  000930  EF9C  F004         	goto	u3521
  4801  000934  EF9E  F004         	goto	u3520
  4802  000938                     u3521:
  4803  000938  EF1E  F007         	goto	l3887
  4804  00093C                     u3520:
  4805  00093C  0E44               	movlw	68
  4806  00093E  1859               	xorwf	_contra^0,w,c
  4807  000940  B4D8               	btfsc	status,2,c
  4808  000942  EFA5  F004         	goto	u3531
  4809  000946  EFA7  F004         	goto	u3530
  4810  00094A                     u3531:
  4811  00094A  EF1E  F007         	goto	l3887
  4812  00094E                     u3530:
  4813  00094E  0E45               	movlw	69
  4814  000950  1859               	xorwf	_contra^0,w,c
  4815  000952  B4D8               	btfsc	status,2,c
  4816  000954  EFAE  F004         	goto	u3541
  4817  000958  EFB0  F004         	goto	u3540
  4818  00095C                     u3541:
  4819  00095C  EF1E  F007         	goto	l3887
  4820  000960                     u3540:
  4821  000960                     
  4822                           ;main.c: 205:                 if (contra == '5'){
  4823  000960  0E35               	movlw	53
  4824  000962  1859               	xorwf	_contra^0,w,c
  4825  000964  A4D8               	btfss	status,2,c
  4826  000966  EFB7  F004         	goto	u3551
  4827  00096A  EFB9  F004         	goto	u3550
  4828  00096E                     u3551:
  4829  00096E  EFFA  F005         	goto	l3797
  4830  000972                     u3550:
  4831  000972                     
  4832                           ;main.c: 206:                     incon++;
  4833  000972  4A47               	infsnz	_incon^0,f,c
  4834  000974  2A48               	incf	(_incon+1)^0,f,c
  4835  000976                     
  4836                           ;main.c: 207:                     LCD_Goto(incon,2);
  4837  000976  0E02               	movlw	2
  4838  000978  6E08               	movwf	LCD_Goto@row^0,c
  4839  00097A  5047               	movf	_incon^0,w,c
  4840  00097C  EC36  F016         	call	_LCD_Goto
  4841  000980                     
  4842                           ;main.c: 208:                     LCD_Print("*");
  4843  000980  0E8F               	movlw	low STR_3
  4844  000982  6E06               	movwf	LCD_Print@LCD_Str^0,c
  4845  000984  0E08               	movlw	high STR_3
  4846  000986  6E07               	movwf	(LCD_Print@LCD_Str+1)^0,c
  4847  000988  EC1B  F015         	call	_LCD_Print	;wreg free
  4848  00098C                     
  4849                           ;main.c: 209:                     LCD_Goto(1,2);
  4850  00098C  0E02               	movlw	2
  4851  00098E  6E08               	movwf	LCD_Goto@row^0,c
  4852  000990  0E01               	movlw	1
  4853  000992  EC36  F016         	call	_LCD_Goto
  4854  000996                     
  4855                           ;main.c: 210:                     LCD_Print("*");
  4856  000996  0E8F               	movlw	low STR_3
  4857  000998  6E06               	movwf	LCD_Print@LCD_Str^0,c
  4858  00099A  0E08               	movlw	high STR_3
  4859  00099C  6E07               	movwf	(LCD_Print@LCD_Str+1)^0,c
  4860  00099E  EC1B  F015         	call	_LCD_Print	;wreg free
  4861  0009A2                     l3709:
  4862                           
  4863                           ;main.c: 214:                         contra = keyfind();
  4864  0009A2  EC5F  F00F         	call	_keyfind	;wreg free
  4865  0009A6  6E59               	movwf	_contra^0,c
  4866  0009A8                     
  4867                           ;main.c: 215:                         _delay((unsigned long)((20)*(20000000/4000.0)));
  4868  0009A8  0E82               	movlw	130
  4869  0009AA  6E0C               	movwf	??_bienv_cont^0,c
  4870  0009AC  0EDE               	movlw	222
  4871  0009AE                     u4657:
  4872  0009AE  2EE8               	decfsz	wreg,f,c
  4873  0009B0  D7FE               	bra	u4657
  4874  0009B2  2E0C               	decfsz	??_bienv_cont^0,f,c
  4875  0009B4  D7FC               	bra	u4657
  4876  0009B6                     
  4877                           ;main.c: 217:                         if (contra != ' '){
  4878  0009B6  0E20               	movlw	32
  4879  0009B8  1859               	xorwf	_contra^0,w,c
  4880  0009BA  B4D8               	btfsc	status,2,c
  4881  0009BC  EFE2  F004         	goto	u3561
  4882  0009C0  EFE4  F004         	goto	u3560
  4883  0009C4                     u3561:
  4884  0009C4  EFD1  F004         	goto	l3709
  4885  0009C8                     u3560:
  4886  0009C8                     
  4887                           ;main.c: 218:                             if (contra!='A' && contra!='B' && contra!='C' 
      +                          && contra!='D' && contra!='E'){
  4888  0009C8  0E41               	movlw	65
  4889  0009CA  1859               	xorwf	_contra^0,w,c
  4890  0009CC  B4D8               	btfsc	status,2,c
  4891  0009CE  EFEB  F004         	goto	u3571
  4892  0009D2  EFED  F004         	goto	u3570
  4893  0009D6                     u3571:
  4894  0009D6  EFD1  F004         	goto	l3709
  4895  0009DA                     u3570:
  4896  0009DA  0E42               	movlw	66
  4897  0009DC  1859               	xorwf	_contra^0,w,c
  4898  0009DE  B4D8               	btfsc	status,2,c
  4899  0009E0  EFF4  F004         	goto	u3581
  4900  0009E4  EFF6  F004         	goto	u3580
  4901  0009E8                     u3581:
  4902  0009E8  EFD1  F004         	goto	l3709
  4903  0009EC                     u3580:
  4904  0009EC  0E43               	movlw	67
  4905  0009EE  1859               	xorwf	_contra^0,w,c
  4906  0009F0  B4D8               	btfsc	status,2,c
  4907  0009F2  EFFD  F004         	goto	u3591
  4908  0009F6  EFFF  F004         	goto	u3590
  4909  0009FA                     u3591:
  4910  0009FA  EFD1  F004         	goto	l3709
  4911  0009FE                     u3590:
  4912  0009FE  0E44               	movlw	68
  4913  000A00  1859               	xorwf	_contra^0,w,c
  4914  000A02  B4D8               	btfsc	status,2,c
  4915  000A04  EF06  F005         	goto	u3601
  4916  000A08  EF08  F005         	goto	u3600
  4917  000A0C                     u3601:
  4918  000A0C  EFD1  F004         	goto	l3709
  4919  000A10                     u3600:
  4920  000A10  0E45               	movlw	69
  4921  000A12  1859               	xorwf	_contra^0,w,c
  4922  000A14  B4D8               	btfsc	status,2,c
  4923  000A16  EF0F  F005         	goto	u3611
  4924  000A1A  EF11  F005         	goto	u3610
  4925  000A1E                     u3611:
  4926  000A1E  EFD1  F004         	goto	l3709
  4927  000A22                     u3610:
  4928  000A22                     
  4929                           ;main.c: 222:                                 if (contra == '5'){
  4930  000A22  0E35               	movlw	53
  4931  000A24  1859               	xorwf	_contra^0,w,c
  4932  000A26  A4D8               	btfss	status,2,c
  4933  000A28  EF18  F005         	goto	u3621
  4934  000A2C  EF1A  F005         	goto	u3620
  4935  000A30                     u3621:
  4936  000A30  EF52  F006         	goto	l3823
  4937  000A34                     u3620:
  4938  000A34                     
  4939                           ;main.c: 223:                                     incon++;
  4940  000A34  4A47               	infsnz	_incon^0,f,c
  4941  000A36  2A48               	incf	(_incon+1)^0,f,c
  4942  000A38                     
  4943                           ;main.c: 224:                                     LCD_Goto(incon,2);
  4944  000A38  0E02               	movlw	2
  4945  000A3A  6E08               	movwf	LCD_Goto@row^0,c
  4946  000A3C  5047               	movf	_incon^0,w,c
  4947  000A3E  EC36  F016         	call	_LCD_Goto
  4948  000A42                     
  4949                           ;main.c: 225:                                     LCD_Print("*");
  4950  000A42  0E8F               	movlw	low STR_3
  4951  000A44  6E06               	movwf	LCD_Print@LCD_Str^0,c
  4952  000A46  0E08               	movlw	high STR_3
  4953  000A48  6E07               	movwf	(LCD_Print@LCD_Str+1)^0,c
  4954  000A4A  EC1B  F015         	call	_LCD_Print	;wreg free
  4955  000A4E                     
  4956                           ;main.c: 226:                                     LCD_Goto(1,2);
  4957  000A4E  0E02               	movlw	2
  4958  000A50  6E08               	movwf	LCD_Goto@row^0,c
  4959  000A52  0E01               	movlw	1
  4960  000A54  EC36  F016         	call	_LCD_Goto
  4961  000A58                     
  4962                           ;main.c: 227:                                     LCD_Print("*");
  4963  000A58  0E8F               	movlw	low STR_3
  4964  000A5A  6E06               	movwf	LCD_Print@LCD_Str^0,c
  4965  000A5C  0E08               	movlw	high STR_3
  4966  000A5E  6E07               	movwf	(LCD_Print@LCD_Str+1)^0,c
  4967  000A60  EC1B  F015         	call	_LCD_Print	;wreg free
  4968  000A64                     l3737:
  4969                           
  4970                           ;main.c: 233:           contra = keyfind();
  4971  000A64  EC5F  F00F         	call	_keyfind	;wreg free
  4972  000A68  6E59               	movwf	_contra^0,c
  4973  000A6A                     
  4974                           ;main.c: 234:           _delay((unsigned long)((20)*(20000000/4000.0)));
  4975  000A6A  0E82               	movlw	130
  4976  000A6C  6E0C               	movwf	??_bienv_cont^0,c
  4977  000A6E  0EDE               	movlw	222
  4978  000A70                     u4667:
  4979  000A70  2EE8               	decfsz	wreg,f,c
  4980  000A72  D7FE               	bra	u4667
  4981  000A74  2E0C               	decfsz	??_bienv_cont^0,f,c
  4982  000A76  D7FC               	bra	u4667
  4983  000A78                     
  4984                           ;main.c: 236:           if (contra != ' '){
  4985  000A78  0E20               	movlw	32
  4986  000A7A  1859               	xorwf	_contra^0,w,c
  4987  000A7C  B4D8               	btfsc	status,2,c
  4988  000A7E  EF43  F005         	goto	u3631
  4989  000A82  EF45  F005         	goto	u3630
  4990  000A86                     u3631:
  4991  000A86  EF32  F005         	goto	l3737
  4992  000A8A                     u3630:
  4993  000A8A                     
  4994                           ;main.c: 237:            if (contra!='A' && contra!='B' && contra!='C' && contra!='D' &&
      +                           contra!='E'){
  4995  000A8A  0E41               	movlw	65
  4996  000A8C  1859               	xorwf	_contra^0,w,c
  4997  000A8E  B4D8               	btfsc	status,2,c
  4998  000A90  EF4C  F005         	goto	u3641
  4999  000A94  EF4E  F005         	goto	u3640
  5000  000A98                     u3641:
  5001  000A98  EF32  F005         	goto	l3737
  5002  000A9C                     u3640:
  5003  000A9C  0E42               	movlw	66
  5004  000A9E  1859               	xorwf	_contra^0,w,c
  5005  000AA0  B4D8               	btfsc	status,2,c
  5006  000AA2  EF55  F005         	goto	u3651
  5007  000AA6  EF57  F005         	goto	u3650
  5008  000AAA                     u3651:
  5009  000AAA  EF32  F005         	goto	l3737
  5010  000AAE                     u3650:
  5011  000AAE  0E43               	movlw	67
  5012  000AB0  1859               	xorwf	_contra^0,w,c
  5013  000AB2  B4D8               	btfsc	status,2,c
  5014  000AB4  EF5E  F005         	goto	u3661
  5015  000AB8  EF60  F005         	goto	u3660
  5016  000ABC                     u3661:
  5017  000ABC  EF32  F005         	goto	l3737
  5018  000AC0                     u3660:
  5019  000AC0  0E44               	movlw	68
  5020  000AC2  1859               	xorwf	_contra^0,w,c
  5021  000AC4  B4D8               	btfsc	status,2,c
  5022  000AC6  EF67  F005         	goto	u3671
  5023  000ACA  EF69  F005         	goto	u3670
  5024  000ACE                     u3671:
  5025  000ACE  EF32  F005         	goto	l3737
  5026  000AD2                     u3670:
  5027  000AD2  0E45               	movlw	69
  5028  000AD4  1859               	xorwf	_contra^0,w,c
  5029  000AD6  B4D8               	btfsc	status,2,c
  5030  000AD8  EF70  F005         	goto	u3681
  5031  000ADC  EF72  F005         	goto	u3680
  5032  000AE0                     u3681:
  5033  000AE0  EF32  F005         	goto	l3737
  5034  000AE4                     u3680:
  5035  000AE4                     
  5036                           ;main.c: 239:             if (contra == '5'){
  5037  000AE4  0E35               	movlw	53
  5038  000AE6  1859               	xorwf	_contra^0,w,c
  5039  000AE8  A4D8               	btfss	status,2,c
  5040  000AEA  EF79  F005         	goto	u3691
  5041  000AEE  EF7B  F005         	goto	u3690
  5042  000AF2                     u3691:
  5043  000AF2  EFAA  F006         	goto	l3849
  5044  000AF6                     u3690:
  5045  000AF6                     
  5046                           ;main.c: 240:              incon++;
  5047  000AF6  4A47               	infsnz	_incon^0,f,c
  5048  000AF8  2A48               	incf	(_incon+1)^0,f,c
  5049  000AFA                     
  5050                           ;main.c: 241:              LCD_Goto(incon,2);
  5051  000AFA  0E02               	movlw	2
  5052  000AFC  6E08               	movwf	LCD_Goto@row^0,c
  5053  000AFE  5047               	movf	_incon^0,w,c
  5054  000B00  EC36  F016         	call	_LCD_Goto
  5055  000B04                     
  5056                           ;main.c: 242:              LCD_Print("*");
  5057  000B04  0E8F               	movlw	low STR_3
  5058  000B06  6E06               	movwf	LCD_Print@LCD_Str^0,c
  5059  000B08  0E08               	movlw	high STR_3
  5060  000B0A  6E07               	movwf	(LCD_Print@LCD_Str+1)^0,c
  5061  000B0C  EC1B  F015         	call	_LCD_Print	;wreg free
  5062  000B10                     
  5063                           ;main.c: 243:              LCD_Goto(2,2);
  5064  000B10  0E02               	movlw	2
  5065  000B12  6E08               	movwf	LCD_Goto@row^0,c
  5066  000B14  0E02               	movlw	2
  5067  000B16  EC36  F016         	call	_LCD_Goto
  5068  000B1A                     
  5069                           ;main.c: 244:              LCD_Print("*");
  5070  000B1A  0E8F               	movlw	low STR_3
  5071  000B1C  6E06               	movwf	LCD_Print@LCD_Str^0,c
  5072  000B1E  0E08               	movlw	high STR_3
  5073  000B20  6E07               	movwf	(LCD_Print@LCD_Str+1)^0,c
  5074  000B22  EC1B  F015         	call	_LCD_Print	;wreg free
  5075  000B26                     l3765:
  5076                           
  5077                           ;main.c: 249:               contra = keyfind();
  5078  000B26  EC5F  F00F         	call	_keyfind	;wreg free
  5079  000B2A  6E59               	movwf	_contra^0,c
  5080  000B2C                     
  5081                           ;main.c: 250:               _delay((unsigned long)((20)*(20000000/4000.0)));
  5082  000B2C  0E82               	movlw	130
  5083  000B2E  6E0C               	movwf	??_bienv_cont^0,c
  5084  000B30  0EDE               	movlw	222
  5085  000B32                     u4677:
  5086  000B32  2EE8               	decfsz	wreg,f,c
  5087  000B34  D7FE               	bra	u4677
  5088  000B36  2E0C               	decfsz	??_bienv_cont^0,f,c
  5089  000B38  D7FC               	bra	u4677
  5090  000B3A                     
  5091                           ;main.c: 252:               if (contra != ' '){
  5092  000B3A  0E20               	movlw	32
  5093  000B3C  1859               	xorwf	_contra^0,w,c
  5094  000B3E  B4D8               	btfsc	status,2,c
  5095  000B40  EFA4  F005         	goto	u3701
  5096  000B44  EFA6  F005         	goto	u3700
  5097  000B48                     u3701:
  5098  000B48  EF93  F005         	goto	l3765
  5099  000B4C                     u3700:
  5100  000B4C                     
  5101                           ;main.c: 253:                if (contra!='A' && contra!='B' && contra!='C' && contra!='D
      +                          ' && contra!='E'){
  5102  000B4C  0E41               	movlw	65
  5103  000B4E  1859               	xorwf	_contra^0,w,c
  5104  000B50  B4D8               	btfsc	status,2,c
  5105  000B52  EFAD  F005         	goto	u3711
  5106  000B56  EFAF  F005         	goto	u3710
  5107  000B5A                     u3711:
  5108  000B5A  EF93  F005         	goto	l3765
  5109  000B5E                     u3710:
  5110  000B5E  0E42               	movlw	66
  5111  000B60  1859               	xorwf	_contra^0,w,c
  5112  000B62  B4D8               	btfsc	status,2,c
  5113  000B64  EFB6  F005         	goto	u3721
  5114  000B68  EFB8  F005         	goto	u3720
  5115  000B6C                     u3721:
  5116  000B6C  EF93  F005         	goto	l3765
  5117  000B70                     u3720:
  5118  000B70  0E43               	movlw	67
  5119  000B72  1859               	xorwf	_contra^0,w,c
  5120  000B74  B4D8               	btfsc	status,2,c
  5121  000B76  EFBF  F005         	goto	u3731
  5122  000B7A  EFC1  F005         	goto	u3730
  5123  000B7E                     u3731:
  5124  000B7E  EF93  F005         	goto	l3765
  5125  000B82                     u3730:
  5126  000B82  0E44               	movlw	68
  5127  000B84  1859               	xorwf	_contra^0,w,c
  5128  000B86  B4D8               	btfsc	status,2,c
  5129  000B88  EFC8  F005         	goto	u3741
  5130  000B8C  EFCA  F005         	goto	u3740
  5131  000B90                     u3741:
  5132  000B90  EF93  F005         	goto	l3765
  5133  000B94                     u3740:
  5134  000B94  0E45               	movlw	69
  5135  000B96  1859               	xorwf	_contra^0,w,c
  5136  000B98  B4D8               	btfsc	status,2,c
  5137  000B9A  EFD1  F005         	goto	u3751
  5138  000B9E  EFD3  F005         	goto	u3750
  5139  000BA2                     u3751:
  5140  000BA2  EF93  F005         	goto	l3765
  5141  000BA6                     u3750:
  5142  000BA6                     
  5143                           ;main.c: 254:                 if (contra == '5'){
  5144  000BA6  0E35               	movlw	53
  5145  000BA8  1859               	xorwf	_contra^0,w,c
  5146  000BAA  A4D8               	btfss	status,2,c
  5147  000BAC  EFDA  F005         	goto	u3761
  5148  000BB0  EFDC  F005         	goto	u3760
  5149  000BB4                     u3761:
  5150  000BB4  EF02  F007         	goto	l3875
  5151  000BB8                     u3760:
  5152  000BB8                     
  5153                           ;main.c: 255:                  incon++;
  5154  000BB8  4A47               	infsnz	_incon^0,f,c
  5155  000BBA  2A48               	incf	(_incon+1)^0,f,c
  5156  000BBC                     
  5157                           ;main.c: 256:                  LCD_Goto(incon,2);
  5158  000BBC  0E02               	movlw	2
  5159  000BBE  6E08               	movwf	LCD_Goto@row^0,c
  5160  000BC0  5047               	movf	_incon^0,w,c
  5161  000BC2  EC36  F016         	call	_LCD_Goto
  5162  000BC6                     
  5163                           ;main.c: 257:                  LCD_Print("*");
  5164  000BC6  0E8F               	movlw	low STR_3
  5165  000BC8  6E06               	movwf	LCD_Print@LCD_Str^0,c
  5166  000BCA  0E08               	movlw	high STR_3
  5167  000BCC  6E07               	movwf	(LCD_Print@LCD_Str+1)^0,c
  5168  000BCE  EC1B  F015         	call	_LCD_Print	;wreg free
  5169  000BD2                     
  5170                           ;main.c: 258:                  LCD_Goto(3,2);
  5171  000BD2  0E02               	movlw	2
  5172  000BD4  6E08               	movwf	LCD_Goto@row^0,c
  5173  000BD6  0E03               	movlw	3
  5174  000BD8  EC36  F016         	call	_LCD_Goto
  5175  000BDC                     
  5176                           ;main.c: 259:                  LCD_Print("*");
  5177  000BDC  0E8F               	movlw	low STR_3
  5178  000BDE  6E06               	movwf	LCD_Print@LCD_Str^0,c
  5179  000BE0  0E08               	movlw	high STR_3
  5180  000BE2  6E07               	movwf	(LCD_Print@LCD_Str+1)^0,c
  5181  000BE4  EC1B  F015         	call	_LCD_Print	;wreg free
  5182  000BE8                     
  5183                           ;main.c: 260:                  acceso = 1;
  5184  000BE8  0E00               	movlw	0
  5185  000BEA  6E56               	movwf	(_acceso+1)^0,c
  5186  000BEC  0E01               	movlw	1
  5187  000BEE  6E55               	movwf	_acceso^0,c
  5188                           
  5189                           ;main.c: 261:                  goto acces;
  5190  000BF0  EF1E  F007         	goto	l3887
  5191  000BF4                     l3797:
  5192                           
  5193                           ;main.c: 301:                     incon++;
  5194  000BF4  4A47               	infsnz	_incon^0,f,c
  5195  000BF6  2A48               	incf	(_incon+1)^0,f,c
  5196  000BF8                     
  5197                           ;main.c: 302:                     LCD_Goto(incon,2);
  5198  000BF8  0E02               	movlw	2
  5199  000BFA  6E08               	movwf	LCD_Goto@row^0,c
  5200  000BFC  5047               	movf	_incon^0,w,c
  5201  000BFE  EC36  F016         	call	_LCD_Goto
  5202  000C02                     
  5203                           ;main.c: 303:                     LCD_Print("*");
  5204  000C02  0E8F               	movlw	low STR_3
  5205  000C04  6E06               	movwf	LCD_Print@LCD_Str^0,c
  5206  000C06  0E08               	movlw	high STR_3
  5207  000C08  6E07               	movwf	(LCD_Print@LCD_Str+1)^0,c
  5208  000C0A  EC1B  F015         	call	_LCD_Print	;wreg free
  5209  000C0E                     
  5210                           ;main.c: 304:                     LCD_Goto(1,2);
  5211  000C0E  0E02               	movlw	2
  5212  000C10  6E08               	movwf	LCD_Goto@row^0,c
  5213  000C12  0E01               	movlw	1
  5214  000C14  EC36  F016         	call	_LCD_Goto
  5215  000C18                     
  5216                           ;main.c: 305:                     LCD_Print("*");
  5217  000C18  0E8F               	movlw	low STR_3
  5218  000C1A  6E06               	movwf	LCD_Print@LCD_Str^0,c
  5219  000C1C  0E08               	movlw	high STR_3
  5220  000C1E  6E07               	movwf	(LCD_Print@LCD_Str+1)^0,c
  5221  000C20  EC1B  F015         	call	_LCD_Print	;wreg free
  5222  000C24                     l3807:
  5223                           
  5224                           ;main.c: 310:       contra = keyfind();
  5225  000C24  EC5F  F00F         	call	_keyfind	;wreg free
  5226  000C28  6E59               	movwf	_contra^0,c
  5227  000C2A                     
  5228                           ;main.c: 311:       _delay((unsigned long)((20)*(20000000/4000.0)));
  5229  000C2A  0E82               	movlw	130
  5230  000C2C  6E0C               	movwf	??_bienv_cont^0,c
  5231  000C2E  0EDE               	movlw	222
  5232  000C30                     u4687:
  5233  000C30  2EE8               	decfsz	wreg,f,c
  5234  000C32  D7FE               	bra	u4687
  5235  000C34  2E0C               	decfsz	??_bienv_cont^0,f,c
  5236  000C36  D7FC               	bra	u4687
  5237  000C38                     
  5238                           ;main.c: 312:       if (contra != ' '){
  5239  000C38  0E20               	movlw	32
  5240  000C3A  1859               	xorwf	_contra^0,w,c
  5241  000C3C  B4D8               	btfsc	status,2,c
  5242  000C3E  EF23  F006         	goto	u3771
  5243  000C42  EF25  F006         	goto	u3770
  5244  000C46                     u3771:
  5245  000C46  EF12  F006         	goto	l3807
  5246  000C4A                     u3770:
  5247  000C4A                     
  5248                           ;main.c: 313:        if (contra!='A' && contra!='B' && contra!='C' && contra!='D' && con
      +                          tra!='E'){
  5249  000C4A  0E41               	movlw	65
  5250  000C4C  1859               	xorwf	_contra^0,w,c
  5251  000C4E  B4D8               	btfsc	status,2,c
  5252  000C50  EF2C  F006         	goto	u3781
  5253  000C54  EF2E  F006         	goto	u3780
  5254  000C58                     u3781:
  5255  000C58  EF12  F006         	goto	l3807
  5256  000C5C                     u3780:
  5257  000C5C  0E42               	movlw	66
  5258  000C5E  1859               	xorwf	_contra^0,w,c
  5259  000C60  B4D8               	btfsc	status,2,c
  5260  000C62  EF35  F006         	goto	u3791
  5261  000C66  EF37  F006         	goto	u3790
  5262  000C6A                     u3791:
  5263  000C6A  EF12  F006         	goto	l3807
  5264  000C6E                     u3790:
  5265  000C6E  0E43               	movlw	67
  5266  000C70  1859               	xorwf	_contra^0,w,c
  5267  000C72  B4D8               	btfsc	status,2,c
  5268  000C74  EF3E  F006         	goto	u3801
  5269  000C78  EF40  F006         	goto	u3800
  5270  000C7C                     u3801:
  5271  000C7C  EF12  F006         	goto	l3807
  5272  000C80                     u3800:
  5273  000C80  0E44               	movlw	68
  5274  000C82  1859               	xorwf	_contra^0,w,c
  5275  000C84  B4D8               	btfsc	status,2,c
  5276  000C86  EF47  F006         	goto	u3811
  5277  000C8A  EF49  F006         	goto	u3810
  5278  000C8E                     u3811:
  5279  000C8E  EF12  F006         	goto	l3807
  5280  000C92                     u3810:
  5281  000C92  0E45               	movlw	69
  5282  000C94  1859               	xorwf	_contra^0,w,c
  5283  000C96  B4D8               	btfsc	status,2,c
  5284  000C98  EF50  F006         	goto	u3821
  5285  000C9C  EF52  F006         	goto	u3820
  5286  000CA0                     u3821:
  5287  000CA0  EF12  F006         	goto	l3807
  5288  000CA4                     u3820:
  5289  000CA4                     l3823:
  5290                           
  5291                           ;main.c: 315:                                 incon++;
  5292  000CA4  4A47               	infsnz	_incon^0,f,c
  5293  000CA6  2A48               	incf	(_incon+1)^0,f,c
  5294  000CA8                     
  5295                           ;main.c: 316:                                 LCD_Goto(incon,2);
  5296  000CA8  0E02               	movlw	2
  5297  000CAA  6E08               	movwf	LCD_Goto@row^0,c
  5298  000CAC  5047               	movf	_incon^0,w,c
  5299  000CAE  EC36  F016         	call	_LCD_Goto
  5300  000CB2                     
  5301                           ;main.c: 317:         LCD_Print("*");
  5302  000CB2  0E8F               	movlw	low STR_3
  5303  000CB4  6E06               	movwf	LCD_Print@LCD_Str^0,c
  5304  000CB6  0E08               	movlw	high STR_3
  5305  000CB8  6E07               	movwf	(LCD_Print@LCD_Str+1)^0,c
  5306  000CBA  EC1B  F015         	call	_LCD_Print	;wreg free
  5307  000CBE                     
  5308                           ;main.c: 318:         LCD_Goto(1,2);
  5309  000CBE  0E02               	movlw	2
  5310  000CC0  6E08               	movwf	LCD_Goto@row^0,c
  5311  000CC2  0E01               	movlw	1
  5312  000CC4  EC36  F016         	call	_LCD_Goto
  5313  000CC8                     
  5314                           ;main.c: 319:         LCD_Print("*");
  5315  000CC8  0E8F               	movlw	low STR_3
  5316  000CCA  6E06               	movwf	LCD_Print@LCD_Str^0,c
  5317  000CCC  0E08               	movlw	high STR_3
  5318  000CCE  6E07               	movwf	(LCD_Print@LCD_Str+1)^0,c
  5319  000CD0  EC1B  F015         	call	_LCD_Print	;wreg free
  5320  000CD4                     l3833:
  5321                           
  5322                           ;main.c: 323:          contra = keyfind();
  5323  000CD4  EC5F  F00F         	call	_keyfind	;wreg free
  5324  000CD8  6E59               	movwf	_contra^0,c
  5325  000CDA                     
  5326                           ;main.c: 324:          _delay((unsigned long)((20)*(20000000/4000.0)));
  5327  000CDA  0E82               	movlw	130
  5328  000CDC  6E0C               	movwf	??_bienv_cont^0,c
  5329  000CDE  0EDE               	movlw	222
  5330  000CE0                     u4697:
  5331  000CE0  2EE8               	decfsz	wreg,f,c
  5332  000CE2  D7FE               	bra	u4697
  5333  000CE4  2E0C               	decfsz	??_bienv_cont^0,f,c
  5334  000CE6  D7FC               	bra	u4697
  5335  000CE8                     
  5336                           ;main.c: 325:          if (contra != ' '){
  5337  000CE8  0E20               	movlw	32
  5338  000CEA  1859               	xorwf	_contra^0,w,c
  5339  000CEC  B4D8               	btfsc	status,2,c
  5340  000CEE  EF7B  F006         	goto	u3831
  5341  000CF2  EF7D  F006         	goto	u3830
  5342  000CF6                     u3831:
  5343  000CF6  EF6A  F006         	goto	l3833
  5344  000CFA                     u3830:
  5345  000CFA                     
  5346                           ;main.c: 326:           if (contra!='A' && contra!='B' && contra!='C' && contra!='D' && 
      +                          contra!='E'){
  5347  000CFA  0E41               	movlw	65
  5348  000CFC  1859               	xorwf	_contra^0,w,c
  5349  000CFE  B4D8               	btfsc	status,2,c
  5350  000D00  EF84  F006         	goto	u3841
  5351  000D04  EF86  F006         	goto	u3840
  5352  000D08                     u3841:
  5353  000D08  EF6A  F006         	goto	l3833
  5354  000D0C                     u3840:
  5355  000D0C  0E42               	movlw	66
  5356  000D0E  1859               	xorwf	_contra^0,w,c
  5357  000D10  B4D8               	btfsc	status,2,c
  5358  000D12  EF8D  F006         	goto	u3851
  5359  000D16  EF8F  F006         	goto	u3850
  5360  000D1A                     u3851:
  5361  000D1A  EF6A  F006         	goto	l3833
  5362  000D1E                     u3850:
  5363  000D1E  0E43               	movlw	67
  5364  000D20  1859               	xorwf	_contra^0,w,c
  5365  000D22  B4D8               	btfsc	status,2,c
  5366  000D24  EF96  F006         	goto	u3861
  5367  000D28  EF98  F006         	goto	u3860
  5368  000D2C                     u3861:
  5369  000D2C  EF6A  F006         	goto	l3833
  5370  000D30                     u3860:
  5371  000D30  0E44               	movlw	68
  5372  000D32  1859               	xorwf	_contra^0,w,c
  5373  000D34  B4D8               	btfsc	status,2,c
  5374  000D36  EF9F  F006         	goto	u3871
  5375  000D3A  EFA1  F006         	goto	u3870
  5376  000D3E                     u3871:
  5377  000D3E  EF6A  F006         	goto	l3833
  5378  000D42                     u3870:
  5379  000D42  0E45               	movlw	69
  5380  000D44  1859               	xorwf	_contra^0,w,c
  5381  000D46  B4D8               	btfsc	status,2,c
  5382  000D48  EFA8  F006         	goto	u3881
  5383  000D4C  EFAA  F006         	goto	u3880
  5384  000D50                     u3881:
  5385  000D50  EF6A  F006         	goto	l3833
  5386  000D54                     u3880:
  5387  000D54                     l3849:
  5388                           
  5389                           ;main.c: 328:                                             incon++;
  5390  000D54  4A47               	infsnz	_incon^0,f,c
  5391  000D56  2A48               	incf	(_incon+1)^0,f,c
  5392  000D58                     
  5393                           ;main.c: 329:                                             LCD_Goto(incon,2);
  5394  000D58  0E02               	movlw	2
  5395  000D5A  6E08               	movwf	LCD_Goto@row^0,c
  5396  000D5C  5047               	movf	_incon^0,w,c
  5397  000D5E  EC36  F016         	call	_LCD_Goto
  5398  000D62                     
  5399                           ;main.c: 330:            LCD_Print("*");
  5400  000D62  0E8F               	movlw	low STR_3
  5401  000D64  6E06               	movwf	LCD_Print@LCD_Str^0,c
  5402  000D66  0E08               	movlw	high STR_3
  5403  000D68  6E07               	movwf	(LCD_Print@LCD_Str+1)^0,c
  5404  000D6A  EC1B  F015         	call	_LCD_Print	;wreg free
  5405  000D6E                     
  5406                           ;main.c: 331:            LCD_Goto(2,2);
  5407  000D6E  0E02               	movlw	2
  5408  000D70  6E08               	movwf	LCD_Goto@row^0,c
  5409  000D72  0E02               	movlw	2
  5410  000D74  EC36  F016         	call	_LCD_Goto
  5411  000D78                     
  5412                           ;main.c: 332:            LCD_Print("*");
  5413  000D78  0E8F               	movlw	low STR_3
  5414  000D7A  6E06               	movwf	LCD_Print@LCD_Str^0,c
  5415  000D7C  0E08               	movlw	high STR_3
  5416  000D7E  6E07               	movwf	(LCD_Print@LCD_Str+1)^0,c
  5417  000D80  EC1B  F015         	call	_LCD_Print	;wreg free
  5418  000D84                     l3859:
  5419                           
  5420                           ;main.c: 337:             contra = keyfind();
  5421  000D84  EC5F  F00F         	call	_keyfind	;wreg free
  5422  000D88  6E59               	movwf	_contra^0,c
  5423  000D8A                     
  5424                           ;main.c: 338:             _delay((unsigned long)((20)*(20000000/4000.0)));
  5425  000D8A  0E82               	movlw	130
  5426  000D8C  6E0C               	movwf	??_bienv_cont^0,c
  5427  000D8E  0EDE               	movlw	222
  5428  000D90                     u4707:
  5429  000D90  2EE8               	decfsz	wreg,f,c
  5430  000D92  D7FE               	bra	u4707
  5431  000D94  2E0C               	decfsz	??_bienv_cont^0,f,c
  5432  000D96  D7FC               	bra	u4707
  5433  000D98                     
  5434                           ;main.c: 339:             if (contra != ' '){
  5435  000D98  0E20               	movlw	32
  5436  000D9A  1859               	xorwf	_contra^0,w,c
  5437  000D9C  B4D8               	btfsc	status,2,c
  5438  000D9E  EFD3  F006         	goto	u3891
  5439  000DA2  EFD5  F006         	goto	u3890
  5440  000DA6                     u3891:
  5441  000DA6  EFC2  F006         	goto	l3859
  5442  000DAA                     u3890:
  5443  000DAA                     
  5444                           ;main.c: 340:              if (contra!='A' && contra!='B' && contra!='C' && contra!='D' 
      +                          && contra!='E'){
  5445  000DAA  0E41               	movlw	65
  5446  000DAC  1859               	xorwf	_contra^0,w,c
  5447  000DAE  B4D8               	btfsc	status,2,c
  5448  000DB0  EFDC  F006         	goto	u3901
  5449  000DB4  EFDE  F006         	goto	u3900
  5450  000DB8                     u3901:
  5451  000DB8  EFC2  F006         	goto	l3859
  5452  000DBC                     u3900:
  5453  000DBC  0E42               	movlw	66
  5454  000DBE  1859               	xorwf	_contra^0,w,c
  5455  000DC0  B4D8               	btfsc	status,2,c
  5456  000DC2  EFE5  F006         	goto	u3911
  5457  000DC6  EFE7  F006         	goto	u3910
  5458  000DCA                     u3911:
  5459  000DCA  EFC2  F006         	goto	l3859
  5460  000DCE                     u3910:
  5461  000DCE  0E43               	movlw	67
  5462  000DD0  1859               	xorwf	_contra^0,w,c
  5463  000DD2  B4D8               	btfsc	status,2,c
  5464  000DD4  EFEE  F006         	goto	u3921
  5465  000DD8  EFF0  F006         	goto	u3920
  5466  000DDC                     u3921:
  5467  000DDC  EFC2  F006         	goto	l3859
  5468  000DE0                     u3920:
  5469  000DE0  0E44               	movlw	68
  5470  000DE2  1859               	xorwf	_contra^0,w,c
  5471  000DE4  B4D8               	btfsc	status,2,c
  5472  000DE6  EFF7  F006         	goto	u3931
  5473  000DEA  EFF9  F006         	goto	u3930
  5474  000DEE                     u3931:
  5475  000DEE  EFC2  F006         	goto	l3859
  5476  000DF2                     u3930:
  5477  000DF2  0E45               	movlw	69
  5478  000DF4  1859               	xorwf	_contra^0,w,c
  5479  000DF6  B4D8               	btfsc	status,2,c
  5480  000DF8  EF00  F007         	goto	u3941
  5481  000DFC  EF02  F007         	goto	u3940
  5482  000E00                     u3941:
  5483  000E00  EFC2  F006         	goto	l3859
  5484  000E04                     u3940:
  5485  000E04                     l3875:
  5486                           
  5487                           ;main.c: 342:                                                         incon++;
  5488  000E04  4A47               	infsnz	_incon^0,f,c
  5489  000E06  2A48               	incf	(_incon+1)^0,f,c
  5490  000E08                     
  5491                           ;main.c: 343:                                                         LCD_Goto(incon,2);
  5492  000E08  0E02               	movlw	2
  5493  000E0A  6E08               	movwf	LCD_Goto@row^0,c
  5494  000E0C  5047               	movf	_incon^0,w,c
  5495  000E0E  EC36  F016         	call	_LCD_Goto
  5496  000E12                     
  5497                           ;main.c: 344:               LCD_Print("*");
  5498  000E12  0E8F               	movlw	low STR_3
  5499  000E14  6E06               	movwf	LCD_Print@LCD_Str^0,c
  5500  000E16  0E08               	movlw	high STR_3
  5501  000E18  6E07               	movwf	(LCD_Print@LCD_Str+1)^0,c
  5502  000E1A  EC1B  F015         	call	_LCD_Print	;wreg free
  5503  000E1E                     
  5504                           ;main.c: 345:               LCD_Goto(3,2);
  5505  000E1E  0E02               	movlw	2
  5506  000E20  6E08               	movwf	LCD_Goto@row^0,c
  5507  000E22  0E03               	movlw	3
  5508  000E24  EC36  F016         	call	_LCD_Goto
  5509  000E28                     
  5510                           ;main.c: 346:               LCD_Print("*");
  5511  000E28  0E8F               	movlw	low STR_3
  5512  000E2A  6E06               	movwf	LCD_Print@LCD_Str^0,c
  5513  000E2C  0E08               	movlw	high STR_3
  5514  000E2E  6E07               	movwf	(LCD_Print@LCD_Str+1)^0,c
  5515  000E30  EC1B  F015         	call	_LCD_Print	;wreg free
  5516  000E34                     
  5517                           ;main.c: 347:               acceso = 0;
  5518  000E34  0E00               	movlw	0
  5519  000E36  6E56               	movwf	(_acceso+1)^0,c
  5520  000E38  0E00               	movlw	0
  5521  000E3A  6E55               	movwf	_acceso^0,c
  5522  000E3C                     l3887:
  5523                           
  5524                           ;main.c: 367:         if(acceso == 1){
  5525  000E3C  0455               	decf	_acceso^0,w,c
  5526  000E3E  1056               	iorwf	(_acceso+1)^0,w,c
  5527  000E40  A4D8               	btfss	status,2,c
  5528  000E42  EF25  F007         	goto	u3951
  5529  000E46  EF27  F007         	goto	u3950
  5530  000E4A                     u3951:
  5531  000E4A  EF4E  F007         	goto	l3899
  5532  000E4E                     u3950:
  5533  000E4E                     
  5534                           ;main.c: 368:             LCD_Cmd(0x01);
  5535  000E4E  0E01               	movlw	1
  5536  000E50  EC20  F017         	call	_LCD_Cmd
  5537                           
  5538                           ;main.c: 369:             LCD_Goto(1,1);
  5539  000E54  0E01               	movlw	1
  5540  000E56  6E08               	movwf	LCD_Goto@row^0,c
  5541  000E58  0E01               	movlw	1
  5542  000E5A  EC36  F016         	call	_LCD_Goto
  5543  000E5E                     
  5544                           ;main.c: 370:             LCD_Print("ACCESO");
  5545  000E5E  0E79               	movlw	low STR_19
  5546  000E60  6E06               	movwf	LCD_Print@LCD_Str^0,c
  5547  000E62  0E08               	movlw	high STR_19
  5548  000E64  6E07               	movwf	(LCD_Print@LCD_Str+1)^0,c
  5549  000E66  EC1B  F015         	call	_LCD_Print	;wreg free
  5550  000E6A                     
  5551                           ;main.c: 371:             LCD_Goto(1,2);
  5552  000E6A  0E02               	movlw	2
  5553  000E6C  6E08               	movwf	LCD_Goto@row^0,c
  5554  000E6E  0E01               	movlw	1
  5555  000E70  EC36  F016         	call	_LCD_Goto
  5556                           
  5557                           ;main.c: 372:             LCD_Print("CONCEDIDO");
  5558  000E74  0E4B               	movlw	low STR_20
  5559  000E76  6E06               	movwf	LCD_Print@LCD_Str^0,c
  5560  000E78  0E08               	movlw	high STR_20
  5561  000E7A  6E07               	movwf	(LCD_Print@LCD_Str+1)^0,c
  5562  000E7C  EC1B  F015         	call	_LCD_Print	;wreg free
  5563  000E80                     
  5564                           ;main.c: 373:             _delay((unsigned long)((1000)*(20000000/4000.0)));
  5565  000E80  0E1A               	movlw	26
  5566  000E82  6E0D               	movwf	(??_bienv_cont+1)^0,c
  5567  000E84  0E5E               	movlw	94
  5568  000E86  6E0C               	movwf	??_bienv_cont^0,c
  5569  000E88  0E6E               	movlw	110
  5570  000E8A                     u4717:
  5571  000E8A  2EE8               	decfsz	wreg,f,c
  5572  000E8C  D7FE               	bra	u4717
  5573  000E8E  2E0C               	decfsz	??_bienv_cont^0,f,c
  5574  000E90  D7FC               	bra	u4717
  5575  000E92  2E0D               	decfsz	(??_bienv_cont+1)^0,f,c
  5576  000E94  D7FA               	bra	u4717
  5577  000E96  D000               	nop2	
  5578                           
  5579                           ;main.c: 374:             break;
  5580  000E98  EF93  F007         	goto	l3915
  5581  000E9C                     l3899:
  5582  000E9C  5055               	movf	_acceso^0,w,c
  5583  000E9E  1056               	iorwf	(_acceso+1)^0,w,c
  5584  000EA0  A4D8               	btfss	status,2,c
  5585  000EA2  EF55  F007         	goto	u3961
  5586  000EA6  EF57  F007         	goto	u3960
  5587  000EAA                     u3961:
  5588  000EAA  EF62  F004         	goto	l3675
  5589  000EAE                     u3960:
  5590  000EAE                     
  5591                           ;main.c: 377:             LCD_Cmd(0x01);
  5592  000EAE  0E01               	movlw	1
  5593  000EB0  EC20  F017         	call	_LCD_Cmd
  5594                           
  5595                           ;main.c: 378:             LCD_Goto(1,1);
  5596  000EB4  0E01               	movlw	1
  5597  000EB6  6E08               	movwf	LCD_Goto@row^0,c
  5598  000EB8  0E01               	movlw	1
  5599  000EBA  EC36  F016         	call	_LCD_Goto
  5600  000EBE                     
  5601                           ;main.c: 379:             LCD_Print("ACCESO");
  5602  000EBE  0E79               	movlw	low STR_19
  5603  000EC0  6E06               	movwf	LCD_Print@LCD_Str^0,c
  5604  000EC2  0E08               	movlw	high STR_19
  5605  000EC4  6E07               	movwf	(LCD_Print@LCD_Str+1)^0,c
  5606  000EC6  EC1B  F015         	call	_LCD_Print	;wreg free
  5607  000ECA                     
  5608                           ;main.c: 380:             LCD_Goto(1,2);
  5609  000ECA  0E02               	movlw	2
  5610  000ECC  6E08               	movwf	LCD_Goto@row^0,c
  5611  000ECE  0E01               	movlw	1
  5612  000ED0  EC36  F016         	call	_LCD_Goto
  5613                           
  5614                           ;main.c: 381:             LCD_Print("DENEGADO");
  5615  000ED4  0E5E               	movlw	low STR_22
  5616  000ED6  6E06               	movwf	LCD_Print@LCD_Str^0,c
  5617  000ED8  0E08               	movlw	high STR_22
  5618  000EDA  6E07               	movwf	(LCD_Print@LCD_Str+1)^0,c
  5619  000EDC  EC1B  F015         	call	_LCD_Print	;wreg free
  5620  000EE0                     
  5621                           ;main.c: 382:             _delay((unsigned long)((1000)*(20000000/4000.0)));
  5622  000EE0  0E1A               	movlw	26
  5623  000EE2  6E0D               	movwf	(??_bienv_cont+1)^0,c
  5624  000EE4  0E5E               	movlw	94
  5625  000EE6  6E0C               	movwf	??_bienv_cont^0,c
  5626  000EE8  0E6E               	movlw	110
  5627  000EEA                     u4727:
  5628  000EEA  2EE8               	decfsz	wreg,f,c
  5629  000EEC  D7FE               	bra	u4727
  5630  000EEE  2E0C               	decfsz	??_bienv_cont^0,f,c
  5631  000EF0  D7FC               	bra	u4727
  5632  000EF2  2E0D               	decfsz	(??_bienv_cont+1)^0,f,c
  5633  000EF4  D7FA               	bra	u4727
  5634  000EF6  D000               	nop2	
  5635  000EF8                     
  5636                           ;main.c: 383:             LCD_Cmd(0x01);
  5637  000EF8  0E01               	movlw	1
  5638  000EFA  EC20  F017         	call	_LCD_Cmd
  5639  000EFE                     
  5640                           ;main.c: 384:             memset(contras,0,4);
  5641  000EFE  0E96               	movlw	low _contras
  5642  000F00  6E02               	movwf	memset@p1^0,c
  5643  000F02  0E00               	movlw	high _contras
  5644  000F04  6E03               	movwf	(memset@p1+1)^0,c
  5645  000F06  0E00               	movlw	0
  5646  000F08  6E05               	movwf	(memset@c+1)^0,c
  5647  000F0A  0E00               	movlw	0
  5648  000F0C  6E04               	movwf	memset@c^0,c
  5649  000F0E  0E00               	movlw	0
  5650  000F10  6E07               	movwf	(memset@n+1)^0,c
  5651  000F12  0E04               	movlw	4
  5652  000F14  6E06               	movwf	memset@n^0,c
  5653  000F16  EC66  F017         	call	_memset	;wreg free
  5654  000F1A                     
  5655                           ;main.c: 385:             incon = 0;
  5656  000F1A  0E00               	movlw	0
  5657  000F1C  6E48               	movwf	(_incon+1)^0,c
  5658  000F1E  0E00               	movlw	0
  5659  000F20  6E47               	movwf	_incon^0,c
  5660  000F22  EF62  F004         	goto	l3675
  5661  000F26                     l3915:
  5662                           
  5663                           ;main.c: 390:     LCD_Cmd(0x01);
  5664  000F26  0E01               	movlw	1
  5665  000F28  EC20  F017         	call	_LCD_Cmd
  5666  000F2C                     
  5667                           ;main.c: 391:     _delay((unsigned long)((2)*(20000000/4000.0)));
  5668  000F2C  0E0D               	movlw	13
  5669  000F2E  6E0C               	movwf	??_bienv_cont^0,c
  5670  000F30  0EFC               	movlw	252
  5671  000F32                     u4737:
  5672  000F32  2EE8               	decfsz	wreg,f,c
  5673  000F34  D7FE               	bra	u4737
  5674  000F36  2E0C               	decfsz	??_bienv_cont^0,f,c
  5675  000F38  D7FC               	bra	u4737
  5676  000F3A  0012               	return		;funcret
  5677  000F3C                     __end_of_bienv_cont:
  5678                           	opt callstack 0
  5679                           
  5680 ;; *************** function _memset *****************
  5681 ;; Defined at:
  5682 ;;		line 8 in file "C:\Program Files (x86)\Microchip\xc8\v2.10\pic\sources\c90\common\memset.c"
  5683 ;; Parameters:    Size  Location     Type
  5684 ;;  p1              2    1[COMRAM] PTR void 
  5685 ;;		 -> Temperatura(10), contras(4), 
  5686 ;;  c               2    3[COMRAM] int 
  5687 ;;  n               2    5[COMRAM] unsigned int 
  5688 ;; Auto vars:     Size  Location     Type
  5689 ;;  p               2    7[COMRAM] PTR unsigned char 
  5690 ;;		 -> Temperatura(10), contras(4), 
  5691 ;; Return value:  Size  Location     Type
  5692 ;;                  2    1[COMRAM] PTR void 
  5693 ;; Registers used:
  5694 ;;		wreg, fsr2l, fsr2h, status,2, status,0
  5695 ;; Tracked objects:
  5696 ;;		On entry : 0/0
  5697 ;;		On exit  : 0/0
  5698 ;;		Unchanged: 0/0
  5699 ;; Data sizes:     COMRAM   BANK0   BANK1   BANK2   BANK3   BANK4   BANK5   BANK6   BANK7
  5700 ;;      Params:         6       0       0       0       0       0       0       0       0
  5701 ;;      Locals:         2       0       0       0       0       0       0       0       0
  5702 ;;      Temps:          0       0       0       0       0       0       0       0       0
  5703 ;;      Totals:         8       0       0       0       0       0       0       0       0
  5704 ;;Total ram usage:        8 bytes
  5705 ;; Hardware stack levels used:    1
  5706 ;; Hardware stack levels required when called:    1
  5707 ;; This function calls:
  5708 ;;		Nothing
  5709 ;; This function is called by:
  5710 ;;		_bienv_cont
  5711 ;;		_automatic
  5712 ;; This function uses a non-reentrant model
  5713 ;;
  5714                           
  5715                           	psect	text17
  5716  002ECC                     __ptext17:
  5717                           	opt callstack 0
  5718  002ECC                     _memset:
  5719                           	opt callstack 27
  5720  002ECC  C002  F008         	movff	memset@p1,memset@p
  5721  002ED0  C003  F009         	movff	memset@p1+1,memset@p+1
  5722  002ED4  EF74  F017         	goto	l2901
  5723  002ED8                     l2897:
  5724  002ED8  C008  FFD9         	movff	memset@p,fsr2l
  5725  002EDC  C009  FFDA         	movff	memset@p+1,fsr2h
  5726  002EE0  C004  FFDF         	movff	memset@c,indf2
  5727  002EE4  4A08               	infsnz	memset@p^0,f,c
  5728  002EE6  2A09               	incf	(memset@p+1)^0,f,c
  5729  002EE8                     l2901:
  5730  002EE8  0606               	decf	memset@n^0,f,c
  5731  002EEA  A0D8               	btfss	status,0,c
  5732  002EEC  0607               	decf	(memset@n+1)^0,f,c
  5733  002EEE  2806               	incf	memset@n^0,w,c
  5734  002EF0  E106               	bnz	u2511
  5735  002EF2  2807               	incf	(memset@n+1)^0,w,c
  5736  002EF4  A4D8               	btfss	status,2,c
  5737  002EF6  EF7F  F017         	goto	u2511
  5738  002EFA  EF81  F017         	goto	u2510
  5739  002EFE                     u2511:
  5740  002EFE  EF6C  F017         	goto	l2897
  5741  002F02                     u2510:
  5742  002F02  0012               	return		;funcret
  5743  002F04                     __end_of_memset:
  5744                           	opt callstack 0
  5745                           
  5746 ;; *************** function _keyfind *****************
  5747 ;; Defined at:
  5748 ;;		line 5 in file "teclado.c"
  5749 ;; Parameters:    Size  Location     Type
  5750 ;;		None
  5751 ;; Auto vars:     Size  Location     Type
  5752 ;;		None
  5753 ;; Return value:  Size  Location     Type
  5754 ;;                  1    wreg      unsigned char 
  5755 ;; Registers used:
  5756 ;;		wreg, fsr2l, fsr2h, status,2, status,0, prodl, prodh, cstack
  5757 ;; Tracked objects:
  5758 ;;		On entry : 0/0
  5759 ;;		On exit  : 0/0
  5760 ;;		Unchanged: 0/0
  5761 ;; Data sizes:     COMRAM   BANK0   BANK1   BANK2   BANK3   BANK4   BANK5   BANK6   BANK7
  5762 ;;      Params:         0       0       0       0       0       0       0       0       0
  5763 ;;      Locals:         0       0       0       0       0       0       0       0       0
  5764 ;;      Temps:          1       0       0       0       0       0       0       0       0
  5765 ;;      Totals:         1       0       0       0       0       0       0       0       0
  5766 ;;Total ram usage:        1 bytes
  5767 ;; Hardware stack levels used:    1
  5768 ;; Hardware stack levels required when called:    5
  5769 ;; This function calls:
  5770 ;;		_LCD_PutC
  5771 ;; This function is called by:
  5772 ;;		_bienv_cont
  5773 ;;		_modo
  5774 ;;		_automatic
  5775 ;; This function uses a non-reentrant model
  5776 ;;
  5777                           
  5778                           	psect	text18
  5779  001EBE                     __ptext18:
  5780                           	opt callstack 0
  5781  001EBE                     _keyfind:
  5782                           	opt callstack 24
  5783  001EBE                     
  5784                           ;teclado.c: 7:     TRISD = 0xf0;
  5785  001EBE  0EF0               	movlw	240
  5786  001EC0  6E95               	movwf	149,c	;volatile
  5787                           
  5788                           ;teclado.c: 8:     LATD = 0xf0;
  5789  001EC2  0EF0               	movlw	240
  5790  001EC4  6E8C               	movwf	140,c	;volatile
  5791  001EC6                     l2775:
  5792                           
  5793                           ;teclado.c: 13:             col_loc = PORTD & 0xf0;
  5794  001EC6  5083               	movf	131,w,c	;volatile
  5795  001EC8  0BF0               	andlw	240
  5796  001ECA  6E50               	movwf	_col_loc^0,c
  5797  001ECC                     
  5798                           ;teclado.c: 14:         }while(col_loc!=0xf0);
  5799  001ECC  0EF0               	movlw	240
  5800  001ECE  1850               	xorwf	_col_loc^0,w,c
  5801  001ED0  A4D8               	btfss	status,2,c
  5802  001ED2  EF6D  F00F         	goto	u2301
  5803  001ED6  EF6F  F00F         	goto	u2300
  5804  001EDA                     u2301:
  5805  001EDA  EF63  F00F         	goto	l2775
  5806  001EDE                     u2300:
  5807  001EDE                     
  5808                           ;teclado.c: 16:         col_loc = PORTD & 0xf0;
  5809  001EDE  5083               	movf	131,w,c	;volatile
  5810  001EE0  0BF0               	andlw	240
  5811  001EE2  6E50               	movwf	_col_loc^0,c
  5812                           
  5813                           ;teclado.c: 18:     }while(col_loc!=0xf0);
  5814  001EE4  0EF0               	movlw	240
  5815  001EE6  1850               	xorwf	_col_loc^0,w,c
  5816  001EE8  A4D8               	btfss	status,2,c
  5817  001EEA  EF79  F00F         	goto	u2311
  5818  001EEE  EF7B  F00F         	goto	u2310
  5819  001EF2                     u2311:
  5820  001EF2  EF63  F00F         	goto	l2775
  5821  001EF6                     u2310:
  5822  001EF6                     
  5823                           ;teclado.c: 20:     LATD = 0xf0;
  5824  001EF6  0EF0               	movlw	240
  5825  001EF8  6E8C               	movwf	140,c	;volatile
  5826  001EFA                     l2783:
  5827                           
  5828                           ;teclado.c: 24:             col_loc = PORTD & 0xf0;
  5829  001EFA  5083               	movf	131,w,c	;volatile
  5830  001EFC  0BF0               	andlw	240
  5831  001EFE  6E50               	movwf	_col_loc^0,c
  5832  001F00                     
  5833                           ;teclado.c: 25:         }while(col_loc==0xf0);
  5834  001F00  0EF0               	movlw	240
  5835  001F02  1850               	xorwf	_col_loc^0,w,c
  5836  001F04  B4D8               	btfsc	status,2,c
  5837  001F06  EF87  F00F         	goto	u2321
  5838  001F0A  EF89  F00F         	goto	u2320
  5839  001F0E                     u2321:
  5840  001F0E  EF7D  F00F         	goto	l2783
  5841  001F12                     u2320:
  5842  001F12                     
  5843                           ;teclado.c: 26:         col_loc = PORTD & 0xf0;
  5844  001F12  5083               	movf	131,w,c	;volatile
  5845  001F14  0BF0               	andlw	240
  5846  001F16  6E50               	movwf	_col_loc^0,c
  5847                           
  5848                           ;teclado.c: 28:     }while(col_loc==0xf0);
  5849  001F18  0EF0               	movlw	240
  5850  001F1A  1850               	xorwf	_col_loc^0,w,c
  5851  001F1C  B4D8               	btfsc	status,2,c
  5852  001F1E  EF93  F00F         	goto	u2331
  5853  001F22  EF95  F00F         	goto	u2330
  5854  001F26                     u2331:
  5855  001F26  EF7D  F00F         	goto	l2783
  5856  001F2A                     u2330:
  5857  001F2A                     
  5858                           ;teclado.c: 30:     _delay((unsigned long)((20)*(20000000/4000.0)));
  5859  001F2A  0E82               	movlw	130
  5860  001F2C  6E07               	movwf	??_keyfind^0,c
  5861  001F2E  0EDE               	movlw	222
  5862  001F30                     u4747:
  5863  001F30  2EE8               	decfsz	wreg,f,c
  5864  001F32  D7FE               	bra	u4747
  5865  001F34  2E07               	decfsz	??_keyfind^0,f,c
  5866  001F36  D7FC               	bra	u4747
  5867  001F38                     
  5868                           ;teclado.c: 32:         col_loc = PORTD & 0xf0;
  5869  001F38  5083               	movf	131,w,c	;volatile
  5870  001F3A  0BF0               	andlw	240
  5871  001F3C  6E50               	movwf	_col_loc^0,c
  5872  001F3E                     l2793:
  5873                           
  5874                           ;teclado.c: 35:         LATD = 0xfe;
  5875  001F3E  0EFE               	movlw	254
  5876  001F40  6E8C               	movwf	140,c	;volatile
  5877  001F42                     
  5878                           ;teclado.c: 36:         col_loc = PORTD & 0xf0;
  5879  001F42  5083               	movf	131,w,c	;volatile
  5880  001F44  0BF0               	andlw	240
  5881  001F46  6E50               	movwf	_col_loc^0,c
  5882  001F48                     
  5883                           ;teclado.c: 37:         temp_col=col_loc;
  5884  001F48  C050  F04E         	movff	_col_loc,_temp_col
  5885  001F4C                     
  5886                           ;teclado.c: 38:         if(col_loc!=0xf0)
  5887  001F4C  0EF0               	movlw	240
  5888  001F4E  1850               	xorwf	_col_loc^0,w,c
  5889  001F50  B4D8               	btfsc	status,2,c
  5890  001F52  EFAD  F00F         	goto	u2341
  5891  001F56  EFAF  F00F         	goto	u2340
  5892  001F5A                     u2341:
  5893  001F5A  EFC1  F00F         	goto	l2805
  5894  001F5E                     u2340:
  5895  001F5E                     
  5896                           ;teclado.c: 39:         {;teclado.c: 40:             rowloc=0;
  5897  001F5E  0E00               	movlw	0
  5898  001F60  6E4F               	movwf	_rowloc^0,c
  5899                           
  5900                           ;teclado.c: 41:             while(temp_col!=0xf0)
  5901  001F62  EFB6  F00F         	goto	l406
  5902  001F66                     l2803:
  5903                           
  5904                           ;teclado.c: 42:             {;teclado.c: 43:                 temp_col = PORTD & 0xf0;
  5905  001F66  5083               	movf	131,w,c	;volatile
  5906  001F68  0BF0               	andlw	240
  5907  001F6A  6E4E               	movwf	_temp_col^0,c
  5908  001F6C                     l406:
  5909                           
  5910                           ;teclado.c: 41:             while(temp_col!=0xf0)
  5911  001F6C  0EF0               	movlw	240
  5912  001F6E  184E               	xorwf	_temp_col^0,w,c
  5913  001F70  A4D8               	btfss	status,2,c
  5914  001F72  EFBD  F00F         	goto	u2351
  5915  001F76  EFBF  F00F         	goto	u2350
  5916  001F7A                     u2351:
  5917  001F7A  EFB3  F00F         	goto	l2803
  5918  001F7E                     u2350:
  5919  001F7E  EF25  F010         	goto	l2841
  5920  001F82                     l2805:
  5921                           
  5922                           ;teclado.c: 48:         LATD = 0xfd;
  5923  001F82  0EFD               	movlw	253
  5924  001F84  6E8C               	movwf	140,c	;volatile
  5925  001F86                     
  5926                           ;teclado.c: 49:         col_loc = PORTD & 0xf0;
  5927  001F86  5083               	movf	131,w,c	;volatile
  5928  001F88  0BF0               	andlw	240
  5929  001F8A  6E50               	movwf	_col_loc^0,c
  5930  001F8C                     
  5931                           ;teclado.c: 50:         temp_col=col_loc;
  5932  001F8C  C050  F04E         	movff	_col_loc,_temp_col
  5933  001F90                     
  5934                           ;teclado.c: 51:         if(col_loc!=0xf0)
  5935  001F90  0EF0               	movlw	240
  5936  001F92  1850               	xorwf	_col_loc^0,w,c
  5937  001F94  B4D8               	btfsc	status,2,c
  5938  001F96  EFCF  F00F         	goto	u2361
  5939  001F9A  EFD1  F00F         	goto	u2360
  5940  001F9E                     u2361:
  5941  001F9E  EFE3  F00F         	goto	l2817
  5942  001FA2                     u2360:
  5943  001FA2                     
  5944                           ;teclado.c: 52:         {;teclado.c: 53:             rowloc=1;
  5945  001FA2  0E01               	movlw	1
  5946  001FA4  6E4F               	movwf	_rowloc^0,c
  5947                           
  5948                           ;teclado.c: 54:             while(temp_col!=0xf0)
  5949  001FA6  EFD8  F00F         	goto	l411
  5950  001FAA                     l2815:
  5951                           
  5952                           ;teclado.c: 55:             {;teclado.c: 56:                 temp_col = PORTD & 0xf0;
  5953  001FAA  5083               	movf	131,w,c	;volatile
  5954  001FAC  0BF0               	andlw	240
  5955  001FAE  6E4E               	movwf	_temp_col^0,c
  5956  001FB0                     l411:
  5957                           
  5958                           ;teclado.c: 54:             while(temp_col!=0xf0)
  5959  001FB0  0EF0               	movlw	240
  5960  001FB2  184E               	xorwf	_temp_col^0,w,c
  5961  001FB4  A4D8               	btfss	status,2,c
  5962  001FB6  EFDF  F00F         	goto	u2371
  5963  001FBA  EFE1  F00F         	goto	u2370
  5964  001FBE                     u2371:
  5965  001FBE  EFD5  F00F         	goto	l2815
  5966  001FC2                     u2370:
  5967  001FC2  EF25  F010         	goto	l2841
  5968  001FC6                     l2817:
  5969                           
  5970                           ;teclado.c: 61:         LATD = 0xfb;
  5971  001FC6  0EFB               	movlw	251
  5972  001FC8  6E8C               	movwf	140,c	;volatile
  5973  001FCA                     
  5974                           ;teclado.c: 62:         col_loc = PORTD & 0xf0;
  5975  001FCA  5083               	movf	131,w,c	;volatile
  5976  001FCC  0BF0               	andlw	240
  5977  001FCE  6E50               	movwf	_col_loc^0,c
  5978  001FD0                     
  5979                           ;teclado.c: 63:         temp_col=col_loc;
  5980  001FD0  C050  F04E         	movff	_col_loc,_temp_col
  5981  001FD4                     
  5982                           ;teclado.c: 64:         if(col_loc!=0xf0)
  5983  001FD4  0EF0               	movlw	240
  5984  001FD6  1850               	xorwf	_col_loc^0,w,c
  5985  001FD8  B4D8               	btfsc	status,2,c
  5986  001FDA  EFF1  F00F         	goto	u2381
  5987  001FDE  EFF3  F00F         	goto	u2380
  5988  001FE2                     u2381:
  5989  001FE2  EF05  F010         	goto	l2829
  5990  001FE6                     u2380:
  5991  001FE6                     
  5992                           ;teclado.c: 65:         {;teclado.c: 66:             rowloc=2;
  5993  001FE6  0E02               	movlw	2
  5994  001FE8  6E4F               	movwf	_rowloc^0,c
  5995                           
  5996                           ;teclado.c: 67:             while(temp_col!=0xf0)
  5997  001FEA  EFFA  F00F         	goto	l415
  5998  001FEE                     l2827:
  5999                           
  6000                           ;teclado.c: 68:             {;teclado.c: 69:                 temp_col = PORTD & 0xf0;
  6001  001FEE  5083               	movf	131,w,c	;volatile
  6002  001FF0  0BF0               	andlw	240
  6003  001FF2  6E4E               	movwf	_temp_col^0,c
  6004  001FF4                     l415:
  6005                           
  6006                           ;teclado.c: 67:             while(temp_col!=0xf0)
  6007  001FF4  0EF0               	movlw	240
  6008  001FF6  184E               	xorwf	_temp_col^0,w,c
  6009  001FF8  A4D8               	btfss	status,2,c
  6010  001FFA  EF01  F010         	goto	u2391
  6011  001FFE  EF03  F010         	goto	u2390
  6012  002002                     u2391:
  6013  002002  EFF7  F00F         	goto	l2827
  6014  002006                     u2390:
  6015  002006  EF25  F010         	goto	l2841
  6016  00200A                     l2829:
  6017                           
  6018                           ;teclado.c: 74:         LATD = 0xf7;
  6019  00200A  0EF7               	movlw	247
  6020  00200C  6E8C               	movwf	140,c	;volatile
  6021  00200E                     
  6022                           ;teclado.c: 75:         col_loc = PORTD & 0xf0;
  6023  00200E  5083               	movf	131,w,c	;volatile
  6024  002010  0BF0               	andlw	240
  6025  002012  6E50               	movwf	_col_loc^0,c
  6026  002014                     
  6027                           ;teclado.c: 76:         temp_col=col_loc;
  6028  002014  C050  F04E         	movff	_col_loc,_temp_col
  6029  002018                     
  6030                           ;teclado.c: 77:         if(col_loc!=0xf0)
  6031  002018  0EF0               	movlw	240
  6032  00201A  1850               	xorwf	_col_loc^0,w,c
  6033  00201C  B4D8               	btfsc	status,2,c
  6034  00201E  EF13  F010         	goto	u2401
  6035  002022  EF15  F010         	goto	u2400
  6036  002026                     u2401:
  6037  002026  EF9F  F00F         	goto	l2793
  6038  00202A                     u2400:
  6039  00202A                     
  6040                           ;teclado.c: 78:         {;teclado.c: 79:             rowloc=3;
  6041  00202A  0E03               	movlw	3
  6042  00202C  6E4F               	movwf	_rowloc^0,c
  6043                           
  6044                           ;teclado.c: 80:             while(temp_col!=0xf0)
  6045  00202E  EF1C  F010         	goto	l419
  6046  002032                     l2839:
  6047                           
  6048                           ;teclado.c: 81:             {;teclado.c: 82:                 temp_col = PORTD & 0xf0;
  6049  002032  5083               	movf	131,w,c	;volatile
  6050  002034  0BF0               	andlw	240
  6051  002036  6E4E               	movwf	_temp_col^0,c
  6052  002038                     l419:
  6053                           
  6054                           ;teclado.c: 80:             while(temp_col!=0xf0)
  6055  002038  0EF0               	movlw	240
  6056  00203A  184E               	xorwf	_temp_col^0,w,c
  6057  00203C  A4D8               	btfss	status,2,c
  6058  00203E  EF23  F010         	goto	u2411
  6059  002042  EF25  F010         	goto	u2410
  6060  002046                     u2411:
  6061  002046  EF19  F010         	goto	l2839
  6062  00204A                     u2410:
  6063  00204A                     l2841:
  6064                           
  6065                           ;teclado.c: 93:         if(col_loc==0xe0)
  6066  00204A  0EE0               	movlw	224
  6067  00204C  1850               	xorwf	_col_loc^0,w,c
  6068  00204E  A4D8               	btfss	status,2,c
  6069  002050  EF2C  F010         	goto	u2421
  6070  002054  EF2E  F010         	goto	u2420
  6071  002058                     u2421:
  6072  002058  EF57  F010         	goto	l2857
  6073  00205C                     u2420:
  6074  00205C                     
  6075                           ;teclado.c: 94:         {;teclado.c: 96:             if(lim==0) LCD_PutC(keypad[rowloc][
      +                          0]);
  6076  00205C  504D               	movf	_lim^0,w,c
  6077  00205E  A4D8               	btfss	status,2,c
  6078  002060  EF34  F010         	goto	u2431
  6079  002064  EF36  F010         	goto	u2430
  6080  002068                     u2431:
  6081  002068  EF41  F010         	goto	l2847
  6082  00206C                     u2430:
  6083  00206C  504F               	movf	_rowloc^0,w,c
  6084  00206E  0D04               	mullw	4
  6085  002070  0E9A               	movlw	low _keypad
  6086  002072  24F3               	addwf	243,w,c
  6087  002074  6ED9               	movwf	fsr2l,c
  6088  002076  0E00               	movlw	high _keypad
  6089  002078  20F4               	addwfc	prodh,w,c
  6090  00207A  6EDA               	movwf	fsr2h,c
  6091  00207C  50DF               	movf	indf2,w,c
  6092  00207E  EC15  F018         	call	_LCD_PutC
  6093  002082                     l2847:
  6094                           
  6095                           ;teclado.c: 98:             if(rowloc==3) lim=0;
  6096  002082  0E03               	movlw	3
  6097  002084  184F               	xorwf	_rowloc^0,w,c
  6098  002086  A4D8               	btfss	status,2,c
  6099  002088  EF48  F010         	goto	u2441
  6100  00208C  EF4A  F010         	goto	u2440
  6101  002090                     u2441:
  6102  002090  EF4C  F010         	goto	l2851
  6103  002094                     u2440:
  6104  002094  0E00               	movlw	0
  6105  002096  6E4D               	movwf	_lim^0,c
  6106  002098                     l2851:
  6107                           
  6108                           ;teclado.c: 100:              return keypad[rowloc][0];
  6109  002098  504F               	movf	_rowloc^0,w,c
  6110  00209A  0D04               	mullw	4
  6111  00209C  0E9A               	movlw	low _keypad
  6112  00209E  24F3               	addwf	243,w,c
  6113  0020A0  6ED9               	movwf	fsr2l,c
  6114  0020A2  0E00               	movlw	high _keypad
  6115  0020A4  20F4               	addwfc	prodh,w,c
  6116  0020A6  6EDA               	movwf	fsr2h,c
  6117  0020A8  50DF               	movf	indf2,w,c
  6118  0020AA  EFCC  F010         	goto	l427
  6119  0020AE                     l2857:
  6120                           
  6121                           ;teclado.c: 103:             if(col_loc==0xd0)
  6122  0020AE  0ED0               	movlw	208
  6123  0020B0  1850               	xorwf	_col_loc^0,w,c
  6124  0020B2  A4D8               	btfss	status,2,c
  6125  0020B4  EF5E  F010         	goto	u2451
  6126  0020B8  EF60  F010         	goto	u2450
  6127  0020BC                     u2451:
  6128  0020BC  EF7E  F010         	goto	l2869
  6129  0020C0                     u2450:
  6130  0020C0                     
  6131                           ;teclado.c: 104:         {;teclado.c: 105:             if(lim==0) LCD_PutC(keypad[rowloc
      +                          ][1]);
  6132  0020C0  504D               	movf	_lim^0,w,c
  6133  0020C2  A4D8               	btfss	status,2,c
  6134  0020C4  EF66  F010         	goto	u2461
  6135  0020C8  EF68  F010         	goto	u2460
  6136  0020CC                     u2461:
  6137  0020CC  EF73  F010         	goto	l2863
  6138  0020D0                     u2460:
  6139  0020D0  504F               	movf	_rowloc^0,w,c
  6140  0020D2  0D04               	mullw	4
  6141  0020D4  0E9B               	movlw	low (_keypad+1)
  6142  0020D6  24F3               	addwf	243,w,c
  6143  0020D8  6ED9               	movwf	fsr2l,c
  6144  0020DA  0E00               	movlw	high (_keypad+1)
  6145  0020DC  20F4               	addwfc	prodh,w,c
  6146  0020DE  6EDA               	movwf	fsr2h,c
  6147  0020E0  50DF               	movf	indf2,w,c
  6148  0020E2  EC15  F018         	call	_LCD_PutC
  6149  0020E6                     l2863:
  6150                           
  6151                           ;teclado.c: 106:             return keypad[rowloc][1];
  6152  0020E6  504F               	movf	_rowloc^0,w,c
  6153  0020E8  0D04               	mullw	4
  6154  0020EA  0E9B               	movlw	low (_keypad+1)
  6155  0020EC  24F3               	addwf	243,w,c
  6156  0020EE  6ED9               	movwf	fsr2l,c
  6157  0020F0  0E00               	movlw	high (_keypad+1)
  6158  0020F2  20F4               	addwfc	prodh,w,c
  6159  0020F4  6EDA               	movwf	fsr2h,c
  6160  0020F6  50DF               	movf	indf2,w,c
  6161  0020F8  EFCC  F010         	goto	l427
  6162  0020FC                     l2869:
  6163                           
  6164                           ;teclado.c: 109:             if(col_loc==0xb0)
  6165  0020FC  0EB0               	movlw	176
  6166  0020FE  1850               	xorwf	_col_loc^0,w,c
  6167  002100  A4D8               	btfss	status,2,c
  6168  002102  EF85  F010         	goto	u2471
  6169  002106  EF87  F010         	goto	u2470
  6170  00210A                     u2471:
  6171  00210A  EFB0  F010         	goto	l2883
  6172  00210E                     u2470:
  6173  00210E                     
  6174                           ;teclado.c: 110:         {;teclado.c: 112:             if(rowloc==3) lim=1;
  6175  00210E  0E03               	movlw	3
  6176  002110  184F               	xorwf	_rowloc^0,w,c
  6177  002112  A4D8               	btfss	status,2,c
  6178  002114  EF8E  F010         	goto	u2481
  6179  002118  EF90  F010         	goto	u2480
  6180  00211C                     u2481:
  6181  00211C  EF92  F010         	goto	l433
  6182  002120                     u2480:
  6183  002120  0E01               	movlw	1
  6184  002122  6E4D               	movwf	_lim^0,c
  6185  002124                     l433:
  6186                           
  6187                           ;teclado.c: 114:             if(lim==0)LCD_PutC(keypad[rowloc][2]);
  6188  002124  504D               	movf	_lim^0,w,c
  6189  002126  A4D8               	btfss	status,2,c
  6190  002128  EF98  F010         	goto	u2491
  6191  00212C  EF9A  F010         	goto	u2490
  6192  002130                     u2491:
  6193  002130  EFA5  F010         	goto	l2877
  6194  002134                     u2490:
  6195  002134  504F               	movf	_rowloc^0,w,c
  6196  002136  0D04               	mullw	4
  6197  002138  0E9C               	movlw	low (_keypad+2)
  6198  00213A  24F3               	addwf	243,w,c
  6199  00213C  6ED9               	movwf	fsr2l,c
  6200  00213E  0E00               	movlw	high (_keypad+2)
  6201  002140  20F4               	addwfc	prodh,w,c
  6202  002142  6EDA               	movwf	fsr2h,c
  6203  002144  50DF               	movf	indf2,w,c
  6204  002146  EC15  F018         	call	_LCD_PutC
  6205  00214A                     l2877:
  6206                           
  6207                           ;teclado.c: 115:             return keypad[rowloc][2];
  6208  00214A  504F               	movf	_rowloc^0,w,c
  6209  00214C  0D04               	mullw	4
  6210  00214E  0E9C               	movlw	low (_keypad+2)
  6211  002150  24F3               	addwf	243,w,c
  6212  002152  6ED9               	movwf	fsr2l,c
  6213  002154  0E00               	movlw	high (_keypad+2)
  6214  002156  20F4               	addwfc	prodh,w,c
  6215  002158  6EDA               	movwf	fsr2h,c
  6216  00215A  50DF               	movf	indf2,w,c
  6217  00215C  EFCC  F010         	goto	l427
  6218  002160                     l2883:
  6219                           
  6220                           ;teclado.c: 119:         {;teclado.c: 120:             if(lim==0) LCD_PutC(keypad[rowloc
      +                          ][3]);
  6221  002160  504D               	movf	_lim^0,w,c
  6222  002162  A4D8               	btfss	status,2,c
  6223  002164  EFB6  F010         	goto	u2501
  6224  002168  EFB8  F010         	goto	u2500
  6225  00216C                     u2501:
  6226  00216C  EFC3  F010         	goto	l2887
  6227  002170                     u2500:
  6228  002170  504F               	movf	_rowloc^0,w,c
  6229  002172  0D04               	mullw	4
  6230  002174  0E9D               	movlw	low (_keypad+3)
  6231  002176  24F3               	addwf	243,w,c
  6232  002178  6ED9               	movwf	fsr2l,c
  6233  00217A  0E00               	movlw	high (_keypad+3)
  6234  00217C  20F4               	addwfc	prodh,w,c
  6235  00217E  6EDA               	movwf	fsr2h,c
  6236  002180  50DF               	movf	indf2,w,c
  6237  002182  EC15  F018         	call	_LCD_PutC
  6238  002186                     l2887:
  6239                           
  6240                           ;teclado.c: 121:             return keypad[rowloc][3];
  6241  002186  504F               	movf	_rowloc^0,w,c
  6242  002188  0D04               	mullw	4
  6243  00218A  0E9D               	movlw	low (_keypad+3)
  6244  00218C  24F3               	addwf	243,w,c
  6245  00218E  6ED9               	movwf	fsr2l,c
  6246  002190  0E00               	movlw	high (_keypad+3)
  6247  002192  20F4               	addwfc	prodh,w,c
  6248  002194  6EDA               	movwf	fsr2h,c
  6249  002196  50DF               	movf	indf2,w,c
  6250  002198                     l427:
  6251  002198  0012               	return		;funcret
  6252  00219A                     __end_of_keyfind:
  6253                           	opt callstack 0
  6254                           
  6255 ;; *************** function _LCD_PutC *****************
  6256 ;; Defined at:
  6257 ;;		line 98 in file "i2c_lcd.c"
  6258 ;; Parameters:    Size  Location     Type
  6259 ;;  LCD_Char        1    wreg     unsigned char 
  6260 ;; Auto vars:     Size  Location     Type
  6261 ;;  LCD_Char        1    5[COMRAM] unsigned char 
  6262 ;; Return value:  Size  Location     Type
  6263 ;;                  1    wreg      void 
  6264 ;; Registers used:
  6265 ;;		wreg, status,2, status,0, cstack
  6266 ;; Tracked objects:
  6267 ;;		On entry : 0/0
  6268 ;;		On exit  : 0/0
  6269 ;;		Unchanged: 0/0
  6270 ;; Data sizes:     COMRAM   BANK0   BANK1   BANK2   BANK3   BANK4   BANK5   BANK6   BANK7
  6271 ;;      Params:         0       0       0       0       0       0       0       0       0
  6272 ;;      Locals:         1       0       0       0       0       0       0       0       0
  6273 ;;      Temps:          0       0       0       0       0       0       0       0       0
  6274 ;;      Totals:         1       0       0       0       0       0       0       0       0
  6275 ;;Total ram usage:        1 bytes
  6276 ;; Hardware stack levels used:    1
  6277 ;; Hardware stack levels required when called:    4
  6278 ;; This function calls:
  6279 ;;		_LCD_Write_Nibble
  6280 ;; This function is called by:
  6281 ;;		_keyfind
  6282 ;; This function uses a non-reentrant model
  6283 ;;
  6284                           
  6285                           	psect	text19
  6286  00302A                     __ptext19:
  6287                           	opt callstack 0
  6288  00302A                     _LCD_PutC:
  6289                           	opt callstack 24
  6290                           
  6291                           ;incstack = 0
  6292                           ;LCD_PutC@LCD_Char stored from wreg
  6293  00302A  6E06               	movwf	LCD_PutC@LCD_Char^0,c
  6294  00302C                     
  6295                           ;i2c_lcd.c: 98: void LCD_PutC(char LCD_Char);i2c_lcd.c: 99: {;i2c_lcd.c: 100:   RS = 1;
  6296  00302C  805C               	bsf	(_RS/(0+8))^0,_RS& (0+7),c
  6297  00302E                     
  6298                           ;i2c_lcd.c: 101:   LCD_Write_Nibble(LCD_Char & 0xF0);
  6299  00302E  5006               	movf	LCD_PutC@LCD_Char^0,w,c
  6300  003030  0BF0               	andlw	240
  6301  003032  EC82  F017         	call	_LCD_Write_Nibble
  6302                           
  6303                           ;i2c_lcd.c: 102:   LCD_Write_Nibble((LCD_Char << 4) & 0xF0);
  6304  003036  3806               	swapf	LCD_PutC@LCD_Char^0,w,c
  6305  003038  0BF0               	andlw	240
  6306  00303A  0BF0               	andlw	240
  6307  00303C  EC82  F017         	call	_LCD_Write_Nibble
  6308  003040  0012               	return		;funcret
  6309  003042                     __end_of_LCD_PutC:
  6310                           	opt callstack 0
  6311                           
  6312 ;; *************** function _LCD_Print *****************
  6313 ;; Defined at:
  6314 ;;		line 105 in file "i2c_lcd.c"
  6315 ;; Parameters:    Size  Location     Type
  6316 ;;  LCD_Str         2    5[COMRAM] PTR unsigned char 
  6317 ;;		 -> Potencio(10), STR_31(11), STR_30(6), Temperatura(10), 
  6318 ;;		 -> STR_28(6), STR_27(9), STR_26(9), STR_25(13), 
  6319 ;;		 -> STR_24(9), STR_23(13), STR_22(9), STR_21(7), 
  6320 ;;		 -> STR_20(10), STR_19(7), STR_18(2), STR_17(2), 
  6321 ;;		 -> STR_16(2), STR_15(2), STR_14(2), STR_13(2), 
  6322 ;;		 -> STR_12(2), STR_11(2), STR_10(2), STR_9(2), 
  6323 ;;		 -> STR_8(2), STR_7(2), STR_6(2), STR_5(2), 
  6324 ;;		 -> STR_4(2), STR_3(2), STR_2(16), STR_1(11), 
  6325 ;; Auto vars:     Size  Location     Type
  6326 ;;  i               1   10[COMRAM] unsigned char 
  6327 ;; Return value:  Size  Location     Type
  6328 ;;                  1    wreg      void 
  6329 ;; Registers used:
  6330 ;;		wreg, fsr0l, fsr0h, status,2, status,0, tblptrl, tblptrh, tblptru, cstack
  6331 ;; Tracked objects:
  6332 ;;		On entry : 0/0
  6333 ;;		On exit  : 0/0
  6334 ;;		Unchanged: 0/0
  6335 ;; Data sizes:     COMRAM   BANK0   BANK1   BANK2   BANK3   BANK4   BANK5   BANK6   BANK7
  6336 ;;      Params:         2       0       0       0       0       0       0       0       0
  6337 ;;      Locals:         1       0       0       0       0       0       0       0       0
  6338 ;;      Temps:          3       0       0       0       0       0       0       0       0
  6339 ;;      Totals:         6       0       0       0       0       0       0       0       0
  6340 ;;Total ram usage:        6 bytes
  6341 ;; Hardware stack levels used:    1
  6342 ;; Hardware stack levels required when called:    4
  6343 ;; This function calls:
  6344 ;;		_LCD_Write_Nibble
  6345 ;; This function is called by:
  6346 ;;		_bienv_cont
  6347 ;;		_modo
  6348 ;;		_automatic
  6349 ;;		_manual
  6350 ;; This function uses a non-reentrant model
  6351 ;;
  6352                           
  6353                           	psect	text20
  6354  002A36                     __ptext20:
  6355                           	opt callstack 0
  6356  002A36                     _LCD_Print:
  6357                           	opt callstack 24
  6358  002A36                     
  6359                           ;i2c_lcd.c: 105: void LCD_Print(char* LCD_Str);i2c_lcd.c: 106: {;i2c_lcd.c: 107:   uint8
      +                          _t i = 0;
  6360  002A36  0E00               	movlw	0
  6361  002A38  6E0B               	movwf	LCD_Print@i^0,c
  6362  002A3A                     
  6363                           ;i2c_lcd.c: 108:   RS = 1;
  6364  002A3A  805C               	bsf	(_RS/(0+8))^0,_RS& (0+7),c
  6365                           
  6366                           ;i2c_lcd.c: 109:   while(LCD_Str[i] != '\0')
  6367  002A3C  EF56  F015         	goto	l2771
  6368  002A40                     l2767:
  6369                           
  6370                           ;i2c_lcd.c: 110:   {;i2c_lcd.c: 111:     LCD_Write_Nibble(LCD_Str[i] & 0xF0);
  6371  002A40  500B               	movf	LCD_Print@i^0,w,c
  6372  002A42  2406               	addwf	LCD_Print@LCD_Str^0,w,c
  6373  002A44  6E08               	movwf	??_LCD_Print^0,c
  6374  002A46  0E00               	movlw	0
  6375  002A48  2007               	addwfc	(LCD_Print@LCD_Str+1)^0,w,c
  6376  002A4A  6E09               	movwf	(??_LCD_Print+1)^0,c
  6377  002A4C  C008  FFF6         	movff	??_LCD_Print,tblptrl
  6378  002A50  C009  FFF7         	movff	??_LCD_Print+1,tblptrh
  6379  002A54  6AF8               	clrf	tblptru,c
  6380  002A56  0E07               	movlw	(high __ramtop+-1)
  6381  002A58  64F7               	cpfsgt	tblptrh,c
  6382  002A5A  D003               	bra	u2267
  6383  002A5C  0008               	tblrd		*
  6384  002A5E  50F5               	movf	tablat,w,c
  6385  002A60  D005               	bra	u2260
  6386  002A62                     u2267:
  6387  002A62  CFF6 FFE9          	movff	tblptrl,fsr0l
  6388  002A66  CFF7 FFEA          	movff	tblptrh,fsr0h
  6389  002A6A  50EF               	movf	indf0,w,c
  6390  002A6C                     u2260:
  6391  002A6C  0BF0               	andlw	240
  6392  002A6E  EC82  F017         	call	_LCD_Write_Nibble
  6393                           
  6394                           ;i2c_lcd.c: 112:     LCD_Write_Nibble( (LCD_Str[i++] << 4) & 0xF0 );
  6395  002A72  500B               	movf	LCD_Print@i^0,w,c
  6396  002A74  2406               	addwf	LCD_Print@LCD_Str^0,w,c
  6397  002A76  6E08               	movwf	??_LCD_Print^0,c
  6398  002A78  0E00               	movlw	0
  6399  002A7A  2007               	addwfc	(LCD_Print@LCD_Str+1)^0,w,c
  6400  002A7C  6E09               	movwf	(??_LCD_Print+1)^0,c
  6401  002A7E  C008  FFF6         	movff	??_LCD_Print,tblptrl
  6402  002A82  C009  FFF7         	movff	??_LCD_Print+1,tblptrh
  6403  002A86  6AF8               	clrf	tblptru,c
  6404  002A88  0E07               	movlw	(high __ramtop+-1)
  6405  002A8A  64F7               	cpfsgt	tblptrh,c
  6406  002A8C  D003               	bra	u2277
  6407  002A8E  0008               	tblrd		*
  6408  002A90  50F5               	movf	tablat,w,c
  6409  002A92  D005               	bra	u2270
  6410  002A94                     u2277:
  6411  002A94  CFF6 FFE9          	movff	tblptrl,fsr0l
  6412  002A98  CFF7 FFEA          	movff	tblptrh,fsr0h
  6413  002A9C  50EF               	movf	indf0,w,c
  6414  002A9E                     u2270:
  6415  002A9E  6E0A               	movwf	(??_LCD_Print+2)^0,c
  6416  002AA0  380A               	swapf	(??_LCD_Print+2)^0,w,c
  6417  002AA2  0BF0               	andlw	240
  6418  002AA4  0BF0               	andlw	240
  6419  002AA6  EC82  F017         	call	_LCD_Write_Nibble
  6420  002AAA  2A0B               	incf	LCD_Print@i^0,f,c
  6421  002AAC                     l2771:
  6422                           
  6423                           ;i2c_lcd.c: 109:   while(LCD_Str[i] != '\0')
  6424  002AAC  500B               	movf	LCD_Print@i^0,w,c
  6425  002AAE  2406               	addwf	LCD_Print@LCD_Str^0,w,c
  6426  002AB0  6E08               	movwf	??_LCD_Print^0,c
  6427  002AB2  0E00               	movlw	0
  6428  002AB4  2007               	addwfc	(LCD_Print@LCD_Str+1)^0,w,c
  6429  002AB6  6E09               	movwf	(??_LCD_Print+1)^0,c
  6430  002AB8  C008  FFF6         	movff	??_LCD_Print,tblptrl
  6431  002ABC  C009  FFF7         	movff	??_LCD_Print+1,tblptrh
  6432  002AC0  6AF8               	clrf	tblptru,c
  6433  002AC2  0E07               	movlw	(high __ramtop+-1)
  6434  002AC4  64F7               	cpfsgt	tblptrh,c
  6435  002AC6  D003               	bra	u2287
  6436  002AC8  0008               	tblrd		*
  6437  002ACA  50F5               	movf	tablat,w,c
  6438  002ACC  D005               	bra	u2280
  6439  002ACE                     u2287:
  6440  002ACE  CFF6 FFE9          	movff	tblptrl,fsr0l
  6441  002AD2  CFF7 FFEA          	movff	tblptrh,fsr0h
  6442  002AD6  50EF               	movf	indf0,w,c
  6443  002AD8                     u2280:
  6444  002AD8  0900               	iorlw	0
  6445  002ADA  A4D8               	btfss	status,2,c
  6446  002ADC  EF72  F015         	goto	u2291
  6447  002AE0  EF74  F015         	goto	u2290
  6448  002AE4                     u2291:
  6449  002AE4  EF20  F015         	goto	l2767
  6450  002AE8                     u2290:
  6451  002AE8  0012               	return		;funcret
  6452  002AEA                     __end_of_LCD_Print:
  6453                           	opt callstack 0
  6454                           
  6455 ;; *************** function _LCD_Goto *****************
  6456 ;; Defined at:
  6457 ;;		line 79 in file "i2c_lcd.c"
  6458 ;; Parameters:    Size  Location     Type
  6459 ;;  col             1    wreg     unsigned char 
  6460 ;;  row             1    7[COMRAM] unsigned char 
  6461 ;; Auto vars:     Size  Location     Type
  6462 ;;  col             1   10[COMRAM] unsigned char 
  6463 ;; Return value:  Size  Location     Type
  6464 ;;                  1    wreg      void 
  6465 ;; Registers used:
  6466 ;;		wreg, status,2, status,0, cstack
  6467 ;; Tracked objects:
  6468 ;;		On entry : 0/0
  6469 ;;		On exit  : 0/0
  6470 ;;		Unchanged: 0/0
  6471 ;; Data sizes:     COMRAM   BANK0   BANK1   BANK2   BANK3   BANK4   BANK5   BANK6   BANK7
  6472 ;;      Params:         1       0       0       0       0       0       0       0       0
  6473 ;;      Locals:         1       0       0       0       0       0       0       0       0
  6474 ;;      Temps:          2       0       0       0       0       0       0       0       0
  6475 ;;      Totals:         4       0       0       0       0       0       0       0       0
  6476 ;;Total ram usage:        4 bytes
  6477 ;; Hardware stack levels used:    1
  6478 ;; Hardware stack levels required when called:    5
  6479 ;; This function calls:
  6480 ;;		_LCD_Cmd
  6481 ;; This function is called by:
  6482 ;;		_bienv_cont
  6483 ;;		_modo
  6484 ;;		_automatic
  6485 ;;		_manual
  6486 ;; This function uses a non-reentrant model
  6487 ;;
  6488                           
  6489                           	psect	text21
  6490  002C6C                     __ptext21:
  6491                           	opt callstack 0
  6492  002C6C                     _LCD_Goto:
  6493                           	opt callstack 23
  6494                           
  6495                           ;incstack = 0
  6496                           ;LCD_Goto@col stored from wreg
  6497  002C6C  6E0B               	movwf	LCD_Goto@col^0,c
  6498  002C6E                     
  6499                           ;i2c_lcd.c: 79: void LCD_Goto(uint8_t col, uint8_t row);i2c_lcd.c: 80: {;i2c_lcd.c: 81: 
      +                            switch(row)
  6500  002C6E  EF51  F016         	goto	l2757
  6501  002C72                     l2749:
  6502                           
  6503                           ;i2c_lcd.c: 84:       LCD_Cmd(0xC0 + col - 1);
  6504  002C72  500B               	movf	LCD_Goto@col^0,w,c
  6505  002C74  0FBF               	addlw	191
  6506  002C76  EC20  F017         	call	_LCD_Cmd
  6507                           
  6508                           ;i2c_lcd.c: 85:       break;
  6509  002C7A  EF6A  F016         	goto	l349
  6510  002C7E                     l2751:
  6511                           
  6512                           ;i2c_lcd.c: 87:       LCD_Cmd(0x94 + col - 1);
  6513  002C7E  500B               	movf	LCD_Goto@col^0,w,c
  6514  002C80  0F93               	addlw	147
  6515  002C82  EC20  F017         	call	_LCD_Cmd
  6516                           
  6517                           ;i2c_lcd.c: 88:       break;
  6518  002C86  EF6A  F016         	goto	l349
  6519  002C8A                     l2753:
  6520                           
  6521                           ;i2c_lcd.c: 90:       LCD_Cmd(0xD4 + col - 1);
  6522  002C8A  500B               	movf	LCD_Goto@col^0,w,c
  6523  002C8C  0FD3               	addlw	211
  6524  002C8E  EC20  F017         	call	_LCD_Cmd
  6525                           
  6526                           ;i2c_lcd.c: 91:     break;
  6527  002C92  EF6A  F016         	goto	l349
  6528  002C96                     l2755:
  6529                           
  6530                           ;i2c_lcd.c: 93:       LCD_Cmd(0x80 + col - 1);
  6531  002C96  500B               	movf	LCD_Goto@col^0,w,c
  6532  002C98  0F7F               	addlw	127
  6533  002C9A  EC20  F017         	call	_LCD_Cmd
  6534                           
  6535                           ;i2c_lcd.c: 94:   }
  6536  002C9E  EF6A  F016         	goto	l349
  6537  002CA2                     l2757:
  6538  002CA2  5008               	movf	LCD_Goto@row^0,w,c
  6539  002CA4  6E09               	movwf	??_LCD_Goto^0,c
  6540  002CA6  6A0A               	clrf	(??_LCD_Goto+1)^0,c
  6541                           
  6542                           ; Switch on 2 bytes has been partitioned into a top level switch of size 1, and 1 sub-sw
      +                          itches
  6543                           ; Switch size 1, requested type "simple"
  6544                           ; Number of cases is 1, Range of values is 0 to 0
  6545                           ; switch strategies available:
  6546                           ; Name         Instructions Cycles
  6547                           ; simple_byte            4     3 (average)
  6548                           ;	Chosen strategy is simple_byte
  6549  002CA8  500A               	movf	(??_LCD_Goto+1)^0,w,c
  6550  002CAA  0A00               	xorlw	0	; case 0
  6551  002CAC  B4D8               	btfsc	status,2,c
  6552  002CAE  EF5B  F016         	goto	l4363
  6553  002CB2  EF4B  F016         	goto	l2755
  6554  002CB6                     l4363:
  6555                           
  6556                           ; Switch size 1, requested type "simple"
  6557                           ; Number of cases is 3, Range of values is 2 to 4
  6558                           ; switch strategies available:
  6559                           ; Name         Instructions Cycles
  6560                           ; simple_byte           10     6 (average)
  6561                           ;	Chosen strategy is simple_byte
  6562  002CB6  5009               	movf	??_LCD_Goto^0,w,c
  6563  002CB8  0A02               	xorlw	2	; case 2
  6564  002CBA  B4D8               	btfsc	status,2,c
  6565  002CBC  EF39  F016         	goto	l2749
  6566  002CC0  0A01               	xorlw	1	; case 3
  6567  002CC2  B4D8               	btfsc	status,2,c
  6568  002CC4  EF3F  F016         	goto	l2751
  6569  002CC8  0A07               	xorlw	7	; case 4
  6570  002CCA  B4D8               	btfsc	status,2,c
  6571  002CCC  EF45  F016         	goto	l2753
  6572  002CD0  EF4B  F016         	goto	l2755
  6573  002CD4                     l349:
  6574  002CD4  0012               	return		;funcret
  6575  002CD6                     __end_of_LCD_Goto:
  6576                           	opt callstack 0
  6577                           
  6578 ;; *************** function _LCD_Begin *****************
  6579 ;; Defined at:
  6580 ;;		line 116 in file "i2c_lcd.c"
  6581 ;; Parameters:    Size  Location     Type
  6582 ;;  _i2c_addr       1    wreg     unsigned char 
  6583 ;; Auto vars:     Size  Location     Type
  6584 ;;  _i2c_addr       1    9[COMRAM] unsigned char 
  6585 ;; Return value:  Size  Location     Type
  6586 ;;                  1    wreg      void 
  6587 ;; Registers used:
  6588 ;;		wreg, status,2, status,0, cstack
  6589 ;; Tracked objects:
  6590 ;;		On entry : 0/0
  6591 ;;		On exit  : 0/0
  6592 ;;		Unchanged: 0/0
  6593 ;; Data sizes:     COMRAM   BANK0   BANK1   BANK2   BANK3   BANK4   BANK5   BANK6   BANK7
  6594 ;;      Params:         0       0       0       0       0       0       0       0       0
  6595 ;;      Locals:         1       0       0       0       0       0       0       0       0
  6596 ;;      Temps:          2       0       0       0       0       0       0       0       0
  6597 ;;      Totals:         3       0       0       0       0       0       0       0       0
  6598 ;;Total ram usage:        3 bytes
  6599 ;; Hardware stack levels used:    1
  6600 ;; Hardware stack levels required when called:    5
  6601 ;; This function calls:
  6602 ;;		_Expander_Write
  6603 ;;		_LCD_Cmd
  6604 ;; This function is called by:
  6605 ;;		_main
  6606 ;; This function uses a non-reentrant model
  6607 ;;
  6608                           
  6609                           	psect	text22
  6610  002884                     __ptext22:
  6611                           	opt callstack 0
  6612  002884                     _LCD_Begin:
  6613                           	opt callstack 25
  6614                           
  6615                           ;incstack = 0
  6616                           ;LCD_Begin@_i2c_addr stored from wreg
  6617  002884  6E0A               	movwf	LCD_Begin@_i2c_addr^0,c
  6618  002886                     
  6619                           ;i2c_lcd.c: 116: void LCD_Begin(uint8_t _i2c_addr);i2c_lcd.c: 117: {;i2c_lcd.c: 118:   i
      +                          2c_addr = _i2c_addr;
  6620  002886  C00A  F05B         	movff	LCD_Begin@_i2c_addr,_i2c_addr
  6621  00288A                     
  6622                           ;i2c_lcd.c: 119:   Expander_Write(0);
  6623  00288A  0E00               	movlw	0
  6624  00288C  EC08  F018         	call	_Expander_Write
  6625  002890                     
  6626                           ;i2c_lcd.c: 121:   _delay((unsigned long)((40)*(20000000/4000.0)));
  6627  002890  0E02               	movlw	2
  6628  002892  6E09               	movwf	(??_LCD_Begin+1)^0,c
  6629  002894  0E04               	movlw	4
  6630  002896  6E08               	movwf	??_LCD_Begin^0,c
  6631  002898  0EBA               	movlw	186
  6632  00289A                     u4757:
  6633  00289A  2EE8               	decfsz	wreg,f,c
  6634  00289C  D7FE               	bra	u4757
  6635  00289E  2E08               	decfsz	??_LCD_Begin^0,f,c
  6636  0028A0  D7FC               	bra	u4757
  6637  0028A2  2E09               	decfsz	(??_LCD_Begin+1)^0,f,c
  6638  0028A4  D7FA               	bra	u4757
  6639  0028A6  D000               	nop2	
  6640                           
  6641                           ;i2c_lcd.c: 122:   LCD_Cmd(3);
  6642  0028A8  0E03               	movlw	3
  6643  0028AA  EC20  F017         	call	_LCD_Cmd
  6644  0028AE                     
  6645                           ;i2c_lcd.c: 123:   _delay((unsigned long)((5)*(20000000/4000.0)));
  6646  0028AE  0E21               	movlw	33
  6647  0028B0  6E08               	movwf	??_LCD_Begin^0,c
  6648  0028B2  0E76               	movlw	118
  6649  0028B4                     u4767:
  6650  0028B4  2EE8               	decfsz	wreg,f,c
  6651  0028B6  D7FE               	bra	u4767
  6652  0028B8  2E08               	decfsz	??_LCD_Begin^0,f,c
  6653  0028BA  D7FC               	bra	u4767
  6654  0028BC  D000               	nop2	
  6655  0028BE                     
  6656                           ;i2c_lcd.c: 124:   LCD_Cmd(3);
  6657  0028BE  0E03               	movlw	3
  6658  0028C0  EC20  F017         	call	_LCD_Cmd
  6659                           
  6660                           ;i2c_lcd.c: 125:   _delay((unsigned long)((5)*(20000000/4000.0)));
  6661  0028C4  0E21               	movlw	33
  6662  0028C6  6E08               	movwf	??_LCD_Begin^0,c
  6663  0028C8  0E76               	movlw	118
  6664  0028CA                     u4777:
  6665  0028CA  2EE8               	decfsz	wreg,f,c
  6666  0028CC  D7FE               	bra	u4777
  6667  0028CE  2E08               	decfsz	??_LCD_Begin^0,f,c
  6668  0028D0  D7FC               	bra	u4777
  6669  0028D2  D000               	nop2	
  6670  0028D4                     
  6671                           ;i2c_lcd.c: 126:   LCD_Cmd(3);
  6672  0028D4  0E03               	movlw	3
  6673  0028D6  EC20  F017         	call	_LCD_Cmd
  6674  0028DA                     
  6675                           ;i2c_lcd.c: 127:   _delay((unsigned long)((5)*(20000000/4000.0)));
  6676  0028DA  0E21               	movlw	33
  6677  0028DC  6E08               	movwf	??_LCD_Begin^0,c
  6678  0028DE  0E76               	movlw	118
  6679  0028E0                     u4787:
  6680  0028E0  2EE8               	decfsz	wreg,f,c
  6681  0028E2  D7FE               	bra	u4787
  6682  0028E4  2E08               	decfsz	??_LCD_Begin^0,f,c
  6683  0028E6  D7FC               	bra	u4787
  6684  0028E8  D000               	nop2	
  6685                           
  6686                           ;i2c_lcd.c: 128:   LCD_Cmd(0x02);
  6687  0028EA  0E02               	movlw	2
  6688  0028EC  EC20  F017         	call	_LCD_Cmd
  6689  0028F0                     
  6690                           ;i2c_lcd.c: 129:   _delay((unsigned long)((5)*(20000000/4000.0)));
  6691  0028F0  0E21               	movlw	33
  6692  0028F2  6E08               	movwf	??_LCD_Begin^0,c
  6693  0028F4  0E76               	movlw	118
  6694  0028F6                     u4797:
  6695  0028F6  2EE8               	decfsz	wreg,f,c
  6696  0028F8  D7FE               	bra	u4797
  6697  0028FA  2E08               	decfsz	??_LCD_Begin^0,f,c
  6698  0028FC  D7FC               	bra	u4797
  6699  0028FE  D000               	nop2	
  6700  002900                     
  6701                           ;i2c_lcd.c: 130:   LCD_Cmd(0x20 | (2 << 2));
  6702  002900  0E28               	movlw	40
  6703  002902  EC20  F017         	call	_LCD_Cmd
  6704                           
  6705                           ;i2c_lcd.c: 131:   _delay((unsigned long)((50)*(20000000/4000.0)));
  6706  002906  0E02               	movlw	2
  6707  002908  6E09               	movwf	(??_LCD_Begin+1)^0,c
  6708  00290A  0E45               	movlw	69
  6709  00290C  6E08               	movwf	??_LCD_Begin^0,c
  6710  00290E  0EAA               	movlw	170
  6711  002910                     u4807:
  6712  002910  2EE8               	decfsz	wreg,f,c
  6713  002912  D7FE               	bra	u4807
  6714  002914  2E08               	decfsz	??_LCD_Begin^0,f,c
  6715  002916  D7FC               	bra	u4807
  6716  002918  2E09               	decfsz	(??_LCD_Begin+1)^0,f,c
  6717  00291A  D7FA               	bra	u4807
  6718  00291C                     
  6719                           ;i2c_lcd.c: 132:   LCD_Cmd(0x0C);
  6720  00291C  0E0C               	movlw	12
  6721  00291E  EC20  F017         	call	_LCD_Cmd
  6722  002922                     
  6723                           ;i2c_lcd.c: 133:   _delay((unsigned long)((50)*(20000000/4000.0)));
  6724  002922  0E02               	movlw	2
  6725  002924  6E09               	movwf	(??_LCD_Begin+1)^0,c
  6726  002926  0E45               	movlw	69
  6727  002928  6E08               	movwf	??_LCD_Begin^0,c
  6728  00292A  0EAA               	movlw	170
  6729  00292C                     u4817:
  6730  00292C  2EE8               	decfsz	wreg,f,c
  6731  00292E  D7FE               	bra	u4817
  6732  002930  2E08               	decfsz	??_LCD_Begin^0,f,c
  6733  002932  D7FC               	bra	u4817
  6734  002934  2E09               	decfsz	(??_LCD_Begin+1)^0,f,c
  6735  002936  D7FA               	bra	u4817
  6736                           
  6737                           ;i2c_lcd.c: 134:   LCD_Cmd(0x01);
  6738  002938  0E01               	movlw	1
  6739  00293A  EC20  F017         	call	_LCD_Cmd
  6740  00293E                     
  6741                           ;i2c_lcd.c: 135:   _delay((unsigned long)((50)*(20000000/4000.0)));
  6742  00293E  0E02               	movlw	2
  6743  002940  6E09               	movwf	(??_LCD_Begin+1)^0,c
  6744  002942  0E45               	movlw	69
  6745  002944  6E08               	movwf	??_LCD_Begin^0,c
  6746  002946  0EAA               	movlw	170
  6747  002948                     u4827:
  6748  002948  2EE8               	decfsz	wreg,f,c
  6749  00294A  D7FE               	bra	u4827
  6750  00294C  2E08               	decfsz	??_LCD_Begin^0,f,c
  6751  00294E  D7FC               	bra	u4827
  6752  002950  2E09               	decfsz	(??_LCD_Begin+1)^0,f,c
  6753  002952  D7FA               	bra	u4827
  6754  002954                     
  6755                           ;i2c_lcd.c: 136:   LCD_Cmd(0x04 | 0x02);
  6756  002954  0E06               	movlw	6
  6757  002956  EC20  F017         	call	_LCD_Cmd
  6758                           
  6759                           ;i2c_lcd.c: 137:   _delay((unsigned long)((50)*(20000000/4000.0)));
  6760  00295A  0E02               	movlw	2
  6761  00295C  6E09               	movwf	(??_LCD_Begin+1)^0,c
  6762  00295E  0E45               	movlw	69
  6763  002960  6E08               	movwf	??_LCD_Begin^0,c
  6764  002962  0EAA               	movlw	170
  6765  002964                     u4837:
  6766  002964  2EE8               	decfsz	wreg,f,c
  6767  002966  D7FE               	bra	u4837
  6768  002968  2E08               	decfsz	??_LCD_Begin^0,f,c
  6769  00296A  D7FC               	bra	u4837
  6770  00296C  2E09               	decfsz	(??_LCD_Begin+1)^0,f,c
  6771  00296E  D7FA               	bra	u4837
  6772  002970  0012               	return		;funcret
  6773  002972                     __end_of_LCD_Begin:
  6774                           	opt callstack 0
  6775                           
  6776 ;; *************** function _LCD_Cmd *****************
  6777 ;; Defined at:
  6778 ;;		line 70 in file "i2c_lcd.c"
  6779 ;; Parameters:    Size  Location     Type
  6780 ;;  Command         1    wreg     unsigned char 
  6781 ;; Auto vars:     Size  Location     Type
  6782 ;;  Command         1    6[COMRAM] unsigned char 
  6783 ;; Return value:  Size  Location     Type
  6784 ;;                  1    wreg      void 
  6785 ;; Registers used:
  6786 ;;		wreg, status,2, status,0, cstack
  6787 ;; Tracked objects:
  6788 ;;		On entry : 0/0
  6789 ;;		On exit  : 0/0
  6790 ;;		Unchanged: 0/0
  6791 ;; Data sizes:     COMRAM   BANK0   BANK1   BANK2   BANK3   BANK4   BANK5   BANK6   BANK7
  6792 ;;      Params:         0       0       0       0       0       0       0       0       0
  6793 ;;      Locals:         1       0       0       0       0       0       0       0       0
  6794 ;;      Temps:          1       0       0       0       0       0       0       0       0
  6795 ;;      Totals:         2       0       0       0       0       0       0       0       0
  6796 ;;Total ram usage:        2 bytes
  6797 ;; Hardware stack levels used:    1
  6798 ;; Hardware stack levels required when called:    4
  6799 ;; This function calls:
  6800 ;;		_LCD_Write_Nibble
  6801 ;; This function is called by:
  6802 ;;		_bienv_cont
  6803 ;;		_modo
  6804 ;;		_LCD_Goto
  6805 ;;		_LCD_Begin
  6806 ;; This function uses a non-reentrant model
  6807 ;;
  6808                           
  6809                           	psect	text23
  6810  002E40                     __ptext23:
  6811                           	opt callstack 0
  6812  002E40                     _LCD_Cmd:
  6813                           	opt callstack 23
  6814                           
  6815                           ;incstack = 0
  6816                           ;LCD_Cmd@Command stored from wreg
  6817  002E40  6E07               	movwf	LCD_Cmd@Command^0,c
  6818  002E42                     
  6819                           ;i2c_lcd.c: 70: void LCD_Cmd(uint8_t Command);i2c_lcd.c: 71: {;i2c_lcd.c: 72:   RS = 0;
  6820  002E42  905C               	bcf	(_RS/(0+8))^0,_RS& (0+7),c
  6821  002E44                     
  6822                           ;i2c_lcd.c: 73:   LCD_Write_Nibble(Command & 0xF0);
  6823  002E44  5007               	movf	LCD_Cmd@Command^0,w,c
  6824  002E46  0BF0               	andlw	240
  6825  002E48  EC82  F017         	call	_LCD_Write_Nibble
  6826                           
  6827                           ;i2c_lcd.c: 74:   LCD_Write_Nibble((Command << 4) & 0xF0);
  6828  002E4C  3807               	swapf	LCD_Cmd@Command^0,w,c
  6829  002E4E  0BF0               	andlw	240
  6830  002E50  0BF0               	andlw	240
  6831  002E52  EC82  F017         	call	_LCD_Write_Nibble
  6832  002E56                     
  6833                           ;i2c_lcd.c: 75:   if((Command == 0x01) || (Command == 0x02))
  6834  002E56  0407               	decf	LCD_Cmd@Command^0,w,c
  6835  002E58  B4D8               	btfsc	status,2,c
  6836  002E5A  EF31  F017         	goto	u2141
  6837  002E5E  EF33  F017         	goto	u2140
  6838  002E62                     u2141:
  6839  002E62  EF3C  F017         	goto	l2681
  6840  002E66                     u2140:
  6841  002E66  0E02               	movlw	2
  6842  002E68  1807               	xorwf	LCD_Cmd@Command^0,w,c
  6843  002E6A  A4D8               	btfss	status,2,c
  6844  002E6C  EF3A  F017         	goto	u2151
  6845  002E70  EF3C  F017         	goto	u2150
  6846  002E74                     u2151:
  6847  002E74  EF43  F017         	goto	l340
  6848  002E78                     u2150:
  6849  002E78                     l2681:
  6850                           
  6851                           ;i2c_lcd.c: 76:     _delay((unsigned long)((2)*(20000000/4000.0)));
  6852  002E78  0E0D               	movlw	13
  6853  002E7A  6E06               	movwf	??_LCD_Cmd^0,c
  6854  002E7C  0EFC               	movlw	252
  6855  002E7E                     u4847:
  6856  002E7E  2EE8               	decfsz	wreg,f,c
  6857  002E80  D7FE               	bra	u4847
  6858  002E82  2E06               	decfsz	??_LCD_Cmd^0,f,c
  6859  002E84  D7FC               	bra	u4847
  6860  002E86                     l340:
  6861  002E86  0012               	return		;funcret
  6862  002E88                     __end_of_LCD_Cmd:
  6863                           	opt callstack 0
  6864                           
  6865 ;; *************** function _LCD_Write_Nibble *****************
  6866 ;; Defined at:
  6867 ;;		line 59 in file "i2c_lcd.c"
  6868 ;; Parameters:    Size  Location     Type
  6869 ;;  n               1    wreg     unsigned char 
  6870 ;; Auto vars:     Size  Location     Type
  6871 ;;  n               1    4[COMRAM] unsigned char 
  6872 ;; Return value:  Size  Location     Type
  6873 ;;                  1    wreg      void 
  6874 ;; Registers used:
  6875 ;;		wreg, status,2, status,0, cstack
  6876 ;; Tracked objects:
  6877 ;;		On entry : 0/0
  6878 ;;		On exit  : 0/0
  6879 ;;		Unchanged: 0/0
  6880 ;; Data sizes:     COMRAM   BANK0   BANK1   BANK2   BANK3   BANK4   BANK5   BANK6   BANK7
  6881 ;;      Params:         0       0       0       0       0       0       0       0       0
  6882 ;;      Locals:         1       0       0       0       0       0       0       0       0
  6883 ;;      Temps:          0       0       0       0       0       0       0       0       0
  6884 ;;      Totals:         1       0       0       0       0       0       0       0       0
  6885 ;;Total ram usage:        1 bytes
  6886 ;; Hardware stack levels used:    1
  6887 ;; Hardware stack levels required when called:    3
  6888 ;; This function calls:
  6889 ;;		_Expander_Write
  6890 ;; This function is called by:
  6891 ;;		_LCD_Cmd
  6892 ;;		_LCD_PutC
  6893 ;;		_LCD_Print
  6894 ;; This function uses a non-reentrant model
  6895 ;;
  6896                           
  6897                           	psect	text24
  6898  002F04                     __ptext24:
  6899                           	opt callstack 0
  6900  002F04                     _LCD_Write_Nibble:
  6901                           	opt callstack 24
  6902                           
  6903                           ;incstack = 0
  6904                           ;LCD_Write_Nibble@n stored from wreg
  6905  002F04  6E05               	movwf	LCD_Write_Nibble@n^0,c
  6906  002F06                     
  6907                           ;i2c_lcd.c: 59: void LCD_Write_Nibble(uint8_t n);i2c_lcd.c: 60: {;i2c_lcd.c: 61:   n |= 
      +                          RS;
  6908  002F06  0E00               	movlw	0
  6909  002F08  B05C               	btfsc	(_RS/(0+8))^0,_RS& (0+7),c
  6910  002F0A  0E01               	movlw	1
  6911  002F0C  1205               	iorwf	LCD_Write_Nibble@n^0,f,c
  6912  002F0E                     
  6913                           ;i2c_lcd.c: 62:   Expander_Write(n & 0xFB);
  6914  002F0E  5005               	movf	LCD_Write_Nibble@n^0,w,c
  6915  002F10  0BFB               	andlw	251
  6916  002F12  EC08  F018         	call	_Expander_Write
  6917  002F16                     
  6918                           ;i2c_lcd.c: 63:   _delay((unsigned long)((1)*(20000000/4000000.0)));
  6919  002F16  D000               	nop2		;2 cycle nop
  6920  002F18  D000               	nop2		;2 cycle nop
  6921  002F1A  F000               	nop	
  6922  002F1C                     
  6923                           ;i2c_lcd.c: 64:   Expander_Write(n | 0x04);
  6924  002F1C  5005               	movf	LCD_Write_Nibble@n^0,w,c
  6925  002F1E  0904               	iorlw	4
  6926  002F20  EC08  F018         	call	_Expander_Write
  6927  002F24                     
  6928                           ;i2c_lcd.c: 65:   _delay((unsigned long)((1)*(20000000/4000000.0)));
  6929  002F24  D000               	nop2		;2 cycle nop
  6930  002F26  D000               	nop2		;2 cycle nop
  6931  002F28  F000               	nop	
  6932  002F2A                     
  6933                           ;i2c_lcd.c: 66:   Expander_Write(n & 0xFB);
  6934  002F2A  5005               	movf	LCD_Write_Nibble@n^0,w,c
  6935  002F2C  0BFB               	andlw	251
  6936  002F2E  EC08  F018         	call	_Expander_Write
  6937  002F32                     
  6938                           ;i2c_lcd.c: 67:   _delay((unsigned long)((100)*(20000000/4000000.0)));
  6939  002F32  0EA6               	movlw	166
  6940  002F34                     u4857:
  6941  002F34  2EE8               	decfsz	wreg,f,c
  6942  002F36  D7FE               	bra	u4857
  6943  002F38  D000               	nop2	
  6944  002F3A  0012               	return		;funcret
  6945  002F3C                     __end_of_LCD_Write_Nibble:
  6946                           	opt callstack 0
  6947                           
  6948 ;; *************** function _Expander_Write *****************
  6949 ;; Defined at:
  6950 ;;		line 51 in file "i2c_lcd.c"
  6951 ;; Parameters:    Size  Location     Type
  6952 ;;  value           1    wreg     unsigned char 
  6953 ;; Auto vars:     Size  Location     Type
  6954 ;;  value           1    3[COMRAM] unsigned char 
  6955 ;; Return value:  Size  Location     Type
  6956 ;;                  1    wreg      void 
  6957 ;; Registers used:
  6958 ;;		wreg, status,2, status,0, cstack
  6959 ;; Tracked objects:
  6960 ;;		On entry : 0/0
  6961 ;;		On exit  : 0/0
  6962 ;;		Unchanged: 0/0
  6963 ;; Data sizes:     COMRAM   BANK0   BANK1   BANK2   BANK3   BANK4   BANK5   BANK6   BANK7
  6964 ;;      Params:         0       0       0       0       0       0       0       0       0
  6965 ;;      Locals:         1       0       0       0       0       0       0       0       0
  6966 ;;      Temps:          0       0       0       0       0       0       0       0       0
  6967 ;;      Totals:         1       0       0       0       0       0       0       0       0
  6968 ;;Total ram usage:        1 bytes
  6969 ;; Hardware stack levels used:    1
  6970 ;; Hardware stack levels required when called:    2
  6971 ;; This function calls:
  6972 ;;		_I2C_Start
  6973 ;;		_I2C_Stop
  6974 ;;		_I2C_Write
  6975 ;; This function is called by:
  6976 ;;		_LCD_Write_Nibble
  6977 ;;		_LCD_Begin
  6978 ;;		_Backlight
  6979 ;;		_noBacklight
  6980 ;; This function uses a non-reentrant model
  6981 ;;
  6982                           
  6983                           	psect	text25
  6984  003010                     __ptext25:
  6985                           	opt callstack 0
  6986  003010                     _Expander_Write:
  6987                           	opt callstack 24
  6988                           
  6989                           ;incstack = 0
  6990                           ;Expander_Write@value stored from wreg
  6991  003010  6E04               	movwf	Expander_Write@value^0,c
  6992  003012                     
  6993                           ;i2c_lcd.c: 51: void Expander_Write(uint8_t value);i2c_lcd.c: 52: {;i2c_lcd.c: 53:   I2C
      +                          _Start();
  6994  003012  ECE1  F017         	call	_I2C_Start	;wreg free
  6995                           
  6996                           ;i2c_lcd.c: 54:   I2C_Write(i2c_addr);
  6997  003016  505B               	movf	_i2c_addr^0,w,c
  6998  003018  ECB7  F017         	call	_I2C_Write
  6999                           
  7000                           ;i2c_lcd.c: 55:   I2C_Write(value | backlight_val);
  7001  00301C  5004               	movf	Expander_Write@value^0,w,c
  7002  00301E  105A               	iorwf	_backlight_val^0,w,c
  7003  003020  ECB7  F017         	call	_I2C_Write
  7004                           
  7005                           ;i2c_lcd.c: 56:   I2C_Stop();
  7006  003024  ECCD  F017         	call	_I2C_Stop	;wreg free
  7007  003028  0012               	return		;funcret
  7008  00302A                     __end_of_Expander_Write:
  7009                           	opt callstack 0
  7010                           
  7011 ;; *************** function _I2C_Write *****************
  7012 ;; Defined at:
  7013 ;;		line 23 in file "i2c_lcd.c"
  7014 ;; Parameters:    Size  Location     Type
  7015 ;;  i2c_data        1    wreg     unsigned char 
  7016 ;; Auto vars:     Size  Location     Type
  7017 ;;  i2c_data        1    2[COMRAM] unsigned char 
  7018 ;; Return value:  Size  Location     Type
  7019 ;;                  1    wreg      void 
  7020 ;; Registers used:
  7021 ;;		wreg, status,2, status,0
  7022 ;; Tracked objects:
  7023 ;;		On entry : 0/0
  7024 ;;		On exit  : 0/0
  7025 ;;		Unchanged: 0/0
  7026 ;; Data sizes:     COMRAM   BANK0   BANK1   BANK2   BANK3   BANK4   BANK5   BANK6   BANK7
  7027 ;;      Params:         0       0       0       0       0       0       0       0       0
  7028 ;;      Locals:         1       0       0       0       0       0       0       0       0
  7029 ;;      Temps:          1       0       0       0       0       0       0       0       0
  7030 ;;      Totals:         2       0       0       0       0       0       0       0       0
  7031 ;;Total ram usage:        2 bytes
  7032 ;; Hardware stack levels used:    1
  7033 ;; Hardware stack levels required when called:    1
  7034 ;; This function calls:
  7035 ;;		Nothing
  7036 ;; This function is called by:
  7037 ;;		_Expander_Write
  7038 ;; This function uses a non-reentrant model
  7039 ;;
  7040                           
  7041                           	psect	text26
  7042  002F6E                     __ptext26:
  7043                           	opt callstack 0
  7044  002F6E                     _I2C_Write:
  7045                           	opt callstack 24
  7046                           
  7047                           ;incstack = 0
  7048                           ;I2C_Write@i2c_data stored from wreg
  7049  002F6E  6E03               	movwf	I2C_Write@i2c_data^0,c
  7050  002F70                     l307:
  7051  002F70  B4C7               	btfsc	199,2,c	;volatile
  7052  002F72  EFBD  F017         	goto	u2121
  7053  002F76  EFBF  F017         	goto	u2120
  7054  002F7A                     u2121:
  7055  002F7A  EFB8  F017         	goto	l307
  7056  002F7E                     u2120:
  7057  002F7E  CFC5 F002          	movff	4037,??_I2C_Write	;volatile
  7058  002F82  0E1F               	movlw	31
  7059  002F84  1602               	andwf	??_I2C_Write^0,f,c
  7060  002F86  A4D8               	btfss	status,2,c
  7061  002F88  EFC8  F017         	goto	u2131
  7062  002F8C  EFCA  F017         	goto	u2130
  7063  002F90                     u2131:
  7064  002F90  EFB8  F017         	goto	l307
  7065  002F94                     u2130:
  7066  002F94                     
  7067                           ;i2c_lcd.c: 26:   SSPBUF = i2c_data;
  7068  002F94  C003  FFC9         	movff	I2C_Write@i2c_data,4041	;volatile
  7069  002F98  0012               	return		;funcret
  7070  002F9A                     __end_of_I2C_Write:
  7071                           	opt callstack 0
  7072                           
  7073 ;; *************** function _I2C_Stop *****************
  7074 ;; Defined at:
  7075 ;;		line 17 in file "i2c_lcd.c"
  7076 ;; Parameters:    Size  Location     Type
  7077 ;;		None
  7078 ;; Auto vars:     Size  Location     Type
  7079 ;;		None
  7080 ;; Return value:  Size  Location     Type
  7081 ;;                  1    wreg      void 
  7082 ;; Registers used:
  7083 ;;		wreg, status,2, status,0
  7084 ;; Tracked objects:
  7085 ;;		On entry : 0/0
  7086 ;;		On exit  : 0/0
  7087 ;;		Unchanged: 0/0
  7088 ;; Data sizes:     COMRAM   BANK0   BANK1   BANK2   BANK3   BANK4   BANK5   BANK6   BANK7
  7089 ;;      Params:         0       0       0       0       0       0       0       0       0
  7090 ;;      Locals:         0       0       0       0       0       0       0       0       0
  7091 ;;      Temps:          1       0       0       0       0       0       0       0       0
  7092 ;;      Totals:         1       0       0       0       0       0       0       0       0
  7093 ;;Total ram usage:        1 bytes
  7094 ;; Hardware stack levels used:    1
  7095 ;; Hardware stack levels required when called:    1
  7096 ;; This function calls:
  7097 ;;		Nothing
  7098 ;; This function is called by:
  7099 ;;		_Expander_Write
  7100 ;; This function uses a non-reentrant model
  7101 ;;
  7102                           
  7103                           	psect	text27
  7104  002F9A                     __ptext27:
  7105                           	opt callstack 0
  7106  002F9A                     _I2C_Stop:
  7107                           	opt callstack 24
  7108  002F9A                     l301:
  7109  002F9A  B4C7               	btfsc	199,2,c	;volatile
  7110  002F9C  EFD2  F017         	goto	u2101
  7111  002FA0  EFD4  F017         	goto	u2100
  7112  002FA4                     u2101:
  7113  002FA4  EFCD  F017         	goto	l301
  7114  002FA8                     u2100:
  7115  002FA8  CFC5 F002          	movff	4037,??_I2C_Stop	;volatile
  7116  002FAC  0E1F               	movlw	31
  7117  002FAE  1602               	andwf	??_I2C_Stop^0,f,c
  7118  002FB0  A4D8               	btfss	status,2,c
  7119  002FB2  EFDD  F017         	goto	u2111
  7120  002FB6  EFDF  F017         	goto	u2110
  7121  002FBA                     u2111:
  7122  002FBA  EFCD  F017         	goto	l301
  7123  002FBE                     u2110:
  7124  002FBE                     
  7125                           ;i2c_lcd.c: 20:   PEN = 1;
  7126  002FBE  84C5               	bsf	4037,2,c	;volatile
  7127  002FC0  0012               	return		;funcret
  7128  002FC2                     __end_of_I2C_Stop:
  7129                           	opt callstack 0
  7130                           
  7131 ;; *************** function _I2C_Start *****************
  7132 ;; Defined at:
  7133 ;;		line 11 in file "i2c_lcd.c"
  7134 ;; Parameters:    Size  Location     Type
  7135 ;;		None
  7136 ;; Auto vars:     Size  Location     Type
  7137 ;;		None
  7138 ;; Return value:  Size  Location     Type
  7139 ;;                  1    wreg      void 
  7140 ;; Registers used:
  7141 ;;		wreg, status,2, status,0
  7142 ;; Tracked objects:
  7143 ;;		On entry : 0/0
  7144 ;;		On exit  : 0/0
  7145 ;;		Unchanged: 0/0
  7146 ;; Data sizes:     COMRAM   BANK0   BANK1   BANK2   BANK3   BANK4   BANK5   BANK6   BANK7
  7147 ;;      Params:         0       0       0       0       0       0       0       0       0
  7148 ;;      Locals:         0       0       0       0       0       0       0       0       0
  7149 ;;      Temps:          1       0       0       0       0       0       0       0       0
  7150 ;;      Totals:         1       0       0       0       0       0       0       0       0
  7151 ;;Total ram usage:        1 bytes
  7152 ;; Hardware stack levels used:    1
  7153 ;; Hardware stack levels required when called:    1
  7154 ;; This function calls:
  7155 ;;		Nothing
  7156 ;; This function is called by:
  7157 ;;		_Expander_Write
  7158 ;; This function uses a non-reentrant model
  7159 ;;
  7160                           
  7161                           	psect	text28
  7162  002FC2                     __ptext28:
  7163                           	opt callstack 0
  7164  002FC2                     _I2C_Start:
  7165                           	opt callstack 24
  7166  002FC2                     l295:
  7167  002FC2  B4C7               	btfsc	199,2,c	;volatile
  7168  002FC4  EFE6  F017         	goto	u2081
  7169  002FC8  EFE8  F017         	goto	u2080
  7170  002FCC                     u2081:
  7171  002FCC  EFE1  F017         	goto	l295
  7172  002FD0                     u2080:
  7173  002FD0  CFC5 F002          	movff	4037,??_I2C_Start	;volatile
  7174  002FD4  0E1F               	movlw	31
  7175  002FD6  1602               	andwf	??_I2C_Start^0,f,c
  7176  002FD8  A4D8               	btfss	status,2,c
  7177  002FDA  EFF1  F017         	goto	u2091
  7178  002FDE  EFF3  F017         	goto	u2090
  7179  002FE2                     u2091:
  7180  002FE2  EFE1  F017         	goto	l295
  7181  002FE6                     u2090:
  7182  002FE6                     
  7183                           ;i2c_lcd.c: 14:   SEN = 1;
  7184  002FE6  80C5               	bsf	4037,0,c	;volatile
  7185  002FE8  0012               	return		;funcret
  7186  002FEA                     __end_of_I2C_Start:
  7187                           	opt callstack 0
  7188                           
  7189 ;; *************** function _I2C_Init *****************
  7190 ;; Defined at:
  7191 ;;		line 4 in file "i2c_lcd.c"
  7192 ;; Parameters:    Size  Location     Type
  7193 ;;  i2c_clk_freq    4   14[COMRAM] unsigned long 
  7194 ;; Auto vars:     Size  Location     Type
  7195 ;;		None
  7196 ;; Return value:  Size  Location     Type
  7197 ;;                  1    wreg      void 
  7198 ;; Registers used:
  7199 ;;		wreg, status,2, status,0, cstack
  7200 ;; Tracked objects:
  7201 ;;		On entry : 0/0
  7202 ;;		On exit  : 0/0
  7203 ;;		Unchanged: 0/0
  7204 ;; Data sizes:     COMRAM   BANK0   BANK1   BANK2   BANK3   BANK4   BANK5   BANK6   BANK7
  7205 ;;      Params:         4       0       0       0       0       0       0       0       0
  7206 ;;      Locals:         0       0       0       0       0       0       0       0       0
  7207 ;;      Temps:          4       0       0       0       0       0       0       0       0
  7208 ;;      Totals:         8       0       0       0       0       0       0       0       0
  7209 ;;Total ram usage:        8 bytes
  7210 ;; Hardware stack levels used:    1
  7211 ;; Hardware stack levels required when called:    2
  7212 ;; This function calls:
  7213 ;;		___lldiv
  7214 ;; This function is called by:
  7215 ;;		_main
  7216 ;; This function uses a non-reentrant model
  7217 ;;
  7218                           
  7219                           	psect	text29
  7220  002DA2                     __ptext29:
  7221                           	opt callstack 0
  7222  002DA2                     _I2C_Init:
  7223                           	opt callstack 28
  7224  002DA2                     
  7225                           ;i2c_lcd.c: 4: void I2C_Init(uint32_t i2c_clk_freq);i2c_lcd.c: 5: {;i2c_lcd.c: 6:   SSPC
      +                          ON1 = 0x28;
  7226  002DA2  0E28               	movlw	40
  7227  002DA4  6EC6               	movwf	198,c	;volatile
  7228  002DA6                     
  7229                           ;i2c_lcd.c: 7:   SSPADD = (20000000/(4 * i2c_clk_freq)) - 1;
  7230  002DA6  0E00               	movlw	0
  7231  002DA8  6E02               	movwf	___lldiv@dividend^0,c
  7232  002DAA  0E2D               	movlw	45
  7233  002DAC  6E03               	movwf	(___lldiv@dividend+1)^0,c
  7234  002DAE  0E31               	movlw	49
  7235  002DB0  6E04               	movwf	(___lldiv@dividend+2)^0,c
  7236  002DB2  0E01               	movlw	1
  7237  002DB4  6E05               	movwf	(___lldiv@dividend+3)^0,c
  7238  002DB6  C00F  F013         	movff	I2C_Init@i2c_clk_freq,??_I2C_Init
  7239  002DBA  C010  F014         	movff	I2C_Init@i2c_clk_freq+1,??_I2C_Init+1
  7240  002DBE  C011  F015         	movff	I2C_Init@i2c_clk_freq+2,??_I2C_Init+2
  7241  002DC2  C012  F016         	movff	I2C_Init@i2c_clk_freq+3,??_I2C_Init+3
  7242  002DC6  0E02               	movlw	2
  7243  002DC8                     u3485:
  7244  002DC8  90D8               	bcf	status,0,c
  7245  002DCA  3613               	rlcf	??_I2C_Init^0,f,c
  7246  002DCC  3614               	rlcf	(??_I2C_Init+1)^0,f,c
  7247  002DCE  3615               	rlcf	(??_I2C_Init+2)^0,f,c
  7248  002DD0  3616               	rlcf	(??_I2C_Init+3)^0,f,c
  7249  002DD2  2EE8               	decfsz	wreg,f,c
  7250  002DD4  EFE4  F016         	goto	u3485
  7251  002DD8  C013  F006         	movff	??_I2C_Init,___lldiv@divisor
  7252  002DDC  C014  F007         	movff	??_I2C_Init+1,___lldiv@divisor+1
  7253  002DE0  C015  F008         	movff	??_I2C_Init+2,___lldiv@divisor+2
  7254  002DE4  C016  F009         	movff	??_I2C_Init+3,___lldiv@divisor+3
  7255  002DE8  EC75  F015         	call	___lldiv	;wreg free
  7256  002DEC  0402               	decf	?___lldiv^0,w,c
  7257  002DEE  6EC8               	movwf	200,c	;volatile
  7258  002DF0                     
  7259                           ;i2c_lcd.c: 8:   SSPSTAT = 0;
  7260  002DF0  0E00               	movlw	0
  7261  002DF2  6EC7               	movwf	199,c	;volatile
  7262  002DF4  0012               	return		;funcret
  7263  002DF6                     __end_of_I2C_Init:
  7264                           	opt callstack 0
  7265                           
  7266 ;; *************** function ___lldiv *****************
  7267 ;; Defined at:
  7268 ;;		line 7 in file "C:\Program Files (x86)\Microchip\xc8\v2.10\pic\sources\c90\common\__lldiv.c"
  7269 ;; Parameters:    Size  Location     Type
  7270 ;;  dividend        4    1[COMRAM] unsigned long 
  7271 ;;  divisor         4    5[COMRAM] unsigned long 
  7272 ;; Auto vars:     Size  Location     Type
  7273 ;;  quotient        4    9[COMRAM] unsigned long 
  7274 ;;  counter         1   13[COMRAM] unsigned char 
  7275 ;; Return value:  Size  Location     Type
  7276 ;;                  4    1[COMRAM] unsigned long 
  7277 ;; Registers used:
  7278 ;;		wreg, status,2, status,0
  7279 ;; Tracked objects:
  7280 ;;		On entry : 0/0
  7281 ;;		On exit  : 0/0
  7282 ;;		Unchanged: 0/0
  7283 ;; Data sizes:     COMRAM   BANK0   BANK1   BANK2   BANK3   BANK4   BANK5   BANK6   BANK7
  7284 ;;      Params:         8       0       0       0       0       0       0       0       0
  7285 ;;      Locals:         5       0       0       0       0       0       0       0       0
  7286 ;;      Temps:          0       0       0       0       0       0       0       0       0
  7287 ;;      Totals:        13       0       0       0       0       0       0       0       0
  7288 ;;Total ram usage:       13 bytes
  7289 ;; Hardware stack levels used:    1
  7290 ;; Hardware stack levels required when called:    1
  7291 ;; This function calls:
  7292 ;;		Nothing
  7293 ;; This function is called by:
  7294 ;;		_I2C_Init
  7295 ;; This function uses a non-reentrant model
  7296 ;;
  7297                           
  7298                           	psect	text30
  7299  002AEA                     __ptext30:
  7300                           	opt callstack 0
  7301  002AEA                     ___lldiv:
  7302                           	opt callstack 28
  7303  002AEA  0E00               	movlw	0
  7304  002AEC  6E0A               	movwf	___lldiv@quotient^0,c
  7305  002AEE  0E00               	movlw	0
  7306  002AF0  6E0B               	movwf	(___lldiv@quotient+1)^0,c
  7307  002AF2  0E00               	movlw	0
  7308  002AF4  6E0C               	movwf	(___lldiv@quotient+2)^0,c
  7309  002AF6  0E00               	movlw	0
  7310  002AF8  6E0D               	movwf	(___lldiv@quotient+3)^0,c
  7311  002AFA  5006               	movf	___lldiv@divisor^0,w,c
  7312  002AFC  1007               	iorwf	(___lldiv@divisor+1)^0,w,c
  7313  002AFE  1008               	iorwf	(___lldiv@divisor+2)^0,w,c
  7314  002B00  1009               	iorwf	(___lldiv@divisor+3)^0,w,c
  7315  002B02  B4D8               	btfsc	status,2,c
  7316  002B04  EF86  F015         	goto	u3451
  7317  002B08  EF88  F015         	goto	u3450
  7318  002B0C                     u3451:
  7319  002B0C  EFBE  F015         	goto	l496
  7320  002B10                     u3450:
  7321  002B10  0E01               	movlw	1
  7322  002B12  6E0E               	movwf	___lldiv@counter^0,c
  7323  002B14  EF92  F015         	goto	l3621
  7324  002B18                     l3619:
  7325  002B18  90D8               	bcf	status,0,c
  7326  002B1A  3606               	rlcf	___lldiv@divisor^0,f,c
  7327  002B1C  3607               	rlcf	(___lldiv@divisor+1)^0,f,c
  7328  002B1E  3608               	rlcf	(___lldiv@divisor+2)^0,f,c
  7329  002B20  3609               	rlcf	(___lldiv@divisor+3)^0,f,c
  7330  002B22  2A0E               	incf	___lldiv@counter^0,f,c
  7331  002B24                     l3621:
  7332  002B24  AE09               	btfss	(___lldiv@divisor+3)^0,7,c
  7333  002B26  EF97  F015         	goto	u3461
  7334  002B2A  EF99  F015         	goto	u3460
  7335  002B2E                     u3461:
  7336  002B2E  EF8C  F015         	goto	l3619
  7337  002B32                     u3460:
  7338  002B32                     l3623:
  7339  002B32  90D8               	bcf	status,0,c
  7340  002B34  360A               	rlcf	___lldiv@quotient^0,f,c
  7341  002B36  360B               	rlcf	(___lldiv@quotient+1)^0,f,c
  7342  002B38  360C               	rlcf	(___lldiv@quotient+2)^0,f,c
  7343  002B3A  360D               	rlcf	(___lldiv@quotient+3)^0,f,c
  7344  002B3C  5006               	movf	___lldiv@divisor^0,w,c
  7345  002B3E  5C02               	subwf	___lldiv@dividend^0,w,c
  7346  002B40  5007               	movf	(___lldiv@divisor+1)^0,w,c
  7347  002B42  5803               	subwfb	(___lldiv@dividend+1)^0,w,c
  7348  002B44  5008               	movf	(___lldiv@divisor+2)^0,w,c
  7349  002B46  5804               	subwfb	(___lldiv@dividend+2)^0,w,c
  7350  002B48  5009               	movf	(___lldiv@divisor+3)^0,w,c
  7351  002B4A  5805               	subwfb	(___lldiv@dividend+3)^0,w,c
  7352  002B4C  A0D8               	btfss	status,0,c
  7353  002B4E  EFAB  F015         	goto	u3471
  7354  002B52  EFAD  F015         	goto	u3470
  7355  002B56                     u3471:
  7356  002B56  EFB6  F015         	goto	l3631
  7357  002B5A                     u3470:
  7358  002B5A  5006               	movf	___lldiv@divisor^0,w,c
  7359  002B5C  5E02               	subwf	___lldiv@dividend^0,f,c
  7360  002B5E  5007               	movf	(___lldiv@divisor+1)^0,w,c
  7361  002B60  5A03               	subwfb	(___lldiv@dividend+1)^0,f,c
  7362  002B62  5008               	movf	(___lldiv@divisor+2)^0,w,c
  7363  002B64  5A04               	subwfb	(___lldiv@dividend+2)^0,f,c
  7364  002B66  5009               	movf	(___lldiv@divisor+3)^0,w,c
  7365  002B68  5A05               	subwfb	(___lldiv@dividend+3)^0,f,c
  7366  002B6A  800A               	bsf	___lldiv@quotient^0,0,c
  7367  002B6C                     l3631:
  7368  002B6C  90D8               	bcf	status,0,c
  7369  002B6E  3209               	rrcf	(___lldiv@divisor+3)^0,f,c
  7370  002B70  3208               	rrcf	(___lldiv@divisor+2)^0,f,c
  7371  002B72  3207               	rrcf	(___lldiv@divisor+1)^0,f,c
  7372  002B74  3206               	rrcf	___lldiv@divisor^0,f,c
  7373  002B76  2E0E               	decfsz	___lldiv@counter^0,f,c
  7374  002B78  EF99  F015         	goto	l3623
  7375  002B7C                     l496:
  7376  002B7C  C00A  F002         	movff	___lldiv@quotient,?___lldiv
  7377  002B80  C00B  F003         	movff	___lldiv@quotient+1,?___lldiv+1
  7378  002B84  C00C  F004         	movff	___lldiv@quotient+2,?___lldiv+2
  7379  002B88  C00D  F005         	movff	___lldiv@quotient+3,?___lldiv+3
  7380  002B8C  0012               	return		;funcret
  7381  002B8E                     __end_of___lldiv:
  7382                           	opt callstack 0
  7383                           
  7384 ;; *************** function _INT2ISR *****************
  7385 ;; Defined at:
  7386 ;;		line 173 in file "main.c"
  7387 ;; Parameters:    Size  Location     Type
  7388 ;;		None
  7389 ;; Auto vars:     Size  Location     Type
  7390 ;;		None
  7391 ;; Return value:  Size  Location     Type
  7392 ;;                  1    wreg      void 
  7393 ;; Registers used:
  7394 ;;		wreg, status,2, status,0
  7395 ;; Tracked objects:
  7396 ;;		On entry : 0/0
  7397 ;;		On exit  : 0/0
  7398 ;;		Unchanged: 0/0
  7399 ;; Data sizes:     COMRAM   BANK0   BANK1   BANK2   BANK3   BANK4   BANK5   BANK6   BANK7
  7400 ;;      Params:         0       0       0       0       0       0       0       0       0
  7401 ;;      Locals:         0       0       0       0       0       0       0       0       0
  7402 ;;      Temps:          1       0       0       0       0       0       0       0       0
  7403 ;;      Totals:         1       0       0       0       0       0       0       0       0
  7404 ;;Total ram usage:        1 bytes
  7405 ;; Hardware stack levels used:    1
  7406 ;; This function calls:
  7407 ;;		Nothing
  7408 ;; This function is called by:
  7409 ;;		Interrupt level 2
  7410 ;; This function uses a non-reentrant model
  7411 ;;
  7412                           
  7413                           	psect	intcode
  7414  000008                     __pintcode:
  7415                           	opt callstack 0
  7416  000008                     _INT2ISR:
  7417                           	opt callstack 23
  7418                           
  7419                           ;incstack = 0
  7420  000008  825D               	bsf	int$flags,1,c	;set compiler interrupt flag (level 2)
  7421  00000A  EDFB  F016         	call	int_func,f	;refresh shadow registers
  7422                           
  7423                           	psect	intcode_body
  7424  002DF6                     __pintcode_body:
  7425                           	opt callstack 23
  7426  002DF6                     int_func:
  7427                           	opt callstack 23
  7428  002DF6  0006               	pop		; remove dummy address from shadow register refresh
  7429  002DF8                     
  7430                           ;main.c: 175:     for(i=0;i<v;i++){
  7431  002DF8  0E00               	movlw	0
  7432  002DFA  6E4A               	movwf	(_i+1)^0,c
  7433  002DFC  0E00               	movlw	0
  7434  002DFE  6E49               	movwf	_i^0,c
  7435  002E00  EF08  F017         	goto	i2l143
  7436  002E04                     i2l2575:
  7437                           
  7438                           ;main.c: 176:         _delay((unsigned long)((8)*(20000000/4000000.0)));
  7439  002E04  0E0D               	movlw	13
  7440  002E06                     i2u486_47:
  7441  002E06  2EE8               	decfsz	wreg,f,c
  7442  002E08  D7FE               	bra	i2u486_47
  7443  002E0A  F000               	nop	
  7444  002E0C                     
  7445                           ;main.c: 177:     }
  7446  002E0C  4A49               	infsnz	_i^0,f,c
  7447  002E0E  2A4A               	incf	(_i+1)^0,f,c
  7448  002E10                     i2l143:
  7449  002E10  5057               	movf	_v^0,w,c
  7450  002E12  5C49               	subwf	_i^0,w,c
  7451  002E14  504A               	movf	(_i+1)^0,w,c
  7452  002E16  0A80               	xorlw	128
  7453  002E18  6E01               	movwf	??_INT2ISR^0,c
  7454  002E1A  5058               	movf	(_v+1)^0,w,c
  7455  002E1C  0A80               	xorlw	128
  7456  002E1E  5801               	subwfb	??_INT2ISR^0,w,c
  7457  002E20  A0D8               	btfss	status,0,c
  7458  002E22  EF15  F017         	goto	i2u195_41
  7459  002E26  EF17  F017         	goto	i2u195_40
  7460  002E2A                     i2u195_41:
  7461  002E2A  EF02  F017         	goto	i2l2575
  7462  002E2E                     i2u195_40:
  7463  002E2E                     
  7464                           ;main.c: 178:     LATBbits.LATB3 = 1;
  7465  002E2E  868A               	bsf	138,3,c	;volatile
  7466  002E30                     
  7467                           ;main.c: 179:     _delay((unsigned long)((200)*(20000000/4000000.0)));
  7468  002E30  0EC8               	movlw	200
  7469  002E32                     i2u487_47:
  7470  002E32  D000               	nop2	
  7471  002E34  2EE8               	decfsz	wreg,f,c
  7472  002E36  D7FD               	bra	i2u487_47
  7473  002E38                     
  7474                           ;main.c: 180:     LATBbits.LATB3 = 0;
  7475  002E38  968A               	bcf	138,3,c	;volatile
  7476  002E3A                     
  7477                           ;main.c: 181:     INT2IF = 0;
  7478  002E3A  92F0               	bcf	4080,1,c	;volatile
  7479  002E3C  925D               	bcf	int$flags,1,c	;clear compiler interrupt flag (level 2)
  7480  002E3E  0011               	retfie		f
  7481  002E40                     __end_of_INT2ISR:
  7482                           	opt callstack 0
  7483                           
  7484                           	psect	rparam
  7485  0000                     
  7486                           	psect	temp
  7487  00005D                     btemp:
  7488                           	opt callstack 0
  7489  00005D                     	ds	1
  7490  0000                     int$flags	set	btemp
  7491  0000                     wtemp8	set	btemp+1
  7492  0000                     ttemp5	set	btemp+1
  7493  0000                     ttemp6	set	btemp+4
  7494  0000                     ttemp7	set	btemp+8
  7495                           tosu	equ	0xFFF
  7496                           tosh	equ	0xFFE
  7497                           tosl	equ	0xFFD
  7498                           stkptr	equ	0xFFC
  7499                           pclatu	equ	0xFFB
  7500                           pclath	equ	0xFFA
  7501                           pcl	equ	0xFF9
  7502                           tblptru	equ	0xFF8
  7503                           tblptrh	equ	0xFF7
  7504                           tblptrl	equ	0xFF6
  7505                           tablat	equ	0xFF5
  7506                           prodh	equ	0xFF4
  7507                           prodl	equ	0xFF3
  7508                           indf0	equ	0xFEF
  7509                           postinc0	equ	0xFEE
  7510                           postdec0	equ	0xFED
  7511                           preinc0	equ	0xFEC
  7512                           plusw0	equ	0xFEB
  7513                           fsr0h	equ	0xFEA
  7514                           fsr0l	equ	0xFE9
  7515                           wreg	equ	0xFE8
  7516                           indf1	equ	0xFE7
  7517                           postinc1	equ	0xFE6
  7518                           postdec1	equ	0xFE5
  7519                           preinc1	equ	0xFE4
  7520                           plusw1	equ	0xFE3
  7521                           fsr1h	equ	0xFE2
  7522                           fsr1l	equ	0xFE1
  7523                           bsr	equ	0xFE0
  7524                           indf2	equ	0xFDF
  7525                           postinc2	equ	0xFDE
  7526                           postdec2	equ	0xFDD
  7527                           preinc2	equ	0xFDC
  7528                           plusw2	equ	0xFDB
  7529                           fsr2h	equ	0xFDA
  7530                           fsr2l	equ	0xFD9
  7531                           status	equ	0xFD8


Data Sizes:
    Strings     134
    Constant    10
    Data        24
    BSS         88
    Persistent  1
    Stack       0

Auto Spaces:
    Space          Size  Autos    Used
    COMRAM           94     52      92
    BANK0           160      2      76
    BANK1           256      0       0
    BANK2           256      0       0
    BANK3           256      0       0
    BANK4           256      0       0
    BANK5           256      0       0
    BANK6           256      0       0
    BANK7           256      0       0

Pointer List with Targets:

    memset@p1	PTR void  size(2) Largest target is 10
		 -> Temperatura(BANK0[10]), contras(BANK0[4]), 

    memset@p	PTR unsigned char  size(2) Largest target is 10
		 -> Temperatura(BANK0[10]), contras(BANK0[4]), 

    atol@s	PTR const unsigned char  size(2) Largest target is 2
		 -> sp(COMRAM[2]), 

    sprintf@f	PTR const unsigned char  size(2) Largest target is 5
		 -> STR_35(CODE[4]), STR_34(CODE[4]), STR_33(CODE[5]), STR_32(CODE[5]), 
		 -> STR_29(CODE[5]), 

    sprintf@sp	PTR unsigned char  size(2) Largest target is 10
		 -> Potencio(BANK0[10]), Temperatura(BANK0[10]), 

    sprintf@ap	PTR void [1] size(2) Largest target is 2
		 -> ?_sprintf(COMRAM[2]), 

    LCD_Print@LCD_Str	PTR unsigned char  size(2) Largest target is 16
		 -> Potencio(BANK0[10]), STR_31(CODE[11]), STR_30(CODE[6]), Temperatura(BANK0[10]), 
		 -> STR_28(CODE[6]), STR_27(CODE[9]), STR_26(CODE[9]), STR_25(CODE[13]), 
		 -> STR_24(CODE[9]), STR_23(CODE[13]), STR_22(CODE[9]), STR_21(CODE[7]), 
		 -> STR_20(CODE[10]), STR_19(CODE[7]), STR_18(CODE[2]), STR_17(CODE[2]), 
		 -> STR_16(CODE[2]), STR_15(CODE[2]), STR_14(CODE[2]), STR_13(CODE[2]), 
		 -> STR_12(CODE[2]), STR_11(CODE[2]), STR_10(CODE[2]), STR_9(CODE[2]), 
		 -> STR_8(CODE[2]), STR_7(CODE[2]), STR_6(CODE[2]), STR_5(CODE[2]), 
		 -> STR_4(CODE[2]), STR_3(CODE[2]), STR_2(CODE[16]), STR_1(CODE[11]), 

    sp__memset	PTR void  size(2) Largest target is 10
		 -> Temperatura(BANK0[10]), contras(BANK0[4]), 


Critical Paths under _main in COMRAM

    _modo->_automatic
    _manual->___fldiv
    ___awdiv->___wmul
    _automatic->___fldiv
    _sprintf->___awdiv
    ___lwmod->___lwdiv
    _atol->___lmul
    ___wmul->___fltol
    ___fldiv->___flmul
    _bienv_cont->_LCD_Goto
    _bienv_cont->_LCD_Print
    _keyfind->_LCD_PutC
    _LCD_PutC->_LCD_Write_Nibble
    _LCD_Print->_LCD_Write_Nibble
    _LCD_Goto->_LCD_Cmd
    _LCD_Begin->_LCD_Cmd
    _LCD_Cmd->_LCD_Write_Nibble
    _LCD_Write_Nibble->_Expander_Write
    _Expander_Write->_I2C_Write
    _I2C_Init->___lldiv

Critical Paths under _INT2ISR in COMRAM

    None.

Critical Paths under _main in BANK0

    _main->_modo

Critical Paths under _INT2ISR in BANK0

    None.

Critical Paths under _main in BANK1

    None.

Critical Paths under _INT2ISR in BANK1

    None.

Critical Paths under _main in BANK2

    None.

Critical Paths under _INT2ISR in BANK2

    None.

Critical Paths under _main in BANK3

    None.

Critical Paths under _INT2ISR in BANK3

    None.

Critical Paths under _main in BANK4

    None.

Critical Paths under _INT2ISR in BANK4

    None.

Critical Paths under _main in BANK5

    None.

Critical Paths under _INT2ISR in BANK5

    None.

Critical Paths under _main in BANK6

    None.

Critical Paths under _INT2ISR in BANK6

    None.

Critical Paths under _main in BANK7

    None.

Critical Paths under _INT2ISR in BANK7

    None.

Call Graph Tables:

 ---------------------------------------------------------------------------------
 (Depth) Function   	        Calls       Base Space   Used Autos Params    Refs
 ---------------------------------------------------------------------------------
 (0) _main                                                 0     0      0   47472
                           _I2C_Init
                          _LCD_Begin
                         _bienv_cont
                               _modo
 ---------------------------------------------------------------------------------
 (1) _modo                                                 2     2      0   39939
                                              0 BANK0      2     2      0
                            _LCD_Cmd
                           _LCD_Goto
                          _LCD_Print
                          _automatic
                            _keyfind
                             _manual
 ---------------------------------------------------------------------------------
 (2) _manual                                               0     0      0   16425
                           _LCD_Goto
                          _LCD_Print
                            ___awdiv
                            ___fldiv
                            ___flmul
                            ___fltol
                             ___wmul
                           ___xxtofl
                            _sprintf
 ---------------------------------------------------------------------------------
 (3) ___awdiv                                              8     4      4     756
                                             17 COMRAM     8     4      4
                            ___fltol (ARG)
                             ___wmul (ARG)
 ---------------------------------------------------------------------------------
 (2) _automatic                                            1     1      0   17210
                                             51 COMRAM     1     1      0
                           _LCD_Goto
                          _LCD_Print
                            ___fldiv
                            ___flmul
                            ___fltol
                             ___wmul
                           ___xxtofl
                               _atol
                            _keyfind
                             _memset
                            _sprintf
 ---------------------------------------------------------------------------------
 (3) _sprintf                                             24    18      6    1862
                                             25 COMRAM    15     9      6
                            ___awdiv (ARG)
                            ___fltol (ARG)
                            ___lwdiv
                            ___lwmod
                             ___wmul (ARG)
 ---------------------------------------------------------------------------------
 (4) ___lwmod                                              5     1      4     311
                                              8 COMRAM     5     1      4
                            ___lwdiv (ARG)
 ---------------------------------------------------------------------------------
 (4) ___lwdiv                                              7     3      4     314
                                              1 COMRAM     7     3      4
 ---------------------------------------------------------------------------------
 (3) _atol                                                14    10      4     834
                                             13 COMRAM    14    10      4
                             ___lmul
                            _isdigit
 ---------------------------------------------------------------------------------
 (4) _isdigit                                              3     3      0      68
                                              1 COMRAM     3     3      0
 ---------------------------------------------------------------------------------
 (4) ___lmul                                              12     4      8     370
                                              1 COMRAM    12     4      8
 ---------------------------------------------------------------------------------
 (3) ___xxtofl                                            14    10      4    1150
                                              1 COMRAM    14    10      4
 ---------------------------------------------------------------------------------
 (3) ___wmul                                               6     2      4    1055
                                             11 COMRAM     6     2      4
                            ___fltol (ARG)
 ---------------------------------------------------------------------------------
 (3) ___fltol                                             10     6      4     837
                                              1 COMRAM    10     6      4
 ---------------------------------------------------------------------------------
 (3) ___flmul                                             25    17      8    2656
                                              1 COMRAM    25    17      8
 ---------------------------------------------------------------------------------
 (3) ___fldiv                                             25    17      8    2159
                                             26 COMRAM    25    17      8
                            ___flmul (ARG)
 ---------------------------------------------------------------------------------
 (1) _bienv_cont                                           2     2      0    6856
                                             11 COMRAM     2     2      0
                            _LCD_Cmd
                           _LCD_Goto
                          _LCD_Print
                            _keyfind
                             _memset
 ---------------------------------------------------------------------------------
 (3) _memset                                               8     2      6     552
                                              1 COMRAM     8     2      6
 ---------------------------------------------------------------------------------
 (2) _keyfind                                              1     1      0     155
                                              6 COMRAM     1     1      0
                           _LCD_PutC
 ---------------------------------------------------------------------------------
 (3) _LCD_PutC                                             1     1      0     155
                                              5 COMRAM     1     1      0
                   _LCD_Write_Nibble
 ---------------------------------------------------------------------------------
 (3) _LCD_Print                                            6     4      2    2905
                                              5 COMRAM     6     4      2
                   _LCD_Write_Nibble
 ---------------------------------------------------------------------------------
 (3) _LCD_Goto                                             4     3      1    3045
                                              7 COMRAM     4     3      1
                            _LCD_Cmd
 ---------------------------------------------------------------------------------
 (1) _LCD_Begin                                            3     3      0     265
                                              7 COMRAM     3     3      0
                     _Expander_Write
                            _LCD_Cmd
 ---------------------------------------------------------------------------------
 (4) _LCD_Cmd                                              2     2      0     199
                                              5 COMRAM     2     2      0
                   _LCD_Write_Nibble
 ---------------------------------------------------------------------------------
 (4) _LCD_Write_Nibble                                     1     1      0     111
                                              4 COMRAM     1     1      0
                     _Expander_Write
 ---------------------------------------------------------------------------------
 (5) _Expander_Write                                       1     1      0      44
                                              3 COMRAM     1     1      0
                          _I2C_Start
                           _I2C_Stop
                          _I2C_Write
 ---------------------------------------------------------------------------------
 (6) _I2C_Write                                            2     2      0      22
                                              1 COMRAM     2     2      0
 ---------------------------------------------------------------------------------
 (6) _I2C_Stop                                             1     1      0       0
                                              1 COMRAM     1     1      0
 ---------------------------------------------------------------------------------
 (6) _I2C_Start                                            1     1      0       0
                                              1 COMRAM     1     1      0
 ---------------------------------------------------------------------------------
 (1) _I2C_Init                                             8     4      4     412
                                             14 COMRAM     8     4      4
                            ___lldiv
 ---------------------------------------------------------------------------------
 (2) ___lldiv                                             13     5      8     314
                                              1 COMRAM    13     5      8
 ---------------------------------------------------------------------------------
 Estimated maximum stack depth 6
 ---------------------------------------------------------------------------------
 (Depth) Function   	        Calls       Base Space   Used Autos Params    Refs
 ---------------------------------------------------------------------------------
 (8) _INT2ISR                                              1     1      0       0
                                              0 COMRAM     1     1      0
 ---------------------------------------------------------------------------------
 Estimated maximum stack depth 8
 ---------------------------------------------------------------------------------

 Call Graph Graphs:

 _main (ROOT)
   _I2C_Init
     ___lldiv
   _LCD_Begin
     _Expander_Write
       _I2C_Start
       _I2C_Stop
       _I2C_Write
     _LCD_Cmd
       _LCD_Write_Nibble
         _Expander_Write
           _I2C_Start
           _I2C_Stop
           _I2C_Write
   _bienv_cont
     _LCD_Cmd
       _LCD_Write_Nibble
         _Expander_Write
           _I2C_Start
           _I2C_Stop
           _I2C_Write
     _LCD_Goto
       _LCD_Cmd
         _LCD_Write_Nibble
           _Expander_Write
             _I2C_Start
             _I2C_Stop
             _I2C_Write
     _LCD_Print
       _LCD_Write_Nibble
         _Expander_Write
           _I2C_Start
           _I2C_Stop
           _I2C_Write
     _keyfind
       _LCD_PutC
         _LCD_Write_Nibble
           _Expander_Write
             _I2C_Start
             _I2C_Stop
             _I2C_Write
     _memset
   _modo
     _LCD_Cmd
       _LCD_Write_Nibble
         _Expander_Write
           _I2C_Start
           _I2C_Stop
           _I2C_Write
     _LCD_Goto
       _LCD_Cmd
         _LCD_Write_Nibble
           _Expander_Write
             _I2C_Start
             _I2C_Stop
             _I2C_Write
     _LCD_Print
       _LCD_Write_Nibble
         _Expander_Write
           _I2C_Start
           _I2C_Stop
           _I2C_Write
     _automatic
       _LCD_Goto
         _LCD_Cmd
           _LCD_Write_Nibble
             _Expander_Write
               _I2C_Start
               _I2C_Stop
               _I2C_Write
       _LCD_Print
         _LCD_Write_Nibble
           _Expander_Write
             _I2C_Start
             _I2C_Stop
             _I2C_Write
       ___fldiv
         ___flmul (ARG)
       ___flmul
       ___fltol
       ___wmul
         ___fltol (ARG)
       ___xxtofl
       _atol
         ___lmul
         _isdigit
       _keyfind
         _LCD_PutC
           _LCD_Write_Nibble
             _Expander_Write
               _I2C_Start
               _I2C_Stop
               _I2C_Write
       _memset
       _sprintf
         ___awdiv (ARG)
           ___fltol (ARG)
           ___wmul (ARG)
             ___fltol (ARG)
         ___fltol (ARG)
         ___lwdiv (ARG)
         ___lwmod (ARG)
           ___lwdiv (ARG)
         ___wmul (ARG)
           ___fltol (ARG)
     _keyfind
       _LCD_PutC
         _LCD_Write_Nibble
           _Expander_Write
             _I2C_Start
             _I2C_Stop
             _I2C_Write
     _manual
       _LCD_Goto
         _LCD_Cmd
           _LCD_Write_Nibble
             _Expander_Write
               _I2C_Start
               _I2C_Stop
               _I2C_Write
       _LCD_Print
         _LCD_Write_Nibble
           _Expander_Write
             _I2C_Start
             _I2C_Stop
             _I2C_Write
       ___awdiv
         ___fltol (ARG)
         ___wmul (ARG)
           ___fltol (ARG)
       ___fldiv
         ___flmul (ARG)
       ___flmul
       ___fltol
       ___wmul
         ___fltol (ARG)
       ___xxtofl
       _sprintf
         ___awdiv (ARG)
           ___fltol (ARG)
           ___wmul (ARG)
             ___fltol (ARG)
         ___fltol (ARG)
         ___lwdiv (ARG)
         ___lwmod (ARG)
           ___lwdiv (ARG)
         ___wmul (ARG)
           ___fltol (ARG)

 _INT2ISR (ROOT)

 Address spaces:
Name               Size   Autos  Total    Cost      Usage
BIGRAM             7FF      0       0      21        0.0%
EEDATA             100      0       0       0        0.0%
BITBANK7           100      0       0      18        0.0%
BANK7              100      0       0      19        0.0%
BITBANK6           100      0       0      16        0.0%
BANK6              100      0       0      17        0.0%
BITBANK5           100      0       0      14        0.0%
BANK5              100      0       0      15        0.0%
BITBANK4           100      0       0      12        0.0%
BANK4              100      0       0      13        0.0%
BITBANK3           100      0       0      10        0.0%
BANK3              100      0       0      11        0.0%
BITBANK2           100      0       0       8        0.0%
BANK2              100      0       0       9        0.0%
BITBANK1           100      0       0       6        0.0%
BANK1              100      0       0       7        0.0%
BITBANK0            A0      0       0       4        0.0%
BANK0               A0      2      4C       5       47.5%
BITCOMRAM           5E      0       1       0        1.1%
COMRAM              5E     34      5C       1       97.9%
BITSFR               0      0       0     200        0.0%
SFR                  0      0       0     200        0.0%
STACK                0      0       0       2        0.0%
NULL                 0      0       0       0        0.0%
ABS                  0      0      A8      20        0.0%
DATA                 0      0      A8       3        0.0%
CODE                 0      0       0       0        0.0%


Microchip Technology PIC18 Macro Assembler V2.10 build 88905656 
Symbol Table                                                                                   Sat Dec 07 12:00:52 2019

                        _D 0068                          _I 0039                          _P 006C  
             ___fldiv@aexp 0033               ___fldiv@bexp 0032                          _i 0049  
                        _v 0057                          _x 004C               ___fldiv@sign 002B  
       __size_of_I2C_Start 0028         __size_of_I2C_Write 002C                         _RS 02E0  
             ___awdiv@sign 0017                         _kd 007E                         _ki 0080  
                       _kp 0053                         _sp 0051        ___wmul@multiplicand 000E  
              __CFG_BORV$3 000000               __CFG_CP0$OFF 000000               __CFG_CP1$OFF 000000  
             __CFG_CP2$OFF 000000               __CFG_CP3$OFF 000000                        l203 25FE  
                      l301 2F9A                        l310 2F98                        l303 2FBE  
                      l223 1C70                        l135 2EC4                        l304 2FC0  
                      l240 0F7A                        l136 2EC4                        l226 1D1A  
                      l307 2F70                        l331 3028                        l411 1FB0  
                      l243 1072                        l340 2E86                        l309 2F94  
                      l334 2F3A                        l406 1F6C                        l246 116A  
                      l503 2B8C                        l415 1FF4                        l352 3040  
                      l361 2970                        l433 2124                        l249 128A  
                      l427 2198                        l419 2038                        l292 2DF4  
                      l700 2A34                        l349 2CD4                        l358 2AE8  
                      l295 2FC2                        l199 0F3A                        l480 2C5A  
                      l297 2FE6                        l481 2C6A                        l298 2FE8  
                      l466 234C                        l469 300E                        l496 2B7C  
                      l758 2882                        l955 2C00                        l948 2BF8  
                      l965 2DA0                        l958 2D98                        _GIE 007F97  
             __CFG_CPB$OFF 000000                        _PEN 007E2A               __CFG_CPD$OFF 000000  
                      _SEN 007E28               __CFG_BOR$OFF 000000                        _lim 004D  
                      _pot 0060                        prod 000FF3                        wreg 000FE8  
             __CFG_FOSC$HS 000000               ___flmul@aexp 0013               ___flmul@bexp 0014  
             ___flmul@sign 000E               ___flmul@temp 0019               ___flmul@prod 0015  
          __end_of_LCD_Cmd 2E88               __CFG_LVP$OFF 000000            __end_of_INT2ISR 2E40  
             ___fltol@exp1 000B               __CFG_WDT$OFF 000000                       l1112 23A4  
                     l1041 19C2                       l1050 1A08                       l1115 2500  
                     l1052 1A80                       l1044 1986                       l1053 1A6E  
                     l1141 276C                       l1133 2644                       l1126 2498  
                     l1142 277C                       l1039 1B62                       l1071 1464  
                     l1119 243C                       l1080 16D2                       l1153 2F02  
                     l1081 16C0                       l3011 17CA                       l1075 17C8  
                     l1147 2F6C                       l3101 19F8                       l3021 1806  
                     l3013 17D6                       l3005 2FEA                       l1078 165A  
                     l3111 1A38                       l3103 1A06                       l3031 1836  
                     l3023 1816                       l3015 17E4                       l3007 3006  
                     l1088 178A                       l3121 1AAA                       l3113 1A66  
                     l3105 1A18                       l3041 186C                       l3033 183C  
                     l3025 1818                       l3017 17E6                       l3201 14F4  
                     l3131 1B22                       l3123 1AD4                       l3107 1A26  
                     l3051 18AC                       l3043 187C                       l3035 184A  
                     l3019 17F6                       l3027 1820                       l3211 1536  
                     l3203 1500                       l3141 1B58                       l3133 1B3E  
                     l3117 1A90                       l3125 1AD8                       l3109 1A2A  
                     l3053 18BC                       l3061 18DC                       l3045 187E  
                     l3037 184C                       l3029 1830                       l3221 1598  
                     l3213 1546                       l3205 150E                       l3301 29D4  
                     l3135 1B42                       l3127 1AF2                       l3119 1A9C  
                     l3071 191A                       l3063 18EC                       l3055 18C4  
                     l3039 185C                       l3047 1886                       l3231 1640  
                     l3223 15B4                       l3215 1560                       l3207 151A  
                     l3151 13AC                       l3311 2A08                       l3303 29E2  
                     l3137 1B50                       l3129 1B08                       l3081 1962  
                     l3073 192A                       l3065 18EC                       l3057 18C8  
                     l3049 1896                       l3241 167C                       l3233 164A  
                     l3225 15DE                       l3217 1570                       l3209 152A  
                     l3161 13EC                       l3153 13BA                       l3401 24AC  
                     l3313 2A0E                       l3305 29E8                       l3139 1B56  
                     l3091 19B0                       l3083 1976                       l3075 193A  
                     l3251 16EE                       l3243 168A                       l3235 1658  
                     l3227 1614                       l3219 158C                       l3171 141C  
                     l3163 13F2                       l3155 13BC                       l3331 27D2  
                     l3323 277E                       l3403 24D0                       l3307 29FE  
                     l3315 2A14                       l3093 19C0                       l3085 1984  
                     l3077 194A                       l3069 1900                       l3261 1758  
                     l3253 16FC                       l3245 16B8                       l3237 166A  
                     l3229 1622                       l3181 1454                       l3173 141E  
                     l3165 1402                       l3157 13CC                       l3149 13A0  
                     l3333 27D4                       l3325 2794                       l3405 24E0  
                     l2701 2BA8                       l3501 1E84                       l3421 1B8A  
                     l3413 1B64                       l3317 2A24                       l3309 2A06  
                     l4301 260C                       l3095 19D2                       l3087 1990  
                     l3079 1952                       l3271 17AE                       l3263 1772  
                     l3255 1726                       l3239 1678                       l3191 14A4  
                     l3183 1474                       l3175 142E                       l3167 1408  
                     l3159 13DC                       l3335 27E4                       l3407 24EE  
                     l2711 2BE2                       l2703 2BB0                       l3503 1E8C  
                     l3431 1BE2                       l3423 1B9A                       l3415 1B6E  
                     l3319 2A2C                       l3511 0F3E                       l4303 261E  
                     l4311 2E96                       l2801 1F5E                       l3097 19E8  
                     l3089 19AE                       l3265 178E                       l3273 17B4  
                     l3249 16E2                       l3257 172A                       l3193 14AE  
                     l3185 1484                       l3177 143E                       l3169 140E  
                     l3361 2862                       l3345 280E                       l3337 27E8  
                     l3329 27A8                       l3409 24F0                       l2713 2BEA  
                     l2705 2BB8                       l2721 2D50                       l3505 1E94  
                     l3441 1C2C                       l3433 1BF4                       l3425 1BAC  
                     l3417 1B7A                       l3281 2976                       l3601 12C2  
                     l3521 0F70                       l3513 0F48                       l4305 2626  
                     l4313 2EA2                       l2651 2FA8                       l2811 1F90  
                     l2803 1F66                       l3099 19EE                       l3275 17B8  
                     l3267 179E                       l3259 1744                       l3195 14C4  
                     l3179 144E                       l3363 2872                       l3355 2836  
                     l3347 2818                       l3339 27F6                       l3371 236E  
                     l2715 2BEC                       l2707 2BC6                       l2731 2D8C  
                     l2723 2D58                       l3507 1E9C                       l3451 1C64  
                     l3443 1C48                       l3435 1C06                       l3427 1BBE  
                     l3419 1B84                       l3291 29A6                       l3283 2984  
                     l3611 1392                       l3603 131A                       l3531 1012  
                     l3523 0F78                       l3515 0F54                       l4307 263A  
                     l4315 2EB6                       l3621 2B24                       l3613 2AEA  
                     l2645 2FC2                       l2653 2F70                       l2661 2F0E  
                     l2821 1FD0                       l2813 1FA2                       l2805 1F82  
                     l2901 2EE8                       l3701 0976                       l3269 17AC  
                     l3197 14D0                       l3189 1498                       l3357 2842  
                     l3349 2822                       l3381 23E6                       l3373 23B4  
                     l2741 2F62                       l2717 2BF2                       l2709 2BCC  
                     l2733 2D92                       l2725 2D60                       l3461 1CD4  
                     l3453 1C66                       l3445 1C52                       l3437 1C16  
                     l3429 1BD0                       l3293 29AA                       l3285 298C  
                     l3605 137A                       l3541 1062                       l3533 1042  
                     l3525 0F88                       l3517 0F6A                       l3509 0F3C  
                     l4261 2502                       l4317 2EBC                       l4309 2E88  
                     l3631 2B6C                       l3623 2B32                       l3615 2AFA  
                     l2647 2FD0                       l2655 2F7E                       l2671 2F32  
                     l2663 2F16                       l2751 2C7E                       l2831 200E  
                     l2823 1FD4                       l2815 1FAA                       l2807 1F86  
                     l3711 09A8                       l3703 0980                       l3199 14E8  
                     l3359 2852                       l3391 246E                       l3383 23F2  
                     l3375 23CA                       l3367 2350                       l2743 2F66  
                     l2735 2F3E                       l2911 2678                       l2903 2644  
                     l2727 2D6E                       l2719 2D3E                       l3471 1D18  
                     l3463 1D08                       l3455 1C6E                       l3447 1C5E  
                     l3439 1C1A                       l3295 29B2                       l3287 2990  
                     l3279 2972                       l3607 1384                       l3551 10A2  
                     l3543 1066                       l3535 104C                       l3527 0FAA  
                     l3519 0F6E                       l4271 254E                       l4263 250C  
                     l4319 2EC0                       l3633 2B76                       l3625 2B3C  
                     l3617 2B10                       l2649 2F9A                       l2657 3012  
                     l2665 2F1C                       l2681 2E78                       l2673 2E42  
                     l3641 2886                       l2753 2C8A                       l2833 2014  
                     l2825 1FE6                       l2817 1FC6                       l2809 1F8C  
                     l2841 204A                       l3801 0C02                       l3721 09FE  
                     l3713 09B6                       l3705 098C                       l3393 247A  
                     l3385 2424                       l3369 2360                       l2737 2F42  
                     l2921 26B4                       l2913 268C                       l2905 2650  
                     l2729 2D84                       l4361 21F6                       l3481 1DE2  
                     l3473 1D28                       l3465 1D0A                       l3457 1C7E  
                     l3449 1C60                       l3297 29C4                       l3289 299E  
                     l3609 1390                       l3561 1150                       l3553 10D6  
                     l3545 1068                       l3537 1058                       l3529 0FDE  
                     l4281 259E                       l4273 255E                       l4265 2518  
                     l3627 2B5A                       l3619 2B18                       l3635 2DA2  
                     l2667 2F24                       l2659 2F06                       l2675 2E44  
                     l3651 28D4                       l3643 288A                       l4363 2CB6  
                     l2755 2C96                       l2747 2C6E                       l2771 2AAC  
                     l2763 2A36                       l2683 302C                       l2851 2098  
                     l2843 205C                       l2835 2018                       l2827 1FEE  
                     l2819 1FCA                       l3811 0C38                       l3803 0C0E  
                     l3731 0A42                       l3723 0A10                       l3715 09C8  
                     l3707 0996                       l3395 2488                       l3387 2426  
                     l3379 23DE                       l2691 2C20                       l2739 2F52  
                     l2915 269E                       l2907 2654                       l3491 1E24  
                     l3483 1DEC                       l3475 1D4A                       l3467 1D0E  
                     l3459 1CA0                       l3299 29CC                       l3571 1168  
                     l3563 1152                       l3555 110A                       l3547 1070  
                     l3539 105A                       l4291 25E6                       l4283 25A6  
                     l4275 2570                       l4267 252E                       l3629 2B6A  
                     l3637 2DA6                       l2669 2F2A                       l2677 2E56  
                     l3661 2922                       l3653 28DA                       l3645 2890  
                     l2749 2C72                       l2757 2CA2                       l2765 2A3A  
                     l2685 302E                       l2861 20D0                       l2845 206C  
                     l2837 202A                       l2829 200A                       l2781 1EF6  
                     l2773 1EBE                       l3901 0EAE                       l3821 0C92  
                     l3813 0C4A                       l3805 0C18                       l3741 0A78  
                     l3733 0A4E                       l3725 0A22                       l3717 09DA  
                     l3709 09A2                       l3397 24A6                       l3389 2432  
                     l2693 2C30                       l2933 2712                       l2917 26A0  
                     l2909 2666                       l2941 219A                       l3493 1E3E  
                     l3485 1DF8                       l3477 1D7E                       l3469 1D10  
                     l3581 125A                       l3573 1178                       l3565 115A  
                     l3557 113A                       l3549 1080                       l4293 25F2  
                     l4277 2582                       l4269 2548                       l3639 2DF0  
                     l2679 2E66                       l3663 293E                       l3655 28F0  
                     l3647 28AE                       l2767 2A40                       l2871 210E  
                     l2863 20E6                       l2847 2082                       l2839 2032  
                     l2791 1F38                       l2783 1EFA                       l2775 1EC6  
                     l3911 0EFE                       l3903 0EBE                       l3831 0CC8  
                     l3815 0C5C                       l3807 0C24                       l3751 0AD2  
                     l3743 0A8A                       l3735 0A58                       l3727 0A34  
                     l3823 0CA4                       l3719 09EC                       l3671 08A8  
                     l3399 24A8                       l2695 2C3A                       l2687 2C02  
                     l2935 2726                       l2927 26CA                       l2919 26AC  
                     l2943 21A6                       l3495 1E4E                       l3487 1DFA  
                     l3479 1DB2                       l3591 127E                       l3583 1264  
                     l3575 119A                       l3567 115E                       l3559 1144  
                     l4279 2592                       l4287 25C4                       l3665 2954  
                     l3657 2900                       l3649 28BE                       l2769 2AAA  
                     l2873 2120                       l2849 2094                       l2857 20AE  
                     l2793 1F3E                       l2785 1F00                       l2777 1ECC  
                     l3913 0F1A                       l3905 0ECA                       l3841 0D0C  
                     l3833 0CD4                       l3825 0CA8                       l3817 0C6E  
                     l3809 0C2A                       l3761 0B10                       l3753 0AE4  
                     l3745 0A9C                       l3737 0A64                       l3729 0A38  
                     l3681 08E0                       l3673 08BE                       l2689 2C12  
                     l2937 2736                       l2697 2B8E                       l2961 223A  
                     l2953 21D0                       l2945 21B8                       l3497 1E6A  
                     l3489 1E16                       l3593 1280                       l3585 1270  
                     l3577 11A2                       l3569 1160                       l4289 25D6  
                     l4297 2602                       l3659 291C                       l2875 2134  
                     l2883 2160                       l2859 20C0                       l2795 1F42  
                     l2787 1F12                       l2779 1EDE                       l3907 0EE0  
                     l3915 0F26                       l3851 0D58                       l3843 0D1E  
                     l3835 0CDA                       l3827 0CB2                       l3819 0C80  
                     l3771 0B4C                       l3763 0B1A                       l3755 0AF6  
                     l3747 0AAE                       l3739 0A6A                       l3691 092A  
                     l3683 08E6                       l3675 08C4                       l3667 0892  
                     l2699 2B96                       l2971 224A                       l2963 223E  
                     l2955 2214                       l2947 21C4                       l3499 1E76  
                     l3595 1288                       l3587 1272                       l3579 11FA  
                     l4299 2606                       l2885 2170                       l2877 214A  
                     l2869 20FC                       l2797 1F48                       l2789 1F2A  
                     l3917 0F2C                       l3909 0EF8                       l3861 0D8A  
                     l3853 0D62                       l3845 0D30                       l3837 0CE8  
                     l3829 0CBE                       l3781 0BA6                       l3773 0B5E  
                     l3765 0B26                       l3757 0AFA                       l3749 0AC0  
                     l3693 093C                       l3685 08F4                       l3677 08CE  
                     l3669 089C                       l2981 22A2                       l2965 2246  
                     l2957 2224                       l2949 21CC                       l3597 1298  
                     l3589 127A                       l2887 2186                       l2799 1F4C  
                     l2895 2ECC                       l3871 0DE0                       l3863 0D98  
                     l3855 0D6E                       l3847 0D42                       l3839 0CFA  
                     l3791 0BDC                       l3783 0BB8                       l3775 0B70  
                     l3767 0B2C                       l3759 0B04                       l3695 094E  
                     l3687 0906                       l3679 08DA                       l2991 2308  
                     l2983 22AE                       l2975 2278                       l2959 222C  
                     l3599 12BA          ?_LCD_Write_Nibble 0001                       l2897 2ED8  
                     l3881 0E1E                       l3873 0DF2                       l3865 0DAA  
                     l3857 0D78                       l3793 0BE8                       l3785 0BBC  
                     l3777 0B82                       l3769 0B3A                       l3849 0D54  
                     l3697 0960                       l3689 0918                       l2993 230C  
                     l2985 22B2                       l2977 227A                       l2899 2EE4  
                     l3891 0E5E                       l3883 0E28                       l3867 0DBC  
                     l3859 0D84                       l3787 0BC6                       l3875 0E04  
                     l3779 0B94                       l3699 0972                       l2987 22BA  
                     l2979 228C                       l2995 231E                       l3893 0E6A  
                     l3885 0E34                       l3877 0E08                       l3869 0DCE  
                     l3789 0BD2                       l3797 0BF4                       l2989 22FC  
                     l2997 2340                       l3895 0E80                       l3879 0E12  
                     l3799 0BF8                       l3887 0E3C                       l3889 0E4E  
                     l3899 0E9C                       STR_1 0840                       STR_2 080B  
                     STR_3 088F                       STR_4 088F                       STR_5 088F  
                     STR_6 088F                       STR_7 088F                       STR_8 088F  
                     STR_9 088F                       u2100 2FA8                       u2101 2FA4  
                     u2110 2FBE                       u2111 2FBA                       u2120 2F7E  
                     u3000 16B8                       u2200 2BE2                       u2121 2F7A  
                     u3001 16B4                       u2201 2BDE                       u2130 2F94  
                     u3010 16CE                       u2210 2D50                       u2131 2F90  
                     u3011 16CA                       u2211 2D4C                       u2140 2E66  
                     u2300 1EDE                       u3020 16E2                       u2220 2D6E  
                     u3100 29E2                       u2141 2E62                       u2301 1EDA  
                     u3021 16DE                       u2221 2D6A                       u3101 29DE  
                     u2150 2E78                       u2310 1EF6                       u3030 16FC  
                     u2230 2D84                       u3110 29FE                       u2151 2E74  
                     u2311 1EF2                       u3031 16F8                       u2231 2D80  
                     u3111 29FA                       u2080 2FD0                       u2400 202A  
                     u2320 1F12                       u3040 1744                       u3200 2360  
                     u2160 2C20                       u2240 2F52                       u3120 2A24  
                     _LATD 000F8C                       u2081 2FCC                       u2401 2026  
                     u2321 1F0E                       u3041 1740                       u3201 235C  
                     u2161 2C1C                       u2241 2F4E                       u3121 2A20  
                     u2090 2FE6                       u2410 204A                       u2330 1F2A  
                     u3050 1772                       u3130 2794                       u3210 236E  
                     u2170 2C5A                       u2250 2F62                       u2091 2FE2  
                     u2411 2046                       u2331 1F26                       u3051 176E  
                     u3131 2790                       u3211 236A                       u2171 2C56  
                     u2251 2F5E                       u2260 2A6C                       u2500 2170  
                     u2420 205C                       u2340 1F5E                       u3060 17AC  
                     u3140 27C8                       u3220 23CA                       u2180 2BA8  
                     u3300 1BAC                       u2501 216C                       u2421 2058  
                     u2341 1F5A                       u3061 17A8                       u3221 23C6  
                     u2181 2BA4                       u3301 1BA8                       u2270 2A9E  
                     u2430 206C                       u2350 1F7E                       u2510 2F02  
                     u3150 27F6                       u3230 2420                       u2190 2BC6  
                     u3310 1BBE                       u3070 2984                       u2431 2068  
                     u2351 1F7A                       u2511 2EFE                       u3151 27F2  
                     u3231 241C                       u2191 2BC2                       u3311 1BBA  
                     u3071 2980                       u2280 2AD8                       u2440 2094  
                     u2360 1FA2                       u3160 280A                       u3240 246A  
                     u2520 2666                       u2600 2274                       u3400 1E84  
                     u3320 1BD0                       u3080 299E                       u2441 2090  
                     u2361 1F9E                       u3161 2806                       u3145 27BE  
                     u3241 2466                       u2521 2662                       u2601 2270  
                     u3401 1E80                       u3321 1BCC                       u3081 299A  
                     u2290 2AE8                       u2450 20C0                       u2370 1FC2  
                     u3170 2832                       u3250 2488                       u2530 2678  
                     u2610 228C                       u3330 1BE2                       u3090 29C4  
                     u3410 0F88                       u2291 2AE4                       u2267 2A62  
                     u2451 20BC                       u2371 1FBE                       u3171 282E  
                     u3251 2484                       u2531 2674                       u2611 2288  
                     u3331 1BDE                       u3091 29C0                       u3411 0F84  
                     u2460 20D0                       u2380 1FE6                       u3500 0918  
                     u2700 186C                       u3180 2852                       u3260 2498  
                     u2540 269E                       u2620 22A2                       u3340 1BF4  
                     u3420 1080                       u2277 2A94                       u2461 20CC  
                     u2381 1FE2                       u3501 0914                       u2701 1868  
                     u3181 284E                       u3261 2494                       u2541 269A  
                     u2621 229E                       u3341 1BF0                       u3421 107C  
                     u2470 210E                       u2390 2006                       u3510 092A  
                     u2710 18AC                       u3190 2862                       u3270 24A6  
                     u2550 26C6                       u2630 231E                       u3350 1C06  
                     u3430 1178                       u2287 2ACE                       u2471 210A  
                     u2391 2002                       u3511 0926                       u2711 18A8  
                     u3191 285E                       u3271 24A2                       u2551 26C2  
                     u2631 231A                       u3351 1C02                       u3431 1174  
                     u2480 2120                       u3600 0A10                       u3520 093C  
                     u2800 1A38                       u2720 18EC                       u3280 24E0  
                     u2560 2726                       u2640 2340                       u3360 1C2C  
                     u3440 1298                       _IPEN 007E87                       u2481 211C  
                     u3601 0A0C                       u3521 0938                       u2801 1A34  
                     u2721 18E8                       u3281 24DC                       u2561 2722  
                     u2641 233C                       u3361 1C28                       u3441 1294  
                     u3450 2B10                       u2490 2134                       u3610 0A22  
                     u3530 094E                       u2810 1A66                       u2730 1962  
                     u2650 17E4                       u3290 24EE                       u2570 2736  
                     u3370 1C7E                       u3451 2B0C                       u2491 2130  
                     u3611 0A1E                       u3531 094A                       u2811 1A62  
                     u2731 195E                       u2651 17E0                       u3291 24EA  
                     u2571 2732                       u3371 1C7A                       u3460 2B32  
                     u3700 0B4C                       u3620 0A34                       u3540 0960  
                     u2820 1A7C                       u2740 1984                       u2660 17F6  
                     u2900 13DC                       u2580 21B8                       u3380 1D28  
                     u3461 2B2E                       u3701 0B48                       u3621 0A30  
                     u3541 095C                       u2821 1A78                       u2741 1980  
                     u2661 17F2                       u2901 13D8                       u2581 21B4  
                     u3381 1D24                       u3470 2B5A                       u3710 0B5E  
                     u3630 0A8A                       u3550 0972                       u2830 1A90  
                     u2750 19AE                       u2670 1806                       u2910 141C  
                     u2590 223A                       u3390 1E6A                       u4430 2570  
                     u3471 2B56                       u3711 0B5A                       u3631 0A86  
                     u3551 096E                       u2831 1A8C                       u2751 19AA  
                     u2671 1802                       u2911 1418                       u2591 2236  
                     u3391 1E66                       u4431 256C                       u3800 0C80  
                     u3720 0B70                       u3640 0A9C                       u3560 09C8  
                     u2840 1AAA                       u2760 19D2                       u2680 184A  
                     u2920 142E                       u4440 2582                       u3801 0C7C  
                     u3721 0B6C                       u3641 0A98                       u3561 09C4  
                     u2841 1AA6                       u2761 19CE                       u2681 1846  
                     u2921 142A                       u4441 257E                       u3810 0C92  
                     u3730 0B82                       u3650 0AAE                       u3570 09DA  
                     u3490 0906                       u2850 1AF2                       u2770 19E8  
                     u2690 185C                       u2930 143E                       u4450 25D6  
                     u3811 0C8E                       u3731 0B7E                       u3651 0AAA  
                     u3571 09D6                       u3491 0902                       u2851 1AEE  
                     u2771 19E4                       u2691 1858                       u2931 143A  
                     u4451 25D2                       u4507 25B2                       u3900 0DBC  
                     u3820 0CA4                       u3740 0B94                       u3660 0AC0  
                     u3580 09EC                       u2860 1B22                       u2780 1A06  
                     u2940 1474                       u4460 261E                       u3485 2DC8  
                     u3901 0DB8                       u3821 0CA0                       u3741 0B90  
                     u3661 0ABC                       u3581 09E8                       u2861 1B1E  
                     u2781 1A02                       u2941 1470                       u4517 0F72  
                     u4461 261A                       u3910 0DCE                       u3830 0CFA  
                     u3750 0BA6                       u3670 0AD2                       u3590 09FE  
                     u2870 1B50                       u2790 1A26                       u2950 1484  
                     u4470 263A                       u3911 0DCA                       u3831 0CF6  
                     u3751 0BA2                       u3671 0ACE                       u3591 09FA  
                     u2871 1B4C                       u2791 1A22                       u2951 1480  
                     u4607 1C68                       u4527 105C                       u4471 2636  
                     u3920 0DE0                       u3840 0D0C                       u3760 0BB8  
                     u3680 0AE4                       u2960 15FE                       u2880 13BA  
                     u3921 0DDC                       u3841 0D08                       u3761 0BB4  
                     u3681 0AE0                       u2881 13B6                       u4617 1D12  
                     u4537 106A                       u3930 0DF2                       u3850 0D1E  
                     u3770 0C4A                       u3690 0AF6                       u2970 1658  
                     u2890 13CC                       u3931 0DEE                       u4707 0D90  
                     u3851 0D1A                       u3771 0C46                       u3691 0AF2  
                     u2971 1654                       u2891 13C8                       u4627 1E96  
                     u4547 1154                       u3940 0E04                       u3860 0D30  
                     u3780 0C5C                       u2980 1678                       _RCEN 007E2B  
                     u4717 0E8A                       u3941 0E00                       u3861 0D2C  
                     u3781 0C58                       u4637 08B2                       u2981 1674  
                     u2965 15F4                       u4557 1162                       u3950 0E4E  
                     u3870 0D42                       u3790 0C6E                       u2990 168A  
                     u4807 2910                       u4727 0EEA                       u3951 0E4A  
                     u3871 0D3E                       u3791 0C6A                       u4647 08EC  
                     u2991 1686                       u4567 1274                       u4487 253A  
                     u3960 0EAE                       u3880 0D54                       u4817 292C  
                     u4737 0F32                       u3961 0EAA                       u3881 0D50  
                     u4657 09AE                       u4577 1282                       u4497 2556  
                     u3890 0DAA                       u4827 2948                       u4747 1F30  
                     u3891 0DA6                       u4667 0A70                       u4587 1394  
                     u4837 2964                       u4757 289A                       u4677 0B32  
                     u4597 1B90                       u4847 2E7E                       u4767 28B4  
                     u4687 0C30                       u4857 2F34                       u4777 28CA  
                     u4697 0CE0                       u4787 28E0                       u4797 28F6  
                     _RSEN 007E29               __CFG_PWRT$ON 000000         ??_LCD_Write_Nibble 0005  
                     _atol 2644                       _main 2E88         __size_of_LCD_Begin 00EE  
                     _insp 0043                       _modo 2502           __end_of_I2C_Init 2DF6  
                     _text 0078                       fsr0h 000FEA                       indf0 000FEF  
                     fsr2h 000FDA                       fsr0l 000FE9                       indf2 000FDF  
                     fsr1l 000FE1                       fsr2l 000FD9                       btemp 005D  
         __end_of_I2C_Stop 2FC2                       prodh 000FF4                       prodl 000FF3  
       __size_of_LCD_Print 00B4                       start 000E              __CFG_IESO$OFF 000000  
          ___fldiv@new_exp 002C                LCD_Goto@col 000B                LCD_Goto@row 0008  
             ___param_bank 000000           __end_of_LCD_Goto 2CD6           __end_of_LCD_PutC 3042  
            __CFG_PLLDIV$5 000000              ___fltol@sign1 000A                      ?_atol 000E  
                    ?_main 0001                      _ACKEN 007E2C                      _ACKDT 007E2D  
          __end_of___fldiv 1B64            __end_of___awdiv 2A36                      ?_modo 0001  
                    _ADRES 000FC3                      STR_10 088F                      STR_11 088F  
                    STR_12 088F                      STR_20 084B                      STR_13 088F  
                    STR_21 0879                      STR_14 088F                      STR_30 0880  
                    STR_22 085E                      STR_15 088F                      STR_31 0835  
                    STR_23 081B                      STR_16 088F                      STR_32 0886  
                    STR_24 0855                      STR_17 088F                      STR_33 0886  
                    STR_25 0828                      STR_18 088F                      STR_34 088B  
                    STR_26 0870                      STR_35 088B                      STR_19 0879  
                    STR_27 0867                      STR_28 0880                      STR_29 0886  
          __end_of___flmul 17CA            __end_of___fltol 2884            __end_of___lldiv 2B8E  
          ___awdiv@divisor 0014            __end_of___lwdiv 2C02            __end_of___lwmod 2DA2  
                    i2l143 2E10                      i2l145 2E2E                      i2l146 2E3C  
          ___awdiv@counter 0016                      _PORTD 000F83              __CFG_USBDIV$2 000000  
                    _TRISA 000F92                      _TRISD 000F95              __CFG_WRT0$OFF 000000  
            __CFG_WRT1$OFF 000000              __CFG_WRT2$OFF 000000        ___lmul@multiplicand 0006  
            __CFG_WRT3$OFF 000000             __CFG_EBTR0$OFF 000000             __CFG_FCMEN$OFF 000000  
           __CFG_EBTR1$OFF 000000             __CFG_EBTR2$OFF 000000             __CFG_EBTR3$OFF 000000  
            __CFG_WRTB$OFF 000000              __CFG_WRTC$OFF 000000              __CFG_WRTD$OFF 000000  
           __CFG_EBTRB$OFF 000000            __end_of_dpowers 080B                      _incon 0047  
                    _modo2 0045                      _error 003F            __end_of_keyfind 219A  
          __end_of_isdigit 2F6E                      _tecla 004B                      atol@a 0017  
                    atol@c 001B                      atol@s 000E          __end_of_I2C_Start 2FEA  
           __pbitbssCOMRAM 02E0          __end_of_I2C_Write 2F9A                      tablat 000FF5  
                    ttemp5 005E                      ttemp6 0061                      ttemp7 0065  
                    status 000FD8                      wtemp8 005E            __end_of_sprintf 234E  
           __CFG_ICPRT$OFF 000000       I2C_Init@i2c_clk_freq 000F             __CFG_MCLRE$OFF 000000  
          __initialization 2CD6               __end_of_atol 277E               __end_of_main 2ECC  
             __end_of_modo 2644                     ??_atol 0012                     ??_main 0035  
                   ??_modo 00AA          __end_of_LCD_Begin 2972              __activetblptr 000002  
                ??_LCD_Cmd 0006                  ??_INT2ISR 0001          __end_of_LCD_Print 2AEA  
          __CFG_CCP2MX$OFF 000000                     _ADCON0 000FC2                     _ADCON1 000FC1  
                   _ADCON2 000FC0           ___awdiv@dividend 0012                     _INT2IE 007F84  
                   _INT2IF 007F81                     _INT2IP 007F87                     i2l2581 2E38  
                   i2l2573 2DF8                     i2l2583 2E3A                     i2l2575 2E04  
                   i2l2577 2E0C                     i2l2579 2E30                     _SSPADD 000FC8  
                   _SSPBUF 000FC9           __end_of___xxtofl 2502             __CFG_XINST$OFF 000000  
                   ___lmul 2C02                     _acceso 0055                     ___wmul 2FEA  
                ??___fldiv 0023                  ??___awdiv 0016             __CFG_STVREN$ON 000000  
                ??___flmul 000A                  ??___fltol 0006                  ??___lldiv 000A  
                ??___lwdiv 0006                  ??___lwmod 000D                     _contra 0059  
                   _manual 0F3C                     _keypad 009A                     _memset 2ECC  
                   clear_0 2D1C                     clear_1 2D2A           ___awdiv@quotient 0018  
                   _rowloc 004F    __size_of_Expander_Write 001A               __pdataCOMRAM 0053  
                ??_keyfind 0007                  ??_isdigit 0002                  ?_I2C_Init 000F  
                ?_I2C_Stop 0001               __mediumconst 0000                     tblptrh 000FF7  
                   tblptrl 000FF6                     tblptru 000FF8                  ??_sprintf 0020  
             ___xxtofl@arg 000C               ___xxtofl@exp 000B               ___xxtofl@val 0002  
               __accesstop 0060    __end_of__initialization 2D30                  ?_LCD_Goto 0008  
          __CFG_PBADEN$OFF 000000                  ?_LCD_PutC 0001              ___rparam_used 000001  
               ___fltol@f1 0002              _backlight_val 005A             __pcstackCOMRAM 0001  
             __pidataBANK0 3042             LCD_Cmd@Command 0007                 ??_I2C_Init 0013  
               ??_I2C_Stop 0002                 __pbssBANK0 0060         __size_of_automatic 035A  
               ??_LCD_Goto 0009                 ??_LCD_PutC 0006                 __pnvCOMRAM 005B  
               _bienv_cont 0892                    ?___lmul 0002                    ?___wmul 000C  
__size_of_LCD_Write_Nibble 0038                    ?_manual 0001                    ?_memset 0002  
           ___lmul@product 000A                    _LCD_Cmd 2E40                    _INT2ISR 0008  
                  _INTEDG2 007F8C                  ?___xxtofl 0002                    _SSPCON1 000FC6  
                  _SSPCON2 000FC5                    _SSPSTAT 000FC7            __CFG_VREGEN$OFF 000000  
               _contrasena 0074                  _I2C_Start 2FC2                  _I2C_Write 2F6E  
                  _Tem_Act 0041                    __Hparam 0000                    __Lparam 0000  
      Expander_Write@value 0004           LCD_PutC@LCD_Char 0006                    ___fldiv 17CA  
                  ___awdiv 2972            __size_of___lmul 006A                    ___flmul 13A0  
                  ___fltol 277E                    ___lldiv 2AEA            __size_of___wmul 0026  
                  ___lwdiv 2B8E                    ___lwmod 2D3E               __psmallconst 0800  
              _Temperatura 008C            __size_of_manual 0464                    __pcinit 2CD6  
          __size_of_memset 0038                    __ramtop 0800                    _celsius 0035  
               _error_past 007C                    __ptext0 2E88                    __ptext1 2502  
                  __ptext2 0F3C                    __ptext3 2972                    __ptext4 1B64  
                  __ptext5 219A                    __ptext6 2D3E                    __ptext7 2B8E  
                  __ptext8 2644                    __ptext9 2F3C                    _col_loc 0050  
        __end_of_automatic 1EBE                    _contras 0096             _Expander_Write 3010  
                  _dpowers 0801                    _keyfind 1EBE                    _isdigit 2F3C  
               ??___xxtofl 0006                  _LCD_Begin 2884                  _LCD_Print 2A36  
                  _sprintf 219A             __pintcode_body 2DF6       end_of_initialization 2D30  
                  memset@c 0004                    memset@n 0006                    memset@p 0008  
            __Lmediumconst 0000                    int_func 2DF6                 ?_I2C_Start 0001  
               ?_I2C_Write 0001                ?_bienv_cont 0001            ___lldiv@divisor 0006  
          ___lldiv@counter 000E                    postdec1 000FE5                    postdec2 000FDD  
                  postinc0 000FEE                    postinc2 000FDE          LCD_Write_Nibble@n 0005  
   __end_of_Expander_Write 302A              ___xxtofl@sign 000A                  _TRISBbits 000F93  
               ?_LCD_Begin 0001          __size_of_I2C_Init 0054                ___fldiv@grs 002E  
              ___fldiv@rem 0027          __size_of_I2C_Stop 0028                 ?_LCD_Print 0006  
              ___flmul@grs 000F          __size_of_LCD_Goto 006A          __size_of_LCD_PutC 0018  
         _LCD_Write_Nibble 2F04                 LCD_Print@i 000B             __end_of___lmul 2C6C  
           __end_of___wmul 3010              __pidataCOMRAM 3052            ?_Expander_Write 0001  
           __end_of_manual 13A0             __end_of_memset 2F04        start_initialization 2CD6  
      __size_of_bienv_cont 06AA                ??_I2C_Start 0002                ??_I2C_Write 0002  
                 ??___lmul 000A                   ??___wmul 0010                __pdataBANK0 009A  
         __CFG_LPT1OSC$OFF 000000                   ??_manual 0034                   ??_memset 0008  
                 ?_LCD_Cmd 0001                   ?_INT2ISR 0001                  ___fldiv@a 001F  
                ___fldiv@b 001B                  ___flmul@a 0006                  ___flmul@b 0002  
              __pbssCOMRAM 0035              __pcstackBANK0 00AA                ??_LCD_Begin 0008  
        __size_of___xxtofl 01B4                ??_LCD_Print 0008                sprintf@flag 0024  
              sprintf@prec 0025           ___lwdiv@dividend 0002                  __pintcode 0008  
                 ?___fldiv 001B                   ?___awdiv 0012                   ?___flmul 0002  
                 ?___fltol 0002                   ?___lldiv 0002                   ?___lwdiv 0002  
                 ?___lwmod 0009           LCD_Print@LCD_Str 0006                __smallconst 0800  
                 ?_keyfind 0001                   ?_isdigit 0001                   _I2C_Init 2DA2  
                 _I2C_Stop 2F9A                  _automatic 1B64           ___lwdiv@quotient 0006  
                 ?_sprintf 001A                   _LCD_Goto 2C6C                   _LCD_PutC 302A  
           ___wmul@product 0010                   _LATBbits 000F8A               ??_bienv_cont 000C  
                 i2u195_40 2E2E                   i2u195_41 2E2A                   i2u486_47 2E06  
                 i2u487_47 2E32           __CFG_WDTPS$32768 000000                 _ADCON0bits 000FC2  
        ___wmul@multiplier 000C           __size_of_LCD_Cmd 0048           __size_of_INT2ISR 2E38  
               ?_automatic 0001         __end_of_bienv_cont 0F3C   __end_of_LCD_Write_Nibble 2F3C  
        ___lmul@multiplier 0002                  copy_data0 2CEA                  copy_data1 2D0A  
                 _i2c_addr 005B                   _SetPoint 0070                   __Hrparam 0000  
                 __Lrparam 0000           ??_Expander_Write 0004                   _Potencio 0082  
         __size_of___fldiv 039A           __size_of___awdiv 00C4           __size_of___flmul 042A  
         __size_of___fltol 0106           __size_of___lldiv 00A4           __size_of___lwdiv 0074  
         __size_of___lwmod 0064                _isdigit$905 0003                 sprintf@val 0026  
                 ___xxtofl 234E           __size_of_keyfind 02DC           __size_of_isdigit 0032  
          ___lwdiv@divisor 0004            ___lwdiv@counter 0008                   __ptext10 2C02  
                 __ptext11 234E                   __ptext20 2A36                   __ptext12 2FEA  
                 __ptext21 2C6C                   __ptext13 277E                   __ptext30 2AEA  
                 __ptext22 2884                   __ptext14 13A0                   __ptext23 2E40  
                 __ptext15 17CA                   __ptext24 2F04                   __ptext16 0892  
                 __ptext25 3010                   __ptext17 2ECC                   __ptext26 2F6E  
                 __ptext18 1EBE                   __ptext27 2F9A                   __ptext19 302A  
                 __ptext28 2FC2                   __ptext29 2DA2                _error_total 003D  
         __size_of_sprintf 01B4              __size_of_atol 013A              __size_of_main 0044  
            __size_of_modo 0142                   _temp_col 004E                   int$flags 005D  
                 atol@sign 0016          I2C_Write@i2c_data 0003      __CFG_CPUDIV$OSC1_PLL2 000000  
              ??_automatic 0034                   isdigit@c 0004                   memset@p1 0002  
       LCD_Begin@_i2c_addr 000A                   intlevel2 0000                  sprintf@ap 0022  
                sprintf@sp 001A           ___lwmod@dividend 0009           ___lldiv@dividend 0002  
            _potenciometro 0064                   sprintf@c 0028                   sprintf@f 001C  
         ___lldiv@quotient 000A            ___lwmod@divisor 000B            ___lwmod@counter 000D  
